 PhysX_64

 Timestamp is 60c64302 (Sun Jun 13 18:40:18 2021)

 Preferred load address is 0000000180000000

 Start         Length     Name                   Class
 0001:00000000 00002da0H .text$di                CODE
 0001:00002da0 001e5e10H .text$mn                CODE
 0001:001e8bb0 00000040H .text$mn$00             CODE
 0001:001e8bf0 000009f0H .text$x                 CODE
 0002:00000000 00000300H .idata$5                DATA
 0002:00000300 00000028H .00cfg                  DATA
 0002:00000328 00000008H .CRT$XCA                DATA
 0002:00000330 00001690H .CRT$XCU                DATA
 0002:000019c0 00000008H .CRT$XCZ                DATA
 0002:000019c8 00000008H .CRT$XIA                DATA
 0002:000019d0 00000018H .CRT$XIC                DATA
 0002:000019e8 00000008H .CRT$XIZ                DATA
 0002:000019f0 00000008H .CRT$XPA                DATA
 0002:000019f8 00000010H .CRT$XPX                DATA
 0002:00001a08 00000008H .CRT$XPXA               DATA
 0002:00001a10 00000008H .CRT$XPZ                DATA
 0002:00001a18 00000008H .CRT$XTA                DATA
 0002:00001a20 00000010H .CRT$XTZ                DATA
 0002:00001a28 00000000H .gehcont$y              DATA
 0002:00001a28 00000000H .gfids$y                DATA
 0002:00001a30 0001ee50H .rdata                  DATA
 0002:00020880 00000008H .rdata$CastGuardVftablesA DATA
 0002:00020888 00000008H .rdata$CastGuardVftablesC DATA
 0002:00020890 00000464H .rdata$r                DATA
 0002:00020cf4 00000434H .rdata$zzzdbg           DATA
 0002:00021128 00000008H .rtc$IAA                DATA
 0002:00021130 00000008H .rtc$IZZ                DATA
 0002:00021138 00000008H .rtc$TAA                DATA
 0002:00021140 00000008H .rtc$TZZ                DATA
 0002:00021148 000257f8H .xdata                  DATA
 0002:00046940 00000084H .xdata$x                DATA
 0002:000469c4 00000040H .didat$2                DATA
 0002:00046a04 00000024H .didat$3                DATA
 0002:00046a28 00000670H .didat$4                DATA
 0002:00047098 00004820H .didat$6                DATA
 0002:0004b8b8 00000678H .didat$7                DATA
 0002:0004bf30 000028d8H .edata                  DATA
 0002:0004e808 00000014H .idata$2                DATA
 0002:0004e81c 00000014H .idata$3                DATA
 0002:0004e830 00000300H .idata$4                DATA
 0002:0004eb30 00000706H .idata$6                DATA
 0003:00000000 000014d0H .data                   DATA
 0003:000014d0 00002eb8H .data$r                 DATA
 0003:00004388 000000f0H .data$rs                DATA
 0003:00004478 00000678H .didat$5                DATA
 0003:00004af0 00004970H .bss                    DATA
 0004:00000000 00018d80H .pdata                  DATA
 0005:00000000 00002304H _RDATA                  DATA
 0006:00000000 000000a0H .rsrc$01                DATA
 0006:000000a0 00000488H .rsrc$02                DATA

  Address         Publics by Value              Rva+Base               Lib:Object

 0000:00000000       __guard_fids_table         0000000000000000     <absolute>
 0000:00000000       __guard_longjmp_table      0000000000000000     <absolute>
 0000:00000000       __arm64x_redirection_metadata 0000000000000000     <absolute>
 0000:00000000       __arm64x_native_entrypoint 0000000000000000     <absolute>
 0000:00000000       __hybrid_code_map          0000000000000000     <absolute>
 0000:00000000       __arm64x_extra_rfe_table_size 0000000000000000     <absolute>
 0000:00000000       __hybrid_auxiliary_iat     0000000000000000     <absolute>
 0000:00000000       __guard_iat_table          0000000000000000     <absolute>
 0000:00000000       __guard_check_icall_a64n_fptr 0000000000000000     <absolute>
 0000:00000000       __AbsoluteZero             0000000000000000     <absolute>
 0000:00000000       __guard_longjmp_count      0000000000000000     <absolute>
 0000:00000000       __guard_eh_cont_count      0000000000000000     <absolute>
 0000:00000000       __guard_eh_cont_table      0000000000000000     <absolute>
 0000:00000000       __guard_fids_count         0000000000000000     <absolute>
 0000:00000000       __volatile_metadata        0000000000000000     <absolute>
 0000:00000000       __enclave_config           0000000000000000     <absolute>
 0000:00000000       ___safe_se_handler_table   0000000000000000     <absolute>
 0000:00000000       __x64_code_ranges_to_entry_points 0000000000000000     <absolute>
 0000:00000000       __arm64x_extra_rfe_table   0000000000000000     <absolute>
 0000:00000000       __hybrid_auxiliary_iat_copy 0000000000000000     <absolute>
 0000:00000000       __hybrid_code_map_count    0000000000000000     <absolute>
 0000:00000000       __guard_iat_count          0000000000000000     <absolute>
 0000:00000000       __dynamic_value_reloc_table 0000000000000000     <absolute>
 0000:00000000       ___safe_se_handler_count   0000000000000000     <absolute>
 0000:00000000       __arm64x_redirection_metadata_count 0000000000000000     <absolute>
 0000:00000000       __x64_code_ranges_to_entry_points_count 0000000000000000     <absolute>
 0000:00000100       __guard_flags              0000000000000100     <absolute>
 0000:00000000       __ImageBase                0000000180000000     <linker-defined>
 0001:00002da0       ??0PxPhysicsGeneratedValues@physx@@QEAA@PEBVPxPhysics@1@@Z 0000000180003da0 f   PxAutoGeneratedMetaDataObjects.obj
 0001:00002dd0       ??0PxPhysicsGeneratedInfo@physx@@QEAA@XZ 0000000180003dd0 f   PxAutoGeneratedMetaDataObjects.obj
 0001:00002f90       ??0PxMaterialGeneratedValues@physx@@QEAA@PEBVPxMaterial@1@@Z 0000000180003f90 f   PxAutoGeneratedMetaDataObjects.obj
 0001:00003030       ??0PxMaterialGeneratedInfo@physx@@QEAA@XZ 0000000180004030 f   PxAutoGeneratedMetaDataObjects.obj
 0001:000031d0       ??0PxActorGeneratedValues@physx@@QEAA@PEBVPxActor@1@@Z 00000001800041d0 f   PxAutoGeneratedMetaDataObjects.obj
 0001:00003250       ??0PxActorGeneratedInfo@physx@@QEAA@XZ 0000000180004250 f   PxAutoGeneratedMetaDataObjects.obj
 0001:00003380       ??0PxRigidActorGeneratedValues@physx@@QEAA@PEBVPxRigidActor@1@@Z 0000000180004380 f   PxAutoGeneratedMetaDataObjects.obj
 0001:000033c0       ??0PxRigidActorGeneratedInfo@physx@@QEAA@XZ 00000001800043c0 f   PxAutoGeneratedMetaDataObjects.obj
 0001:00003480       ??0PxRigidBodyGeneratedValues@physx@@QEAA@PEBVPxRigidBody@1@@Z 0000000180004480 f   PxAutoGeneratedMetaDataObjects.obj
 0001:000035d0       ??0PxRigidBodyGeneratedInfo@physx@@QEAA@XZ 00000001800045d0 f   PxAutoGeneratedMetaDataObjects.obj
 0001:000038e0       ??0PxRigidDynamicGeneratedValues@physx@@QEAA@PEBVPxRigidDynamic@1@@Z 00000001800048e0 f   PxAutoGeneratedMetaDataObjects.obj
 0001:000039b0       ??0PxRigidDynamicGeneratedInfo@physx@@QEAA@XZ 00000001800049b0 f   PxAutoGeneratedMetaDataObjects.obj
 0001:00003b70       ??0PxRigidStaticGeneratedValues@physx@@QEAA@PEBVPxRigidStatic@1@@Z 0000000180004b70 f   PxAutoGeneratedMetaDataObjects.obj
 0001:00003bc0       ??0PxRigidStaticGeneratedInfo@physx@@QEAA@XZ 0000000180004bc0 f   PxAutoGeneratedMetaDataObjects.obj
 0001:00003c10       ??0PxArticulationLinkGeneratedValues@physx@@QEAA@PEBVPxArticulationLink@1@@Z 0000000180004c10 f   PxAutoGeneratedMetaDataObjects.obj
 0001:00003c80       ??0PxArticulationLinkGeneratedInfo@physx@@QEAA@XZ 0000000180004c80 f   PxAutoGeneratedMetaDataObjects.obj
 0001:00003d70       ??0PxArticulationJointBaseGeneratedValues@physx@@QEAA@PEBVPxArticulationJointBase@1@@Z 0000000180004d70 f   PxAutoGeneratedMetaDataObjects.obj
 0001:00003db0       ??0PxArticulationJointBaseGeneratedInfo@physx@@QEAA@XZ 0000000180004db0 f   PxAutoGeneratedMetaDataObjects.obj
 0001:00003e10       ??0PxArticulationJointGeneratedValues@physx@@QEAA@PEBVPxArticulationJoint@1@@Z 0000000180004e10 f   PxAutoGeneratedMetaDataObjects.obj
 0001:00003f70       ??0PxArticulationJointGeneratedInfo@physx@@QEAA@XZ 0000000180004f70 f   PxAutoGeneratedMetaDataObjects.obj
 0001:00004320       ??0PxArticulationJointReducedCoordinateGeneratedValues@physx@@QEAA@PEBVPxArticulationJointReducedCoordinate@1@@Z 0000000180005320 f   PxAutoGeneratedMetaDataObjects.obj
 0001:000043e0       ??0PxArticulationJointReducedCoordinateGeneratedInfo@physx@@QEAA@XZ 00000001800053e0 f   PxAutoGeneratedMetaDataObjects.obj
 0001:00004520       ??0PxArticulationBaseGeneratedValues@physx@@QEAA@PEBVPxArticulationBase@1@@Z 0000000180005520 f   PxAutoGeneratedMetaDataObjects.obj
 0001:000045c0       ??0PxArticulationBaseGeneratedInfo@physx@@QEAA@XZ 00000001800055c0 f   PxAutoGeneratedMetaDataObjects.obj
 0001:000047a0       ??0PxArticulationGeneratedValues@physx@@QEAA@PEBVPxArticulation@1@@Z 00000001800057a0 f   PxAutoGeneratedMetaDataObjects.obj
 0001:00004810       ??0PxArticulationGeneratedInfo@physx@@QEAA@XZ 0000000180005810 f   PxAutoGeneratedMetaDataObjects.obj
 0001:00004900       ??0PxArticulationReducedCoordinateGeneratedValues@physx@@QEAA@PEBVPxArticulationReducedCoordinate@1@@Z 0000000180005900 f   PxAutoGeneratedMetaDataObjects.obj
 0001:00004970       ??0PxArticulationReducedCoordinateGeneratedInfo@physx@@QEAA@XZ 0000000180005970 f   PxAutoGeneratedMetaDataObjects.obj
 0001:00004a40       ??0PxAggregateGeneratedValues@physx@@QEAA@PEBVPxAggregate@1@@Z 0000000180005a40 f   PxAutoGeneratedMetaDataObjects.obj
 0001:00004a90       ??0PxAggregateGeneratedInfo@physx@@QEAA@XZ 0000000180005a90 f   PxAutoGeneratedMetaDataObjects.obj
 0001:00004b20       ??0PxConstraintGeneratedValues@physx@@QEAA@PEBVPxConstraint@1@@Z 0000000180005b20 f   PxAutoGeneratedMetaDataObjects.obj
 0001:00004bb0       ??0PxConstraintGeneratedInfo@physx@@QEAA@XZ 0000000180005bb0 f   PxAutoGeneratedMetaDataObjects.obj
 0001:00004d10       ??0PxShapeGeneratedValues@physx@@QEAA@PEBVPxShape@1@@Z 0000000180005d10 f   PxAutoGeneratedMetaDataObjects.obj
 0001:00004e30       ??0PxShapeGeneratedInfo@physx@@QEAA@XZ 0000000180005e30 f   PxAutoGeneratedMetaDataObjects.obj
 0001:00005110       ??0PxPruningStructureGeneratedValues@physx@@QEAA@PEBVPxPruningStructure@1@@Z 0000000180006110 f   PxAutoGeneratedMetaDataObjects.obj
 0001:00005140       ??0PxPruningStructureGeneratedInfo@physx@@QEAA@XZ 0000000180006140 f   PxAutoGeneratedMetaDataObjects.obj
 0001:00005190       ??0PxTolerancesScaleGeneratedValues@physx@@QEAA@PEBVPxTolerancesScale@1@@Z 0000000180006190 f   PxAutoGeneratedMetaDataObjects.obj
 0001:000051b0       ??0PxTolerancesScaleGeneratedInfo@physx@@QEAA@XZ 00000001800061b0 f   PxAutoGeneratedMetaDataObjects.obj
 0001:00005230       ??0PxGeometryGeneratedValues@physx@@QEAA@PEBVPxGeometry@1@@Z 0000000180006230 f   PxAutoGeneratedMetaDataObjects.obj
 0001:00005240       ??0PxGeometryGeneratedInfo@physx@@QEAA@XZ 0000000180006240 f   PxAutoGeneratedMetaDataObjects.obj
 0001:00005250       ??0PxBoxGeometryGeneratedValues@physx@@QEAA@PEBVPxBoxGeometry@1@@Z 0000000180006250 f   PxAutoGeneratedMetaDataObjects.obj
 0001:00005270       ??0PxBoxGeometryGeneratedInfo@physx@@QEAA@XZ 0000000180006270 f   PxAutoGeneratedMetaDataObjects.obj
 0001:000052b0       ??0PxCapsuleGeometryGeneratedValues@physx@@QEAA@PEBVPxCapsuleGeometry@1@@Z 00000001800062b0 f   PxAutoGeneratedMetaDataObjects.obj
 0001:000052d0       ??0PxCapsuleGeometryGeneratedInfo@physx@@QEAA@XZ 00000001800062d0 f   PxAutoGeneratedMetaDataObjects.obj
 0001:00005330       ??0PxMeshScaleGeneratedValues@physx@@QEAA@PEBVPxMeshScale@1@@Z 0000000180006330 f   PxAutoGeneratedMetaDataObjects.obj
 0001:00005370       ??0PxMeshScaleGeneratedInfo@physx@@QEAA@XZ 0000000180006370 f   PxAutoGeneratedMetaDataObjects.obj
 0001:000053d0       ??0PxConvexMeshGeometryGeneratedValues@physx@@QEAA@PEBVPxConvexMeshGeometry@1@@Z 00000001800063d0 f   PxAutoGeneratedMetaDataObjects.obj
 0001:00005420       ??0PxConvexMeshGeometryGeneratedInfo@physx@@QEAA@XZ 0000000180006420 f   PxAutoGeneratedMetaDataObjects.obj
 0001:000054b0       ??0PxSphereGeometryGeneratedValues@physx@@QEAA@PEBVPxSphereGeometry@1@@Z 00000001800064b0 f   PxAutoGeneratedMetaDataObjects.obj
 0001:000054c0       ??0PxSphereGeometryGeneratedInfo@physx@@QEAA@XZ 00000001800064c0 f   PxAutoGeneratedMetaDataObjects.obj
 0001:00005500       ??0PxPlaneGeometryGeneratedValues@physx@@QEAA@PEBVPxPlaneGeometry@1@@Z 0000000180006500 f   PxAutoGeneratedMetaDataObjects.obj
 0001:00005510       ??0PxPlaneGeometryGeneratedInfo@physx@@QEAA@XZ 0000000180006510 f   PxAutoGeneratedMetaDataObjects.obj
 0001:00005520       ??0PxTriangleMeshGeometryGeneratedValues@physx@@QEAA@PEBVPxTriangleMeshGeometry@1@@Z 0000000180006520 f   PxAutoGeneratedMetaDataObjects.obj
 0001:00005570       ??0PxTriangleMeshGeometryGeneratedInfo@physx@@QEAA@XZ 0000000180006570 f   PxAutoGeneratedMetaDataObjects.obj
 0001:00005600       ??0PxHeightFieldGeometryGeneratedValues@physx@@QEAA@PEBVPxHeightFieldGeometry@1@@Z 0000000180006600 f   PxAutoGeneratedMetaDataObjects.obj
 0001:00005630       ??0PxHeightFieldGeometryGeneratedInfo@physx@@QEAA@XZ 0000000180006630 f   PxAutoGeneratedMetaDataObjects.obj
 0001:00005710       ??0PxHeightFieldDescGeneratedValues@physx@@QEAA@PEBVPxHeightFieldDesc@1@@Z 0000000180006710 f   PxAutoGeneratedMetaDataObjects.obj
 0001:00005740       ??0PxHeightFieldDescGeneratedInfo@physx@@QEAA@XZ 0000000180006740 f   PxAutoGeneratedMetaDataObjects.obj
 0001:00005860       ??0PxSceneGeneratedValues@physx@@QEAA@PEBVPxScene@1@@Z 0000000180006860 f   PxAutoGeneratedMetaDataObjects.obj
 0001:00005b80       ??0PxSceneGeneratedInfo@physx@@QEAA@XZ 0000000180006b80 f   PxAutoGeneratedMetaDataObjects.obj
 0001:00006260       ??0PxSceneLimitsGeneratedValues@physx@@QEAA@PEBVPxSceneLimits@1@@Z 0000000180007260 f   PxAutoGeneratedMetaDataObjects.obj
 0001:000062a0       ??0PxSceneLimitsGeneratedInfo@physx@@QEAA@XZ 00000001800072a0 f   PxAutoGeneratedMetaDataObjects.obj
 0001:00006420       ??0PxgDynamicsMemoryConfigGeneratedValues@physx@@QEAA@PEBUPxgDynamicsMemoryConfig@1@@Z 0000000180007420 f   PxAutoGeneratedMetaDataObjects.obj
 0001:00006460       ??0PxgDynamicsMemoryConfigGeneratedInfo@physx@@QEAA@XZ 0000000180007460 f   PxAutoGeneratedMetaDataObjects.obj
 0001:000065e0       ??0PxSceneDescGeneratedValues@physx@@QEAA@PEBVPxSceneDesc@1@@Z 00000001800075e0 f   PxAutoGeneratedMetaDataObjects.obj
 0001:000067f0       ??0PxSceneDescGeneratedInfo@physx@@QEAA@XZ 00000001800077f0 f   PxAutoGeneratedMetaDataObjects.obj
 0001:00007010       ??0PxSimulationStatisticsGeneratedValues@physx@@QEAA@PEBVPxSimulationStatistics@1@@Z 0000000180008010 f   PxAutoGeneratedMetaDataObjects.obj
 0001:00007300       ??0PxSimulationStatisticsGeneratedInfo@physx@@QEAA@XZ 0000000180008300 f   PxAutoGeneratedMetaDataObjects.obj
 0001:000077a0       ?getPxPhysics_TolerancesScale@@YA?BVPxTolerancesScale@physx@@PEBVPxPhysics@2@@Z 00000001800087a0 f   PxAutoGeneratedMetaDataObjects.obj
 0001:000077d0       ?getPxPhysics_TriangleMeshes@@YAIPEBVPxPhysics@physx@@PEAPEAVPxTriangleMesh@2@I@Z 00000001800087d0 f   PxAutoGeneratedMetaDataObjects.obj
 0001:000077e0       ?getNbPxPhysics_TriangleMeshes@@YAIPEBVPxPhysics@physx@@@Z 00000001800087e0 f   PxAutoGeneratedMetaDataObjects.obj
 0001:000077f0       ?createPxPhysics_TriangleMeshes@@YAPEAVPxTriangleMesh@physx@@PEAVPxPhysics@2@AEAVPxInputStream@2@@Z 00000001800087f0 f   PxAutoGeneratedMetaDataObjects.obj
 0001:00007800       ?getPxPhysics_HeightFields@@YAIPEBVPxPhysics@physx@@PEAPEAVPxHeightField@2@I@Z 0000000180008800 f   PxAutoGeneratedMetaDataObjects.obj
 0001:00007810       ?getNbPxPhysics_HeightFields@@YAIPEBVPxPhysics@physx@@@Z 0000000180008810 f   PxAutoGeneratedMetaDataObjects.obj
 0001:00007820       ?createPxPhysics_HeightFields@@YAPEAVPxHeightField@physx@@PEAVPxPhysics@2@AEAVPxInputStream@2@@Z 0000000180008820 f   PxAutoGeneratedMetaDataObjects.obj
 0001:00007830       ?getPxPhysics_ConvexMeshes@@YAIPEBVPxPhysics@physx@@PEAPEAVPxConvexMesh@2@I@Z 0000000180008830 f   PxAutoGeneratedMetaDataObjects.obj
 0001:00007840       ?getNbPxPhysics_ConvexMeshes@@YAIPEBVPxPhysics@physx@@@Z 0000000180008840 f   PxAutoGeneratedMetaDataObjects.obj
 0001:00007850       ?createPxPhysics_ConvexMeshes@@YAPEAVPxConvexMesh@physx@@PEAVPxPhysics@2@AEAVPxInputStream@2@@Z 0000000180008850 f   PxAutoGeneratedMetaDataObjects.obj
 0001:00007860       ?getPxPhysics_BVHStructures@@YAIPEBVPxPhysics@physx@@PEAPEAVPxBVHStructure@2@I@Z 0000000180008860 f   PxAutoGeneratedMetaDataObjects.obj
 0001:00007880       ?getNbPxPhysics_BVHStructures@@YAIPEBVPxPhysics@physx@@@Z 0000000180008880 f   PxAutoGeneratedMetaDataObjects.obj
 0001:00007890       ?createPxPhysics_BVHStructures@@YAPEAVPxBVHStructure@physx@@PEAVPxPhysics@2@AEAVPxInputStream@2@@Z 0000000180008890 f   PxAutoGeneratedMetaDataObjects.obj
 0001:000078a0       ?getPxPhysics_Scenes@@YAIPEBVPxPhysics@physx@@PEAPEAVPxScene@2@I@Z 00000001800088a0 f   PxAutoGeneratedMetaDataObjects.obj
 0001:000078c0       ?getNbPxPhysics_Scenes@@YAIPEBVPxPhysics@physx@@@Z 00000001800088c0 f   PxAutoGeneratedMetaDataObjects.obj
 0001:000078d0       ?createPxPhysics_Scenes@@YAPEAVPxScene@physx@@PEAVPxPhysics@2@AEBVPxSceneDesc@2@@Z 00000001800088d0 f   PxAutoGeneratedMetaDataObjects.obj
 0001:000078e0       ?getPxPhysics_Shapes@@YAIPEBVPxPhysics@physx@@PEAPEAVPxShape@2@I@Z 00000001800088e0 f   PxAutoGeneratedMetaDataObjects.obj
 0001:00007900       ?getNbPxPhysics_Shapes@@YAIPEBVPxPhysics@physx@@@Z 0000000180008900 f   PxAutoGeneratedMetaDataObjects.obj
 0001:00007910       ?getPxPhysics_Materials@@YAIPEBVPxPhysics@physx@@PEAPEAVPxMaterial@2@I@Z 0000000180008910 f   PxAutoGeneratedMetaDataObjects.obj
 0001:00007930       ?getNbPxPhysics_Materials@@YAIPEBVPxPhysics@physx@@@Z 0000000180008930 f   PxAutoGeneratedMetaDataObjects.obj
 0001:00007940       ?getPxMaterial_ReferenceCount@@YAIPEBVPxMaterial@physx@@@Z 0000000180008940 f   PxAutoGeneratedMetaDataObjects.obj
 0001:00007950       ?setPxMaterial_DynamicFriction@@YAXPEAVPxMaterial@physx@@M@Z 0000000180008950 f   PxAutoGeneratedMetaDataObjects.obj
 0001:00007960       ?getPxMaterial_DynamicFriction@@YAMPEBVPxMaterial@physx@@@Z 0000000180008960 f   PxAutoGeneratedMetaDataObjects.obj
 0001:00007970       ?setPxMaterial_StaticFriction@@YAXPEAVPxMaterial@physx@@M@Z 0000000180008970 f   PxAutoGeneratedMetaDataObjects.obj
 0001:00007980       ?getPxMaterial_StaticFriction@@YAMPEBVPxMaterial@physx@@@Z 0000000180008980 f   PxAutoGeneratedMetaDataObjects.obj
 0001:00007990       ?setPxMaterial_Restitution@@YAXPEAVPxMaterial@physx@@M@Z 0000000180008990 f   PxAutoGeneratedMetaDataObjects.obj
 0001:000079a0       ?getPxMaterial_Restitution@@YAMPEBVPxMaterial@physx@@@Z 00000001800089a0 f   PxAutoGeneratedMetaDataObjects.obj
 0001:000079b0       ?setPxMaterial_Flags@@YAXPEAVPxMaterial@physx@@V?$PxFlags@W4Enum@PxMaterialFlag@physx@@G@2@@Z 00000001800089b0 f   PxAutoGeneratedMetaDataObjects.obj
 0001:000079e0       ?getPxMaterial_Flags@@YA?AV?$PxFlags@W4Enum@PxMaterialFlag@physx@@G@physx@@PEBVPxMaterial@2@@Z 00000001800089e0 f   PxAutoGeneratedMetaDataObjects.obj
 0001:00007a10       ?setPxMaterial_FrictionCombineMode@@YAXPEAVPxMaterial@physx@@W4Enum@PxCombineMode@2@@Z 0000000180008a10 f   PxAutoGeneratedMetaDataObjects.obj
 0001:00007a20       ?getPxMaterial_FrictionCombineMode@@YA?AW4Enum@PxCombineMode@physx@@PEBVPxMaterial@3@@Z 0000000180008a20 f   PxAutoGeneratedMetaDataObjects.obj
 0001:00007a30       ?setPxMaterial_RestitutionCombineMode@@YAXPEAVPxMaterial@physx@@W4Enum@PxCombineMode@2@@Z 0000000180008a30 f   PxAutoGeneratedMetaDataObjects.obj
 0001:00007a40       ?getPxMaterial_RestitutionCombineMode@@YA?AW4Enum@PxCombineMode@physx@@PEBVPxMaterial@3@@Z 0000000180008a40 f   PxAutoGeneratedMetaDataObjects.obj
 0001:00007a50       ?getPxMaterial_ConcreteTypeName@@YAPEBDPEBVPxMaterial@physx@@@Z 0000000180008a50 f   PxAutoGeneratedMetaDataObjects.obj
 0001:00007a60       ?getPxActor_Scene@@YAPEAVPxScene@physx@@PEBVPxActor@2@@Z 0000000180008a60 f   PxAutoGeneratedMetaDataObjects.obj
 0001:00007a70       ?setPxActor_Name@@YAXPEAVPxActor@physx@@PEBD@Z 0000000180008a70 f   PxAutoGeneratedMetaDataObjects.obj
 0001:00007a80       ?getPxActor_Name@@YAPEBDPEBVPxActor@physx@@@Z 0000000180008a80 f   PxAutoGeneratedMetaDataObjects.obj
 0001:00007a90       ?setPxActor_ActorFlags@@YAXPEAVPxActor@physx@@V?$PxFlags@W4Enum@PxActorFlag@physx@@E@2@@Z 0000000180008a90 f   PxAutoGeneratedMetaDataObjects.obj
 0001:00007ac0       ?getPxActor_ActorFlags@@YA?AV?$PxFlags@W4Enum@PxActorFlag@physx@@E@physx@@PEBVPxActor@2@@Z 0000000180008ac0 f   PxAutoGeneratedMetaDataObjects.obj
 0001:00007af0       ?setPxActor_DominanceGroup@@YAXPEAVPxActor@physx@@E@Z 0000000180008af0 f   PxAutoGeneratedMetaDataObjects.obj
 0001:00007b00       ?getPxActor_DominanceGroup@@YAEPEBVPxActor@physx@@@Z 0000000180008b00 f   PxAutoGeneratedMetaDataObjects.obj
 0001:00007b10       ?setPxActor_OwnerClient@@YAXPEAVPxActor@physx@@E@Z 0000000180008b10 f   PxAutoGeneratedMetaDataObjects.obj
 0001:00007b20       ?getPxActor_OwnerClient@@YAEPEBVPxActor@physx@@@Z 0000000180008b20 f   PxAutoGeneratedMetaDataObjects.obj
 0001:00007b30       ?getPxActor_Aggregate@@YAPEAVPxAggregate@physx@@PEBVPxActor@2@@Z 0000000180008b30 f   PxAutoGeneratedMetaDataObjects.obj
 0001:00007b40       ?setPxRigidActor_GlobalPose@@YAXPEAVPxRigidActor@physx@@AEBVPxTransform@2@@Z 0000000180008b40 f   PxAutoGeneratedMetaDataObjects.obj
 0001:00007b60       ?getPxRigidActor_GlobalPose@@YA?AVPxTransform@physx@@PEBVPxRigidActor@2@@Z 0000000180008b60 f   PxAutoGeneratedMetaDataObjects.obj
 0001:00007b90       ?getPxRigidActor_Shapes@@YAIPEBVPxRigidActor@physx@@PEAPEAVPxShape@2@I@Z 0000000180008b90 f   PxAutoGeneratedMetaDataObjects.obj
 0001:00007bb0       ?getNbPxRigidActor_Shapes@@YAIPEBVPxRigidActor@physx@@@Z 0000000180008bb0 f   PxAutoGeneratedMetaDataObjects.obj
 0001:00007bc0       ?getPxRigidActor_Constraints@@YAIPEBVPxRigidActor@physx@@PEAPEAVPxConstraint@2@I@Z 0000000180008bc0 f   PxAutoGeneratedMetaDataObjects.obj
 0001:00007be0       ?getNbPxRigidActor_Constraints@@YAIPEBVPxRigidActor@physx@@@Z 0000000180008be0 f   PxAutoGeneratedMetaDataObjects.obj
 0001:00007bf0       ?setPxRigidBody_CMassLocalPose@@YAXPEAVPxRigidBody@physx@@AEBVPxTransform@2@@Z 0000000180008bf0 f   PxAutoGeneratedMetaDataObjects.obj
 0001:00007c00       ?getPxRigidBody_CMassLocalPose@@YA?AVPxTransform@physx@@PEBVPxRigidBody@2@@Z 0000000180008c00 f   PxAutoGeneratedMetaDataObjects.obj
 0001:00007c30       ?setPxRigidBody_Mass@@YAXPEAVPxRigidBody@physx@@M@Z 0000000180008c30 f   PxAutoGeneratedMetaDataObjects.obj
 0001:00007c40       ?getPxRigidBody_Mass@@YAMPEBVPxRigidBody@physx@@@Z 0000000180008c40 f   PxAutoGeneratedMetaDataObjects.obj
 0001:00007c50       ?getPxRigidBody_InvMass@@YAMPEBVPxRigidBody@physx@@@Z 0000000180008c50 f   PxAutoGeneratedMetaDataObjects.obj
 0001:00007c60       ?setPxRigidBody_MassSpaceInertiaTensor@@YAXPEAVPxRigidBody@physx@@AEBVPxVec3@2@@Z 0000000180008c60 f   PxAutoGeneratedMetaDataObjects.obj
 0001:00007c70       ?getPxRigidBody_MassSpaceInertiaTensor@@YA?AVPxVec3@physx@@PEBVPxRigidBody@2@@Z 0000000180008c70 f   PxAutoGeneratedMetaDataObjects.obj
 0001:00007ca0       ?getPxRigidBody_MassSpaceInvInertiaTensor@@YA?AVPxVec3@physx@@PEBVPxRigidBody@2@@Z 0000000180008ca0 f   PxAutoGeneratedMetaDataObjects.obj
 0001:00007cd0       ?setPxRigidBody_LinearDamping@@YAXPEAVPxRigidBody@physx@@M@Z 0000000180008cd0 f   PxAutoGeneratedMetaDataObjects.obj
 0001:00007ce0       ?getPxRigidBody_LinearDamping@@YAMPEBVPxRigidBody@physx@@@Z 0000000180008ce0 f   PxAutoGeneratedMetaDataObjects.obj
 0001:00007cf0       ?setPxRigidBody_AngularDamping@@YAXPEAVPxRigidBody@physx@@M@Z 0000000180008cf0 f   PxAutoGeneratedMetaDataObjects.obj
 0001:00007d00       ?getPxRigidBody_AngularDamping@@YAMPEBVPxRigidBody@physx@@@Z 0000000180008d00 f   PxAutoGeneratedMetaDataObjects.obj
 0001:00007d10       ?setPxRigidBody_LinearVelocity@@YAXPEAVPxRigidBody@physx@@AEBVPxVec3@2@@Z 0000000180008d10 f   PxAutoGeneratedMetaDataObjects.obj
 0001:00007d30       ?getPxRigidBody_LinearVelocity@@YA?AVPxVec3@physx@@PEBVPxRigidBody@2@@Z 0000000180008d30 f   PxAutoGeneratedMetaDataObjects.obj
 0001:00007d60       ?setPxRigidBody_AngularVelocity@@YAXPEAVPxRigidBody@physx@@AEBVPxVec3@2@@Z 0000000180008d60 f   PxAutoGeneratedMetaDataObjects.obj
 0001:00007d80       ?getPxRigidBody_AngularVelocity@@YA?AVPxVec3@physx@@PEBVPxRigidBody@2@@Z 0000000180008d80 f   PxAutoGeneratedMetaDataObjects.obj
 0001:00007db0       ?setPxRigidBody_MaxAngularVelocity@@YAXPEAVPxRigidBody@physx@@M@Z 0000000180008db0 f   PxAutoGeneratedMetaDataObjects.obj
 0001:00007dc0       ?getPxRigidBody_MaxAngularVelocity@@YAMPEBVPxRigidBody@physx@@@Z 0000000180008dc0 f   PxAutoGeneratedMetaDataObjects.obj
 0001:00007dd0       ?setPxRigidBody_MaxLinearVelocity@@YAXPEAVPxRigidBody@physx@@M@Z 0000000180008dd0 f   PxAutoGeneratedMetaDataObjects.obj
 0001:00007de0       ?getPxRigidBody_MaxLinearVelocity@@YAMPEBVPxRigidBody@physx@@@Z 0000000180008de0 f   PxAutoGeneratedMetaDataObjects.obj
 0001:00007df0       ?setPxRigidBody_RigidBodyFlags@@YAXPEAVPxRigidBody@physx@@V?$PxFlags@W4Enum@PxRigidBodyFlag@physx@@E@2@@Z 0000000180008df0 f   PxAutoGeneratedMetaDataObjects.obj
 0001:00007e20       ?getPxRigidBody_RigidBodyFlags@@YA?AV?$PxFlags@W4Enum@PxRigidBodyFlag@physx@@E@physx@@PEBVPxRigidBody@2@@Z 0000000180008e20 f   PxAutoGeneratedMetaDataObjects.obj
 0001:00007e50       ?setPxRigidBody_MinCCDAdvanceCoefficient@@YAXPEAVPxRigidBody@physx@@M@Z 0000000180008e50 f   PxAutoGeneratedMetaDataObjects.obj
 0001:00007e60       ?getPxRigidBody_MinCCDAdvanceCoefficient@@YAMPEBVPxRigidBody@physx@@@Z 0000000180008e60 f   PxAutoGeneratedMetaDataObjects.obj
 0001:00007e70       ?setPxRigidBody_MaxDepenetrationVelocity@@YAXPEAVPxRigidBody@physx@@M@Z 0000000180008e70 f   PxAutoGeneratedMetaDataObjects.obj
 0001:00007e80       ?getPxRigidBody_MaxDepenetrationVelocity@@YAMPEBVPxRigidBody@physx@@@Z 0000000180008e80 f   PxAutoGeneratedMetaDataObjects.obj
 0001:00007e90       ?setPxRigidBody_MaxContactImpulse@@YAXPEAVPxRigidBody@physx@@M@Z 0000000180008e90 f   PxAutoGeneratedMetaDataObjects.obj
 0001:00007ea0       ?getPxRigidBody_MaxContactImpulse@@YAMPEBVPxRigidBody@physx@@@Z 0000000180008ea0 f   PxAutoGeneratedMetaDataObjects.obj
 0001:00007eb0       ?getPxRigidDynamic_IsSleeping@@YA_NPEBVPxRigidDynamic@physx@@@Z 0000000180008eb0 f   PxAutoGeneratedMetaDataObjects.obj
 0001:00007ec0       ?setPxRigidDynamic_SleepThreshold@@YAXPEAVPxRigidDynamic@physx@@M@Z 0000000180008ec0 f   PxAutoGeneratedMetaDataObjects.obj
 0001:00007ed0       ?getPxRigidDynamic_SleepThreshold@@YAMPEBVPxRigidDynamic@physx@@@Z 0000000180008ed0 f   PxAutoGeneratedMetaDataObjects.obj
 0001:00007ee0       ?setPxRigidDynamic_StabilizationThreshold@@YAXPEAVPxRigidDynamic@physx@@M@Z 0000000180008ee0 f   PxAutoGeneratedMetaDataObjects.obj
 0001:00007ef0       ?getPxRigidDynamic_StabilizationThreshold@@YAMPEBVPxRigidDynamic@physx@@@Z 0000000180008ef0 f   PxAutoGeneratedMetaDataObjects.obj
 0001:00007f00       ?setPxRigidDynamic_RigidDynamicLockFlags@@YAXPEAVPxRigidDynamic@physx@@V?$PxFlags@W4Enum@PxRigidDynamicLockFlag@physx@@E@2@@Z 0000000180008f00 f   PxAutoGeneratedMetaDataObjects.obj
 0001:00007f30       ?getPxRigidDynamic_RigidDynamicLockFlags@@YA?AV?$PxFlags@W4Enum@PxRigidDynamicLockFlag@physx@@E@physx@@PEBVPxRigidDynamic@2@@Z 0000000180008f30 f   PxAutoGeneratedMetaDataObjects.obj
 0001:00007f60       ?setPxRigidDynamic_WakeCounter@@YAXPEAVPxRigidDynamic@physx@@M@Z 0000000180008f60 f   PxAutoGeneratedMetaDataObjects.obj
 0001:00007f70       ?getPxRigidDynamic_WakeCounter@@YAMPEBVPxRigidDynamic@physx@@@Z 0000000180008f70 f   PxAutoGeneratedMetaDataObjects.obj
 0001:00007f80       ?setPxRigidDynamic_SolverIterationCounts@@YAXPEAVPxRigidDynamic@physx@@II@Z 0000000180008f80 f   PxAutoGeneratedMetaDataObjects.obj
 0001:00007f90       ?getPxRigidDynamic_SolverIterationCounts@@YAXPEBVPxRigidDynamic@physx@@AEAI1@Z 0000000180008f90 f   PxAutoGeneratedMetaDataObjects.obj
 0001:00007fa0       ?setPxRigidDynamic_ContactReportThreshold@@YAXPEAVPxRigidDynamic@physx@@M@Z 0000000180008fa0 f   PxAutoGeneratedMetaDataObjects.obj
 0001:00007fb0       ?getPxRigidDynamic_ContactReportThreshold@@YAMPEBVPxRigidDynamic@physx@@@Z 0000000180008fb0 f   PxAutoGeneratedMetaDataObjects.obj
 0001:00007fc0       ?getPxRigidDynamic_ConcreteTypeName@@YAPEBDPEBVPxRigidDynamic@physx@@@Z 0000000180008fc0 f   PxAutoGeneratedMetaDataObjects.obj
 0001:00007fd0       ?getPxRigidStatic_ConcreteTypeName@@YAPEBDPEBVPxRigidStatic@physx@@@Z 0000000180008fd0 f   PxAutoGeneratedMetaDataObjects.obj
 0001:00007fe0       ?getPxArticulationLink_InboundJoint@@YAPEAVPxArticulationJointBase@physx@@PEBVPxArticulationLink@2@@Z 0000000180008fe0 f   PxAutoGeneratedMetaDataObjects.obj
 0001:00007ff0       ?getPxArticulationLink_InboundJointDof@@YAIPEBVPxArticulationLink@physx@@@Z 0000000180008ff0 f   PxAutoGeneratedMetaDataObjects.obj
 0001:00008000       ?getPxArticulationLink_LinkIndex@@YAIPEBVPxArticulationLink@physx@@@Z 0000000180009000 f   PxAutoGeneratedMetaDataObjects.obj
 0001:00008010       ?getPxArticulationLink_Children@@YAIPEBVPxArticulationLink@physx@@PEAPEAV12@I@Z 0000000180009010 f   PxAutoGeneratedMetaDataObjects.obj
 0001:00008030       ?getNbPxArticulationLink_Children@@YAIPEBVPxArticulationLink@physx@@@Z 0000000180009030 f   PxAutoGeneratedMetaDataObjects.obj
 0001:00008040       ?getPxArticulationLink_ConcreteTypeName@@YAPEBDPEBVPxArticulationLink@physx@@@Z 0000000180009040 f   PxAutoGeneratedMetaDataObjects.obj
 0001:00008050       ?setPxArticulationJointBase_ParentPose@@YAXPEAVPxArticulationJointBase@physx@@AEBVPxTransform@2@@Z 0000000180009050 f   PxAutoGeneratedMetaDataObjects.obj
 0001:00008060       ?getPxArticulationJointBase_ParentPose@@YA?AVPxTransform@physx@@PEBVPxArticulationJointBase@2@@Z 0000000180009060 f   PxAutoGeneratedMetaDataObjects.obj
 0001:00008090       ?setPxArticulationJointBase_ChildPose@@YAXPEAVPxArticulationJointBase@physx@@AEBVPxTransform@2@@Z 0000000180009090 f   PxAutoGeneratedMetaDataObjects.obj
 0001:000080a0       ?getPxArticulationJointBase_ChildPose@@YA?AVPxTransform@physx@@PEBVPxArticulationJointBase@2@@Z 00000001800090a0 f   PxAutoGeneratedMetaDataObjects.obj
 0001:000080d0       ?setPxArticulationJoint_TargetOrientation@@YAXPEAVPxArticulationJoint@physx@@AEBVPxQuat@2@@Z 00000001800090d0 f   PxAutoGeneratedMetaDataObjects.obj
 0001:000080e0       ?getPxArticulationJoint_TargetOrientation@@YA?AVPxQuat@physx@@PEBVPxArticulationJoint@2@@Z 00000001800090e0 f   PxAutoGeneratedMetaDataObjects.obj
 0001:00008110       ?setPxArticulationJoint_TargetVelocity@@YAXPEAVPxArticulationJoint@physx@@AEBVPxVec3@2@@Z 0000000180009110 f   PxAutoGeneratedMetaDataObjects.obj
 0001:00008120       ?getPxArticulationJoint_TargetVelocity@@YA?AVPxVec3@physx@@PEBVPxArticulationJoint@2@@Z 0000000180009120 f   PxAutoGeneratedMetaDataObjects.obj
 0001:00008150       ?setPxArticulationJoint_DriveType@@YAXPEAVPxArticulationJoint@physx@@W4Enum@PxArticulationJointDriveType@2@@Z 0000000180009150 f   PxAutoGeneratedMetaDataObjects.obj
 0001:00008160       ?getPxArticulationJoint_DriveType@@YA?AW4Enum@PxArticulationJointDriveType@physx@@PEBVPxArticulationJoint@3@@Z 0000000180009160 f   PxAutoGeneratedMetaDataObjects.obj
 0001:00008170       ?setPxArticulationJoint_Stiffness@@YAXPEAVPxArticulationJoint@physx@@M@Z 0000000180009170 f   PxAutoGeneratedMetaDataObjects.obj
 0001:00008180       ?getPxArticulationJoint_Stiffness@@YAMPEBVPxArticulationJoint@physx@@@Z 0000000180009180 f   PxAutoGeneratedMetaDataObjects.obj
 0001:00008190       ?setPxArticulationJoint_Damping@@YAXPEAVPxArticulationJoint@physx@@M@Z 0000000180009190 f   PxAutoGeneratedMetaDataObjects.obj
 0001:000081a0       ?getPxArticulationJoint_Damping@@YAMPEBVPxArticulationJoint@physx@@@Z 00000001800091a0 f   PxAutoGeneratedMetaDataObjects.obj
 0001:000081b0       ?setPxArticulationJoint_InternalCompliance@@YAXPEAVPxArticulationJoint@physx@@M@Z 00000001800091b0 f   PxAutoGeneratedMetaDataObjects.obj
 0001:000081c0       ?getPxArticulationJoint_InternalCompliance@@YAMPEBVPxArticulationJoint@physx@@@Z 00000001800091c0 f   PxAutoGeneratedMetaDataObjects.obj
 0001:000081d0       ?setPxArticulationJoint_ExternalCompliance@@YAXPEAVPxArticulationJoint@physx@@M@Z 00000001800091d0 f   PxAutoGeneratedMetaDataObjects.obj
 0001:000081e0       ?getPxArticulationJoint_ExternalCompliance@@YAMPEBVPxArticulationJoint@physx@@@Z 00000001800091e0 f   PxAutoGeneratedMetaDataObjects.obj
 0001:000081f0       ?setPxArticulationJoint_SwingLimit@@YAXPEAVPxArticulationJoint@physx@@MM@Z 00000001800091f0 f   PxAutoGeneratedMetaDataObjects.obj
 0001:00008200       ?getPxArticulationJoint_SwingLimit@@YAXPEBVPxArticulationJoint@physx@@AEAM1@Z 0000000180009200 f   PxAutoGeneratedMetaDataObjects.obj
 0001:00008210       ?setPxArticulationJoint_TangentialStiffness@@YAXPEAVPxArticulationJoint@physx@@M@Z 0000000180009210 f   PxAutoGeneratedMetaDataObjects.obj
 0001:00008220       ?getPxArticulationJoint_TangentialStiffness@@YAMPEBVPxArticulationJoint@physx@@@Z 0000000180009220 f   PxAutoGeneratedMetaDataObjects.obj
 0001:00008230       ?setPxArticulationJoint_TangentialDamping@@YAXPEAVPxArticulationJoint@physx@@M@Z 0000000180009230 f   PxAutoGeneratedMetaDataObjects.obj
 0001:00008240       ?getPxArticulationJoint_TangentialDamping@@YAMPEBVPxArticulationJoint@physx@@@Z 0000000180009240 f   PxAutoGeneratedMetaDataObjects.obj
 0001:00008250       ?setPxArticulationJoint_SwingLimitContactDistance@@YAXPEAVPxArticulationJoint@physx@@M@Z 0000000180009250 f   PxAutoGeneratedMetaDataObjects.obj
 0001:00008260       ?getPxArticulationJoint_SwingLimitContactDistance@@YAMPEBVPxArticulationJoint@physx@@@Z 0000000180009260 f   PxAutoGeneratedMetaDataObjects.obj
 0001:00008270       ?setPxArticulationJoint_SwingLimitEnabled@@YAXPEAVPxArticulationJoint@physx@@_N@Z 0000000180009270 f   PxAutoGeneratedMetaDataObjects.obj
 0001:00008280       ?getPxArticulationJoint_SwingLimitEnabled@@YA_NPEBVPxArticulationJoint@physx@@@Z 0000000180009280 f   PxAutoGeneratedMetaDataObjects.obj
 0001:00008290       ?setPxArticulationJoint_TwistLimit@@YAXPEAVPxArticulationJoint@physx@@MM@Z 0000000180009290 f   PxAutoGeneratedMetaDataObjects.obj
 0001:000082a0       ?getPxArticulationJoint_TwistLimit@@YAXPEBVPxArticulationJoint@physx@@AEAM1@Z 00000001800092a0 f   PxAutoGeneratedMetaDataObjects.obj
 0001:000082b0       ?setPxArticulationJoint_TwistLimitEnabled@@YAXPEAVPxArticulationJoint@physx@@_N@Z 00000001800092b0 f   PxAutoGeneratedMetaDataObjects.obj
 0001:000082c0       ?getPxArticulationJoint_TwistLimitEnabled@@YA_NPEBVPxArticulationJoint@physx@@@Z 00000001800092c0 f   PxAutoGeneratedMetaDataObjects.obj
 0001:000082d0       ?setPxArticulationJoint_TwistLimitContactDistance@@YAXPEAVPxArticulationJoint@physx@@M@Z 00000001800092d0 f   PxAutoGeneratedMetaDataObjects.obj
 0001:000082e0       ?getPxArticulationJoint_TwistLimitContactDistance@@YAMPEBVPxArticulationJoint@physx@@@Z 00000001800092e0 f   PxAutoGeneratedMetaDataObjects.obj
 0001:000082f0       ?getPxArticulationJoint_ConcreteTypeName@@YAPEBDPEBVPxArticulationJoint@physx@@@Z 00000001800092f0 f   PxAutoGeneratedMetaDataObjects.obj
 0001:00008300       ?setPxArticulationJointReducedCoordinate_JointType@@YAXPEAVPxArticulationJointReducedCoordinate@physx@@W4Enum@PxArticulationJointType@2@@Z 0000000180009300 f   PxAutoGeneratedMetaDataObjects.obj
 0001:00008310       ?getPxArticulationJointReducedCoordinate_JointType@@YA?AW4Enum@PxArticulationJointType@physx@@PEBVPxArticulationJointReducedCoordinate@3@@Z 0000000180009310 f   PxAutoGeneratedMetaDataObjects.obj
 0001:00008320       ?setPxArticulationJointReducedCoordinate_Motion@@YAXPEAVPxArticulationJointReducedCoordinate@physx@@W4Enum@PxArticulationAxis@2@W43PxArticulationMotion@2@@Z 0000000180009320 f   PxAutoGeneratedMetaDataObjects.obj
 0001:00008330       ?getPxArticulationJointReducedCoordinate_Motion@@YA?AW4Enum@PxArticulationMotion@physx@@PEBVPxArticulationJointReducedCoordinate@3@W41PxArticulationAxis@3@@Z 0000000180009330 f   PxAutoGeneratedMetaDataObjects.obj
 0001:00008340       ?setPxArticulationJointReducedCoordinate_FrictionCoefficient@@YAXPEAVPxArticulationJointReducedCoordinate@physx@@M@Z 0000000180009340 f   PxAutoGeneratedMetaDataObjects.obj
 0001:00008350       ?getPxArticulationJointReducedCoordinate_FrictionCoefficient@@YAMPEBVPxArticulationJointReducedCoordinate@physx@@@Z 0000000180009350 f   PxAutoGeneratedMetaDataObjects.obj
 0001:00008360       ?getPxArticulationJointReducedCoordinate_ConcreteTypeName@@YAPEBDPEBVPxArticulationJointReducedCoordinate@physx@@@Z 0000000180009360 f   PxAutoGeneratedMetaDataObjects.obj
 0001:00008370       ?setPxArticulationJointReducedCoordinate_MaxJointVelocity@@YAXPEAVPxArticulationJointReducedCoordinate@physx@@M@Z 0000000180009370 f   PxAutoGeneratedMetaDataObjects.obj
 0001:00008380       ?getPxArticulationJointReducedCoordinate_MaxJointVelocity@@YAMPEBVPxArticulationJointReducedCoordinate@physx@@@Z 0000000180009380 f   PxAutoGeneratedMetaDataObjects.obj
 0001:00008390       ?getPxArticulationBase_Scene@@YAPEAVPxScene@physx@@PEBVPxArticulationBase@2@@Z 0000000180009390 f   PxAutoGeneratedMetaDataObjects.obj
 0001:000083a0       ?setPxArticulationBase_SolverIterationCounts@@YAXPEAVPxArticulationBase@physx@@II@Z 00000001800093a0 f   PxAutoGeneratedMetaDataObjects.obj
 0001:000083b0       ?getPxArticulationBase_SolverIterationCounts@@YAXPEBVPxArticulationBase@physx@@AEAI1@Z 00000001800093b0 f   PxAutoGeneratedMetaDataObjects.obj
 0001:000083c0       ?getPxArticulationBase_IsSleeping@@YA_NPEBVPxArticulationBase@physx@@@Z 00000001800093c0 f   PxAutoGeneratedMetaDataObjects.obj
 0001:000083d0       ?setPxArticulationBase_SleepThreshold@@YAXPEAVPxArticulationBase@physx@@M@Z 00000001800093d0 f   PxAutoGeneratedMetaDataObjects.obj
 0001:000083e0       ?getPxArticulationBase_SleepThreshold@@YAMPEBVPxArticulationBase@physx@@@Z 00000001800093e0 f   PxAutoGeneratedMetaDataObjects.obj
 0001:000083f0       ?setPxArticulationBase_StabilizationThreshold@@YAXPEAVPxArticulationBase@physx@@M@Z 00000001800093f0 f   PxAutoGeneratedMetaDataObjects.obj
 0001:00008400       ?getPxArticulationBase_StabilizationThreshold@@YAMPEBVPxArticulationBase@physx@@@Z 0000000180009400 f   PxAutoGeneratedMetaDataObjects.obj
 0001:00008410       ?setPxArticulationBase_WakeCounter@@YAXPEAVPxArticulationBase@physx@@M@Z 0000000180009410 f   PxAutoGeneratedMetaDataObjects.obj
 0001:00008420       ?getPxArticulationBase_WakeCounter@@YAMPEBVPxArticulationBase@physx@@@Z 0000000180009420 f   PxAutoGeneratedMetaDataObjects.obj
 0001:00008430       ?getPxArticulationBase_Links@@YAIPEBVPxArticulationBase@physx@@PEAPEAVPxArticulationLink@2@I@Z 0000000180009430 f   PxAutoGeneratedMetaDataObjects.obj
 0001:00008450       ?getNbPxArticulationBase_Links@@YAIPEBVPxArticulationBase@physx@@@Z 0000000180009450 f   PxAutoGeneratedMetaDataObjects.obj
 0001:00008460       ?setPxArticulationBase_Name@@YAXPEAVPxArticulationBase@physx@@PEBD@Z 0000000180009460 f   PxAutoGeneratedMetaDataObjects.obj
 0001:00008470       ?getPxArticulationBase_Name@@YAPEBDPEBVPxArticulationBase@physx@@@Z 0000000180009470 f   PxAutoGeneratedMetaDataObjects.obj
 0001:00008480       ?getPxArticulationBase_Aggregate@@YAPEAVPxAggregate@physx@@PEBVPxArticulationBase@2@@Z 0000000180009480 f   PxAutoGeneratedMetaDataObjects.obj
 0001:00008490       ?setPxArticulation_MaxProjectionIterations@@YAXPEAVPxArticulation@physx@@I@Z 0000000180009490 f   PxAutoGeneratedMetaDataObjects.obj
 0001:000084a0       ?getPxArticulation_MaxProjectionIterations@@YAIPEBVPxArticulation@physx@@@Z 00000001800094a0 f   PxAutoGeneratedMetaDataObjects.obj
 0001:000084b0       ?setPxArticulation_SeparationTolerance@@YAXPEAVPxArticulation@physx@@M@Z 00000001800094b0 f   PxAutoGeneratedMetaDataObjects.obj
 0001:000084c0       ?getPxArticulation_SeparationTolerance@@YAMPEBVPxArticulation@physx@@@Z 00000001800094c0 f   PxAutoGeneratedMetaDataObjects.obj
 0001:000084d0       ?setPxArticulation_InternalDriveIterations@@YAXPEAVPxArticulation@physx@@I@Z 00000001800094d0 f   PxAutoGeneratedMetaDataObjects.obj
 0001:000084e0       ?getPxArticulation_InternalDriveIterations@@YAIPEBVPxArticulation@physx@@@Z 00000001800094e0 f   PxAutoGeneratedMetaDataObjects.obj
 0001:000084f0       ?setPxArticulation_ExternalDriveIterations@@YAXPEAVPxArticulation@physx@@I@Z 00000001800094f0 f   PxAutoGeneratedMetaDataObjects.obj
 0001:00008500       ?getPxArticulation_ExternalDriveIterations@@YAIPEBVPxArticulation@physx@@@Z 0000000180009500 f   PxAutoGeneratedMetaDataObjects.obj
 0001:00008510       ?setPxArticulationReducedCoordinate_ArticulationFlags@@YAXPEAVPxArticulationReducedCoordinate@physx@@V?$PxFlags@W4Enum@PxArticulationFlag@physx@@E@2@@Z 0000000180009510 f   PxAutoGeneratedMetaDataObjects.obj
 0001:00008540       ?getPxArticulationReducedCoordinate_ArticulationFlags@@YA?AV?$PxFlags@W4Enum@PxArticulationFlag@physx@@E@physx@@PEBVPxArticulationReducedCoordinate@2@@Z 0000000180009540 f   PxAutoGeneratedMetaDataObjects.obj
 0001:00008570       ?getPxArticulationReducedCoordinate_Dofs@@YAIPEBVPxArticulationReducedCoordinate@physx@@@Z 0000000180009570 f   PxAutoGeneratedMetaDataObjects.obj
 0001:00008580       ?getPxArticulationReducedCoordinate_CacheDataSize@@YAIPEBVPxArticulationReducedCoordinate@physx@@@Z 0000000180009580 f   PxAutoGeneratedMetaDataObjects.obj
 0001:00008590       ?getPxArticulationReducedCoordinate_CoefficientMatrixSize@@YAIPEBVPxArticulationReducedCoordinate@physx@@@Z 0000000180009590 f   PxAutoGeneratedMetaDataObjects.obj
 0001:000085a0       ?getPxAggregate_MaxNbActors@@YAIPEBVPxAggregate@physx@@@Z 00000001800095a0 f   PxAutoGeneratedMetaDataObjects.obj
 0001:000085b0       ?getPxAggregate_Actors@@YAIPEBVPxAggregate@physx@@PEAPEAVPxActor@2@I@Z 00000001800095b0 f   PxAutoGeneratedMetaDataObjects.obj
 0001:000085c0       ?getNbPxAggregate_Actors@@YAIPEBVPxAggregate@physx@@@Z 00000001800095c0 f   PxAutoGeneratedMetaDataObjects.obj
 0001:000085d0       ?getPxAggregate_SelfCollision@@YA_NPEBVPxAggregate@physx@@@Z 00000001800095d0 f   PxAutoGeneratedMetaDataObjects.obj
 0001:000085e0       ?getPxAggregate_ConcreteTypeName@@YAPEBDPEBVPxAggregate@physx@@@Z 00000001800095e0 f   PxAutoGeneratedMetaDataObjects.obj
 0001:000085f0       ?getPxConstraint_Scene@@YAPEAVPxScene@physx@@PEBVPxConstraint@2@@Z 00000001800095f0 f   PxAutoGeneratedMetaDataObjects.obj
 0001:00008600       ?setPxConstraint_Actors@@YAXPEAVPxConstraint@physx@@PEAVPxRigidActor@2@1@Z 0000000180009600 f   PxAutoGeneratedMetaDataObjects.obj
 0001:00008610       ?getPxConstraint_Actors@@YAXPEBVPxConstraint@physx@@AEAPEAVPxRigidActor@2@1@Z 0000000180009610 f   PxAutoGeneratedMetaDataObjects.obj
 0001:00008620       ?setPxConstraint_Flags@@YAXPEAVPxConstraint@physx@@V?$PxFlags@W4Enum@PxConstraintFlag@physx@@G@2@@Z 0000000180009620 f   PxAutoGeneratedMetaDataObjects.obj
 0001:00008650       ?getPxConstraint_Flags@@YA?AV?$PxFlags@W4Enum@PxConstraintFlag@physx@@G@physx@@PEBVPxConstraint@2@@Z 0000000180009650 f   PxAutoGeneratedMetaDataObjects.obj
 0001:00008680       ?getPxConstraint_IsValid@@YA_NPEBVPxConstraint@physx@@@Z 0000000180009680 f   PxAutoGeneratedMetaDataObjects.obj
 0001:00008690       ?setPxConstraint_BreakForce@@YAXPEAVPxConstraint@physx@@MM@Z 0000000180009690 f   PxAutoGeneratedMetaDataObjects.obj
 0001:000086a0       ?getPxConstraint_BreakForce@@YAXPEBVPxConstraint@physx@@AEAM1@Z 00000001800096a0 f   PxAutoGeneratedMetaDataObjects.obj
 0001:000086b0       ?setPxConstraint_MinResponseThreshold@@YAXPEAVPxConstraint@physx@@M@Z 00000001800096b0 f   PxAutoGeneratedMetaDataObjects.obj
 0001:000086c0       ?getPxConstraint_MinResponseThreshold@@YAMPEBVPxConstraint@physx@@@Z 00000001800096c0 f   PxAutoGeneratedMetaDataObjects.obj
 0001:000086d0       ?getPxConstraint_ConcreteTypeName@@YAPEBDPEBVPxConstraint@physx@@@Z 00000001800096d0 f   PxAutoGeneratedMetaDataObjects.obj
 0001:000086e0       ?getPxShape_ReferenceCount@@YAIPEBVPxShape@physx@@@Z 00000001800096e0 f   PxAutoGeneratedMetaDataObjects.obj
 0001:000086f0       ?getPxShape_GeometryType@@YA?AW4Enum@PxGeometryType@physx@@PEBVPxShape@3@@Z 00000001800096f0 f   PxAutoGeneratedMetaDataObjects.obj
 0001:00008700       ?setPxShape_Geometry@@YAXPEAVPxShape@physx@@AEBVPxGeometry@2@@Z 0000000180009700 f   PxAutoGeneratedMetaDataObjects.obj
 0001:00008710       ?getPxShape_Geometry@@YA?AVPxGeometryHolder@physx@@PEBVPxShape@2@@Z 0000000180009710 f   PxAutoGeneratedMetaDataObjects.obj
 0001:00008740       ?setPxShape_LocalPose@@YAXPEAVPxShape@physx@@AEBVPxTransform@2@@Z 0000000180009740 f   PxAutoGeneratedMetaDataObjects.obj
 0001:00008750       ?getPxShape_LocalPose@@YA?AVPxTransform@physx@@PEBVPxShape@2@@Z 0000000180009750 f   PxAutoGeneratedMetaDataObjects.obj
 0001:00008780       ?setPxShape_SimulationFilterData@@YAXPEAVPxShape@physx@@AEBUPxFilterData@2@@Z 0000000180009780 f   PxAutoGeneratedMetaDataObjects.obj
 0001:00008790       ?getPxShape_SimulationFilterData@@YA?AUPxFilterData@physx@@PEBVPxShape@2@@Z 0000000180009790 f   PxAutoGeneratedMetaDataObjects.obj
 0001:000087c0       ?setPxShape_QueryFilterData@@YAXPEAVPxShape@physx@@AEBUPxFilterData@2@@Z 00000001800097c0 f   PxAutoGeneratedMetaDataObjects.obj
 0001:000087d0       ?getPxShape_QueryFilterData@@YA?AUPxFilterData@physx@@PEBVPxShape@2@@Z 00000001800097d0 f   PxAutoGeneratedMetaDataObjects.obj
 0001:00008800       ?getPxShape_Materials@@YAIPEBVPxShape@physx@@PEAPEAVPxMaterial@2@I@Z 0000000180009800 f   PxAutoGeneratedMetaDataObjects.obj
 0001:00008820       ?getNbPxShape_Materials@@YAIPEBVPxShape@physx@@@Z 0000000180009820 f   PxAutoGeneratedMetaDataObjects.obj
 0001:00008840       ?setPxShape_ContactOffset@@YAXPEAVPxShape@physx@@M@Z 0000000180009840 f   PxAutoGeneratedMetaDataObjects.obj
 0001:00008850       ?getPxShape_ContactOffset@@YAMPEBVPxShape@physx@@@Z 0000000180009850 f   PxAutoGeneratedMetaDataObjects.obj
 0001:00008860       ?setPxShape_RestOffset@@YAXPEAVPxShape@physx@@M@Z 0000000180009860 f   PxAutoGeneratedMetaDataObjects.obj
 0001:00008870       ?getPxShape_RestOffset@@YAMPEBVPxShape@physx@@@Z 0000000180009870 f   PxAutoGeneratedMetaDataObjects.obj
 0001:00008880       ?setPxShape_TorsionalPatchRadius@@YAXPEAVPxShape@physx@@M@Z 0000000180009880 f   PxAutoGeneratedMetaDataObjects.obj
 0001:00008890       ?getPxShape_TorsionalPatchRadius@@YAMPEBVPxShape@physx@@@Z 0000000180009890 f   PxAutoGeneratedMetaDataObjects.obj
 0001:000088a0       ?setPxShape_MinTorsionalPatchRadius@@YAXPEAVPxShape@physx@@M@Z 00000001800098a0 f   PxAutoGeneratedMetaDataObjects.obj
 0001:000088b0       ?getPxShape_MinTorsionalPatchRadius@@YAMPEBVPxShape@physx@@@Z 00000001800098b0 f   PxAutoGeneratedMetaDataObjects.obj
 0001:000088c0       ?setPxShape_Flags@@YAXPEAVPxShape@physx@@V?$PxFlags@W4Enum@PxShapeFlag@physx@@E@2@@Z 00000001800098c0 f   PxAutoGeneratedMetaDataObjects.obj
 0001:000088f0       ?getPxShape_Flags@@YA?AV?$PxFlags@W4Enum@PxShapeFlag@physx@@E@physx@@PEBVPxShape@2@@Z 00000001800098f0 f   PxAutoGeneratedMetaDataObjects.obj
 0001:00008920       ?getPxShape_IsExclusive@@YA_NPEBVPxShape@physx@@@Z 0000000180009920 f   PxAutoGeneratedMetaDataObjects.obj
 0001:00008930       ?setPxShape_Name@@YAXPEAVPxShape@physx@@PEBD@Z 0000000180009930 f   PxAutoGeneratedMetaDataObjects.obj
 0001:00008940       ?getPxShape_Name@@YAPEBDPEBVPxShape@physx@@@Z 0000000180009940 f   PxAutoGeneratedMetaDataObjects.obj
 0001:00008950       ?getPxShape_ConcreteTypeName@@YAPEBDPEBVPxShape@physx@@@Z 0000000180009950 f   PxAutoGeneratedMetaDataObjects.obj
 0001:00008960       ?getPxPruningStructure_RigidActors@@YAIPEBVPxPruningStructure@physx@@PEAPEAVPxRigidActor@2@I@Z 0000000180009960 f   PxAutoGeneratedMetaDataObjects.obj
 0001:00008970       ?getNbPxPruningStructure_RigidActors@@YAIPEBVPxPruningStructure@physx@@@Z 0000000180009970 f   PxAutoGeneratedMetaDataObjects.obj
 0001:00008980       ?getPxPruningStructure_ConcreteTypeName@@YAPEBDPEBVPxPruningStructure@physx@@@Z 0000000180009980 f   PxAutoGeneratedMetaDataObjects.obj
 0001:00008990       ?getPxTolerancesScale_IsValid@@YA_NPEBVPxTolerancesScale@physx@@@Z 0000000180009990 f   PxAutoGeneratedMetaDataObjects.obj
 0001:000089a0       ?getPxScene_Flags@@YA?AV?$PxFlags@W4Enum@PxSceneFlag@physx@@I@physx@@PEBVPxScene@2@@Z 00000001800099a0 f   PxAutoGeneratedMetaDataObjects.obj
 0001:000089d0       ?setPxScene_Limits@@YAXPEAVPxScene@physx@@AEBVPxSceneLimits@2@@Z 00000001800099d0 f   PxAutoGeneratedMetaDataObjects.obj
 0001:000089e0       ?getPxScene_Limits@@YA?AVPxSceneLimits@physx@@PEBVPxScene@2@@Z 00000001800099e0 f   PxAutoGeneratedMetaDataObjects.obj
 0001:00008a10       ?getPxScene_Timestamp@@YAIPEBVPxScene@physx@@@Z 0000000180009a10 f   PxAutoGeneratedMetaDataObjects.obj
 0001:00008a20       ?getPxScene_Actors@@YAIPEBVPxScene@physx@@V?$PxFlags@W4Enum@PxActorTypeFlag@physx@@G@2@PEAPEAVPxActor@2@I@Z 0000000180009a20 f   PxAutoGeneratedMetaDataObjects.obj
 0001:00008a50       ?getNbPxScene_Actors@@YAIPEBVPxScene@physx@@V?$PxFlags@W4Enum@PxActorTypeFlag@physx@@G@2@@Z 0000000180009a50 f   PxAutoGeneratedMetaDataObjects.obj
 0001:00008a80       ?getPxScene_Articulations@@YAIPEBVPxScene@physx@@PEAPEAVPxArticulationBase@2@I@Z 0000000180009a80 f   PxAutoGeneratedMetaDataObjects.obj
 0001:00008aa0       ?getNbPxScene_Articulations@@YAIPEBVPxScene@physx@@@Z 0000000180009aa0 f   PxAutoGeneratedMetaDataObjects.obj
 0001:00008ab0       ?getPxScene_Constraints@@YAIPEBVPxScene@physx@@PEAPEAVPxConstraint@2@I@Z 0000000180009ab0 f   PxAutoGeneratedMetaDataObjects.obj
 0001:00008ad0       ?getNbPxScene_Constraints@@YAIPEBVPxScene@physx@@@Z 0000000180009ad0 f   PxAutoGeneratedMetaDataObjects.obj
 0001:00008ae0       ?getPxScene_Aggregates@@YAIPEBVPxScene@physx@@PEAPEAVPxAggregate@2@I@Z 0000000180009ae0 f   PxAutoGeneratedMetaDataObjects.obj
 0001:00008b00       ?getNbPxScene_Aggregates@@YAIPEBVPxScene@physx@@@Z 0000000180009b00 f   PxAutoGeneratedMetaDataObjects.obj
 0001:00008b10       ?getPxScene_CpuDispatcher@@YAPEAVPxCpuDispatcher@physx@@PEBVPxScene@2@@Z 0000000180009b10 f   PxAutoGeneratedMetaDataObjects.obj
 0001:00008b20       ?getPxScene_CudaContextManager@@YAPEAVPxCudaContextManager@physx@@PEBVPxScene@2@@Z 0000000180009b20 f   PxAutoGeneratedMetaDataObjects.obj
 0001:00008b30       ?setPxScene_SimulationEventCallback@@YAXPEAVPxScene@physx@@PEAVPxSimulationEventCallback@2@@Z 0000000180009b30 f   PxAutoGeneratedMetaDataObjects.obj
 0001:00008b40       ?getPxScene_SimulationEventCallback@@YAPEAVPxSimulationEventCallback@physx@@PEBVPxScene@2@@Z 0000000180009b40 f   PxAutoGeneratedMetaDataObjects.obj
 0001:00008b50       ?setPxScene_ContactModifyCallback@@YAXPEAVPxScene@physx@@PEAVPxContactModifyCallback@2@@Z 0000000180009b50 f   PxAutoGeneratedMetaDataObjects.obj
 0001:00008b60       ?getPxScene_ContactModifyCallback@@YAPEAVPxContactModifyCallback@physx@@PEBVPxScene@2@@Z 0000000180009b60 f   PxAutoGeneratedMetaDataObjects.obj
 0001:00008b70       ?setPxScene_CCDContactModifyCallback@@YAXPEAVPxScene@physx@@PEAVPxCCDContactModifyCallback@2@@Z 0000000180009b70 f   PxAutoGeneratedMetaDataObjects.obj
 0001:00008b80       ?getPxScene_CCDContactModifyCallback@@YAPEAVPxCCDContactModifyCallback@physx@@PEBVPxScene@2@@Z 0000000180009b80 f   PxAutoGeneratedMetaDataObjects.obj
 0001:00008b90       ?setPxScene_BroadPhaseCallback@@YAXPEAVPxScene@physx@@PEAVPxBroadPhaseCallback@2@@Z 0000000180009b90 f   PxAutoGeneratedMetaDataObjects.obj
 0001:00008ba0       ?getPxScene_BroadPhaseCallback@@YAPEAVPxBroadPhaseCallback@physx@@PEBVPxScene@2@@Z 0000000180009ba0 f   PxAutoGeneratedMetaDataObjects.obj
 0001:00008bb0       ?getPxScene_FilterShaderDataSize@@YAIPEBVPxScene@physx@@@Z 0000000180009bb0 f   PxAutoGeneratedMetaDataObjects.obj
 0001:00008bc0       ?getPxScene_FilterShader@@YAP6A?AV?$PxFlags@W4Enum@PxFilterFlag@physx@@G@physx@@IUPxFilterData@2@I0AEAV?$PxFlags@W4Enum@PxPairFlag@physx@@G@2@PEBXI@ZPEBVPxScene@2@@Z 0000000180009bc0 f   PxAutoGeneratedMetaDataObjects.obj
 0001:00008bd0       ?getPxScene_FilterCallback@@YAPEAVPxSimulationFilterCallback@physx@@PEBVPxScene@2@@Z 0000000180009bd0 f   PxAutoGeneratedMetaDataObjects.obj
 0001:00008be0       ?getPxScene_KinematicKinematicFilteringMode@@YA?AW4Enum@PxPairFilteringMode@physx@@PEBVPxScene@3@@Z 0000000180009be0 f   PxAutoGeneratedMetaDataObjects.obj
 0001:00008bf0       ?getPxScene_StaticKinematicFilteringMode@@YA?AW4Enum@PxPairFilteringMode@physx@@PEBVPxScene@3@@Z 0000000180009bf0 f   PxAutoGeneratedMetaDataObjects.obj
 0001:00008c00       ?setPxScene_Gravity@@YAXPEAVPxScene@physx@@AEBVPxVec3@2@@Z 0000000180009c00 f   PxAutoGeneratedMetaDataObjects.obj
 0001:00008c10       ?getPxScene_Gravity@@YA?AVPxVec3@physx@@PEBVPxScene@2@@Z 0000000180009c10 f   PxAutoGeneratedMetaDataObjects.obj
 0001:00008c40       ?setPxScene_BounceThresholdVelocity@@YAXPEAVPxScene@physx@@M@Z 0000000180009c40 f   PxAutoGeneratedMetaDataObjects.obj
 0001:00008c50       ?getPxScene_BounceThresholdVelocity@@YAMPEBVPxScene@physx@@@Z 0000000180009c50 f   PxAutoGeneratedMetaDataObjects.obj
 0001:00008c60       ?setPxScene_CCDMaxPasses@@YAXPEAVPxScene@physx@@I@Z 0000000180009c60 f   PxAutoGeneratedMetaDataObjects.obj
 0001:00008c70       ?getPxScene_CCDMaxPasses@@YAIPEBVPxScene@physx@@@Z 0000000180009c70 f   PxAutoGeneratedMetaDataObjects.obj
 0001:00008c80       ?getPxScene_FrictionOffsetThreshold@@YAMPEBVPxScene@physx@@@Z 0000000180009c80 f   PxAutoGeneratedMetaDataObjects.obj
 0001:00008c90       ?setPxScene_FrictionType@@YAXPEAVPxScene@physx@@W4Enum@PxFrictionType@2@@Z 0000000180009c90 f   PxAutoGeneratedMetaDataObjects.obj
 0001:00008ca0       ?getPxScene_FrictionType@@YA?AW4Enum@PxFrictionType@physx@@PEBVPxScene@3@@Z 0000000180009ca0 f   PxAutoGeneratedMetaDataObjects.obj
 0001:00008cb0       ?setPxScene_VisualizationCullingBox@@YAXPEAVPxScene@physx@@AEBVPxBounds3@2@@Z 0000000180009cb0 f   PxAutoGeneratedMetaDataObjects.obj
 0001:00008cc0       ?getPxScene_VisualizationCullingBox@@YA?AVPxBounds3@physx@@PEBVPxScene@2@@Z 0000000180009cc0 f   PxAutoGeneratedMetaDataObjects.obj
 0001:00008cf0       ?getPxScene_StaticStructure@@YA?AW4Enum@PxPruningStructureType@physx@@PEBVPxScene@3@@Z 0000000180009cf0 f   PxAutoGeneratedMetaDataObjects.obj
 0001:00008d00       ?getPxScene_DynamicStructure@@YA?AW4Enum@PxPruningStructureType@physx@@PEBVPxScene@3@@Z 0000000180009d00 f   PxAutoGeneratedMetaDataObjects.obj
 0001:00008d10       ?setPxScene_DynamicTreeRebuildRateHint@@YAXPEAVPxScene@physx@@I@Z 0000000180009d10 f   PxAutoGeneratedMetaDataObjects.obj
 0001:00008d20       ?getPxScene_DynamicTreeRebuildRateHint@@YAIPEBVPxScene@physx@@@Z 0000000180009d20 f   PxAutoGeneratedMetaDataObjects.obj
 0001:00008d30       ?setPxScene_SceneQueryUpdateMode@@YAXPEAVPxScene@physx@@W4Enum@PxSceneQueryUpdateMode@2@@Z 0000000180009d30 f   PxAutoGeneratedMetaDataObjects.obj
 0001:00008d40       ?getPxScene_SceneQueryUpdateMode@@YA?AW4Enum@PxSceneQueryUpdateMode@physx@@PEBVPxScene@3@@Z 0000000180009d40 f   PxAutoGeneratedMetaDataObjects.obj
 0001:00008d50       ?getPxScene_SceneQueryStaticTimestamp@@YAIPEBVPxScene@physx@@@Z 0000000180009d50 f   PxAutoGeneratedMetaDataObjects.obj
 0001:00008d60       ?getPxScene_BroadPhaseType@@YA?AW4Enum@PxBroadPhaseType@physx@@PEBVPxScene@3@@Z 0000000180009d60 f   PxAutoGeneratedMetaDataObjects.obj
 0001:00008d70       ?getPxScene_BroadPhaseRegions@@YAIPEBVPxScene@physx@@PEAUPxBroadPhaseRegionInfo@2@I@Z 0000000180009d70 f   PxAutoGeneratedMetaDataObjects.obj
 0001:00008d90       ?getNbPxScene_BroadPhaseRegions@@YAIPEBVPxScene@physx@@@Z 0000000180009d90 f   PxAutoGeneratedMetaDataObjects.obj
 0001:00008da0       ?getPxScene_TaskManager@@YAPEAVPxTaskManager@physx@@PEBVPxScene@2@@Z 0000000180009da0 f   PxAutoGeneratedMetaDataObjects.obj
 0001:00008db0       ?setPxScene_NbContactDataBlocks@@YAXPEAVPxScene@physx@@I@Z 0000000180009db0 f   PxAutoGeneratedMetaDataObjects.obj
 0001:00008dc0       ?getPxScene_MaxNbContactDataBlocksUsed@@YAIPEBVPxScene@physx@@@Z 0000000180009dc0 f   PxAutoGeneratedMetaDataObjects.obj
 0001:00008dd0       ?getPxScene_ContactReportStreamBufferSize@@YAIPEBVPxScene@physx@@@Z 0000000180009dd0 f   PxAutoGeneratedMetaDataObjects.obj
 0001:00008de0       ?setPxScene_SolverBatchSize@@YAXPEAVPxScene@physx@@I@Z 0000000180009de0 f   PxAutoGeneratedMetaDataObjects.obj
 0001:00008df0       ?getPxScene_SolverBatchSize@@YAIPEBVPxScene@physx@@@Z 0000000180009df0 f   PxAutoGeneratedMetaDataObjects.obj
 0001:00008e00       ?setPxScene_SolverArticulationBatchSize@@YAXPEAVPxScene@physx@@I@Z 0000000180009e00 f   PxAutoGeneratedMetaDataObjects.obj
 0001:00008e10       ?getPxScene_SolverArticulationBatchSize@@YAIPEBVPxScene@physx@@@Z 0000000180009e10 f   PxAutoGeneratedMetaDataObjects.obj
 0001:00008e20       ?getPxScene_WakeCounterResetValue@@YAMPEBVPxScene@physx@@@Z 0000000180009e20 f   PxAutoGeneratedMetaDataObjects.obj
 0001:00008e30       ?setPxSceneDesc_ToDefault@@YAXPEAVPxSceneDesc@physx@@AEBVPxTolerancesScale@2@@Z 0000000180009e30 f   PxAutoGeneratedMetaDataObjects.obj
 0001:00009030       ??_H@YAXPEAX_K1P6APEAX0@Z@Z 000000018000a030 f i PxAutoGeneratedMetaDataObjects.obj
 0001:00009080       ?getPxActorUserData@@YAPEAXPEBVPxActor@physx@@@Z 000000018000a080 f i PxAutoGeneratedMetaDataObjects.obj
 0001:00009090       ?getPxArticulationBaseUserData@@YAPEAXPEBVPxArticulationBase@physx@@@Z 000000018000a090 f i PxAutoGeneratedMetaDataObjects.obj
 0001:000090a0       ?getPxBoxGeometryHalfExtents@@YA?AVPxVec3@physx@@PEBVPxBoxGeometry@2@@Z 000000018000a0a0 f i PxAutoGeneratedMetaDataObjects.obj
 0001:000090c0       ?getPxCapsuleGeometryHalfHeight@@YAMPEBVPxCapsuleGeometry@physx@@@Z 000000018000a0c0 f i PxAutoGeneratedMetaDataObjects.obj
 0001:000090d0       ?getPxCapsuleGeometryRadius@@YAMPEBVPxCapsuleGeometry@physx@@@Z 000000018000a0d0 f i PxAutoGeneratedMetaDataObjects.obj
 0001:000090e0       ?getPxConvexMeshGeometryConvexMesh@@YAPEAVPxConvexMesh@physx@@PEBVPxConvexMeshGeometry@2@@Z 000000018000a0e0 f i PxAutoGeneratedMetaDataObjects.obj
 0001:000090f0       ?getPxConvexMeshGeometryMeshFlags@@YA?AV?$PxFlags@W4Enum@PxConvexMeshGeometryFlag@physx@@E@physx@@PEBVPxConvexMeshGeometry@2@@Z 000000018000a0f0 f i PxAutoGeneratedMetaDataObjects.obj
 0001:00009100       ?getPxConvexMeshGeometryScale@@YA?AVPxMeshScale@physx@@PEBVPxConvexMeshGeometry@2@@Z 000000018000a100 f i PxAutoGeneratedMetaDataObjects.obj
 0001:00009130       ?getPxHeightFieldDescConvexEdgeThreshold@@YAMPEBVPxHeightFieldDesc@physx@@@Z 000000018000a130 f i PxAutoGeneratedMetaDataObjects.obj
 0001:00009140       ?getPxHeightFieldDescFlags@@YA?AV?$PxFlags@W4Enum@PxHeightFieldFlag@physx@@G@physx@@PEBVPxHeightFieldDesc@2@@Z 000000018000a140 f i PxAutoGeneratedMetaDataObjects.obj
 0001:00009150       ?getPxHeightFieldDescFormat@@YA?AW4Enum@PxHeightFieldFormat@physx@@PEBVPxHeightFieldDesc@3@@Z 000000018000a150 f i PxAutoGeneratedMetaDataObjects.obj
 0001:00009160       ?getPxHeightFieldDescNbColumns@@YAIPEBVPxHeightFieldDesc@physx@@@Z 000000018000a160 f i PxAutoGeneratedMetaDataObjects.obj
 0001:00009170       ?getPxHeightFieldDescNbRows@@YAIPEBVPxHeightFieldDesc@physx@@@Z 000000018000a170 f i PxAutoGeneratedMetaDataObjects.obj
 0001:00009180       ?getPxHeightFieldDescSamples@@YA?AUPxStridedData@physx@@PEBVPxHeightFieldDesc@2@@Z 000000018000a180 f i PxAutoGeneratedMetaDataObjects.obj
 0001:00009190       ?getPxHeightFieldGeometryColumnScale@@YAMPEBVPxHeightFieldGeometry@physx@@@Z 000000018000a190 f i PxAutoGeneratedMetaDataObjects.obj
 0001:000091a0       ?getPxHeightFieldGeometryHeightField@@YAPEAVPxHeightField@physx@@PEBVPxHeightFieldGeometry@2@@Z 000000018000a1a0 f i PxAutoGeneratedMetaDataObjects.obj
 0001:000091b0       ?getPxHeightFieldGeometryHeightFieldFlags@@YA?AV?$PxFlags@W4Enum@PxMeshGeometryFlag@physx@@E@physx@@PEBVPxHeightFieldGeometry@2@@Z 000000018000a1b0 f i PxAutoGeneratedMetaDataObjects.obj
 0001:000091c0       ?getPxHeightFieldGeometryHeightScale@@YAMPEBVPxHeightFieldGeometry@physx@@@Z 000000018000a1c0 f i PxAutoGeneratedMetaDataObjects.obj
 0001:000091d0       ?getPxHeightFieldGeometryRowScale@@YAMPEBVPxHeightFieldGeometry@physx@@@Z 000000018000a1d0 f i PxAutoGeneratedMetaDataObjects.obj
 0001:000091e0       ?getPxMaterialUserData@@YAPEAXPEBVPxMaterial@physx@@@Z 000000018000a1e0 f i PxAutoGeneratedMetaDataObjects.obj
 0001:000091f0       ?getPxMeshScaleRotation@@YA?AVPxQuat@physx@@PEBVPxMeshScale@2@@Z 000000018000a1f0 f i PxAutoGeneratedMetaDataObjects.obj
 0001:00009210       ?getPxMeshScaleScale@@YA?AVPxVec3@physx@@PEBVPxMeshScale@2@@Z 000000018000a210 f i PxAutoGeneratedMetaDataObjects.obj
 0001:00009230       ?getPxSceneDescBounceThresholdVelocity@@YAMPEBVPxSceneDesc@physx@@@Z 000000018000a230 f i PxAutoGeneratedMetaDataObjects.obj
 0001:00009240       ?getPxSceneDescBroadPhaseCallback@@YAPEAVPxBroadPhaseCallback@physx@@PEBVPxSceneDesc@2@@Z 000000018000a240 f i PxAutoGeneratedMetaDataObjects.obj
 0001:00009250       ?getPxSceneDescBroadPhaseType@@YA?AW4Enum@PxBroadPhaseType@physx@@PEBVPxSceneDesc@3@@Z 000000018000a250 f i PxAutoGeneratedMetaDataObjects.obj
 0001:00009260       ?getPxSceneDescCcdContactModifyCallback@@YAPEAVPxCCDContactModifyCallback@physx@@PEBVPxSceneDesc@2@@Z 000000018000a260 f i PxAutoGeneratedMetaDataObjects.obj
 0001:00009270       ?getPxSceneDescCcdMaxPasses@@YAIPEBVPxSceneDesc@physx@@@Z 000000018000a270 f i PxAutoGeneratedMetaDataObjects.obj
 0001:00009280       ?getPxSceneDescCcdMaxSeparation@@YAMPEBVPxSceneDesc@physx@@@Z 000000018000a280 f i PxAutoGeneratedMetaDataObjects.obj
 0001:00009290       ?getPxSceneDescCcdThreshold@@YAMPEBVPxSceneDesc@physx@@@Z 000000018000a290 f i PxAutoGeneratedMetaDataObjects.obj
 0001:000092a0       ?getPxSceneDescContactModifyCallback@@YAPEAVPxContactModifyCallback@physx@@PEBVPxSceneDesc@2@@Z 000000018000a2a0 f i PxAutoGeneratedMetaDataObjects.obj
 0001:000092b0       ?getPxSceneDescContactReportStreamBufferSize@@YAIPEBVPxSceneDesc@physx@@@Z 000000018000a2b0 f i PxAutoGeneratedMetaDataObjects.obj
 0001:000092c0       ?getPxSceneDescCpuDispatcher@@YAPEAVPxCpuDispatcher@physx@@PEBVPxSceneDesc@2@@Z 000000018000a2c0 f i PxAutoGeneratedMetaDataObjects.obj
 0001:000092d0       ?getPxSceneDescCudaContextManager@@YAPEAVPxCudaContextManager@physx@@PEBVPxSceneDesc@2@@Z 000000018000a2d0 f i PxAutoGeneratedMetaDataObjects.obj
 0001:000092e0       ?getPxSceneDescDynamicStructure@@YA?AW4Enum@PxPruningStructureType@physx@@PEBVPxSceneDesc@3@@Z 000000018000a2e0 f i PxAutoGeneratedMetaDataObjects.obj
 0001:000092f0       ?getPxSceneDescDynamicTreeRebuildRateHint@@YAIPEBVPxSceneDesc@physx@@@Z 000000018000a2f0 f i PxAutoGeneratedMetaDataObjects.obj
 0001:00009300       ?getPxSceneDescFilterCallback@@YAPEAVPxSimulationFilterCallback@physx@@PEBVPxSceneDesc@2@@Z 000000018000a300 f i PxAutoGeneratedMetaDataObjects.obj
 0001:00009310       ?getPxSceneDescFilterShader@@YAP6A?AV?$PxFlags@W4Enum@PxFilterFlag@physx@@G@physx@@IUPxFilterData@2@I0AEAV?$PxFlags@W4Enum@PxPairFlag@physx@@G@2@PEBXI@ZPEBVPxSceneDesc@2@@Z 000000018000a310 f i PxAutoGeneratedMetaDataObjects.obj
 0001:00009320       ?getPxSceneDescFilterShaderData@@YAPEBXPEBVPxSceneDesc@physx@@@Z 000000018000a320 f i PxAutoGeneratedMetaDataObjects.obj
 0001:00009330       ?getPxSceneDescFilterShaderDataSize@@YAIPEBVPxSceneDesc@physx@@@Z 000000018000a330 f i PxAutoGeneratedMetaDataObjects.obj
 0001:00009340       ?getPxSceneDescFlags@@YA?AV?$PxFlags@W4Enum@PxSceneFlag@physx@@I@physx@@PEBVPxSceneDesc@2@@Z 000000018000a340 f i PxAutoGeneratedMetaDataObjects.obj
 0001:00009350       ?getPxSceneDescFrictionOffsetThreshold@@YAMPEBVPxSceneDesc@physx@@@Z 000000018000a350 f i PxAutoGeneratedMetaDataObjects.obj
 0001:00009360       ?getPxSceneDescFrictionType@@YA?AW4Enum@PxFrictionType@physx@@PEBVPxSceneDesc@3@@Z 000000018000a360 f i PxAutoGeneratedMetaDataObjects.obj
 0001:00009370       ?getPxSceneDescGpuComputeVersion@@YAIPEBVPxSceneDesc@physx@@@Z 000000018000a370 f i PxAutoGeneratedMetaDataObjects.obj
 0001:00009380       ?getPxSceneDescGpuDynamicsConfig@@YA?AUPxgDynamicsMemoryConfig@physx@@PEBVPxSceneDesc@2@@Z 000000018000a380 f i PxAutoGeneratedMetaDataObjects.obj
 0001:000093a0       ?getPxSceneDescGpuMaxNumPartitions@@YAIPEBVPxSceneDesc@physx@@@Z 000000018000a3a0 f i PxAutoGeneratedMetaDataObjects.obj
 0001:000093b0       ?getPxSceneDescGravity@@YA?AVPxVec3@physx@@PEBVPxSceneDesc@2@@Z 000000018000a3b0 f i PxAutoGeneratedMetaDataObjects.obj
 0001:000093d0       ?getPxSceneDescKineKineFilteringMode@@YA?AW4Enum@PxPairFilteringMode@physx@@PEBVPxSceneDesc@3@@Z 000000018000a3d0 f i PxAutoGeneratedMetaDataObjects.obj
 0001:000093e0       ?getPxSceneDescLimits@@YA?AVPxSceneLimits@physx@@PEBVPxSceneDesc@2@@Z 000000018000a3e0 f i PxAutoGeneratedMetaDataObjects.obj
 0001:00009400       ?getPxSceneDescMaxBiasCoefficient@@YAMPEBVPxSceneDesc@physx@@@Z 000000018000a400 f i PxAutoGeneratedMetaDataObjects.obj
 0001:00009410       ?getPxSceneDescMaxNbContactDataBlocks@@YAIPEBVPxSceneDesc@physx@@@Z 000000018000a410 f i PxAutoGeneratedMetaDataObjects.obj
 0001:00009420       ?getPxSceneDescNbContactDataBlocks@@YAIPEBVPxSceneDesc@physx@@@Z 000000018000a420 f i PxAutoGeneratedMetaDataObjects.obj
 0001:00009430       ?getPxSceneDescSanityBounds@@YA?AVPxBounds3@physx@@PEBVPxSceneDesc@2@@Z 000000018000a430 f i PxAutoGeneratedMetaDataObjects.obj
 0001:00009470       ?getPxSceneDescSceneQueryUpdateMode@@YA?AW4Enum@PxSceneQueryUpdateMode@physx@@PEBVPxSceneDesc@3@@Z 000000018000a470 f i PxAutoGeneratedMetaDataObjects.obj
 0001:00009480       ?getPxSceneDescSimulationEventCallback@@YAPEAVPxSimulationEventCallback@physx@@PEBVPxSceneDesc@2@@Z 000000018000a480 f i PxAutoGeneratedMetaDataObjects.obj
 0001:00009490       ?getPxSceneDescSolverArticulationBatchSize@@YAIPEBVPxSceneDesc@physx@@@Z 000000018000a490 f i PxAutoGeneratedMetaDataObjects.obj
 0001:000094a0       ?getPxSceneDescSolverBatchSize@@YAIPEBVPxSceneDesc@physx@@@Z 000000018000a4a0 f i PxAutoGeneratedMetaDataObjects.obj
 0001:000094b0       ?getPxSceneDescSolverOffsetSlop@@YAMPEBVPxSceneDesc@physx@@@Z 000000018000a4b0 f i PxAutoGeneratedMetaDataObjects.obj
 0001:000094c0       ?getPxSceneDescSolverType@@YA?AW4Enum@PxSolverType@physx@@PEBVPxSceneDesc@3@@Z 000000018000a4c0 f i PxAutoGeneratedMetaDataObjects.obj
 0001:000094d0       ?getPxSceneDescStaticKineFilteringMode@@YA?AW4Enum@PxPairFilteringMode@physx@@PEBVPxSceneDesc@3@@Z 000000018000a4d0 f i PxAutoGeneratedMetaDataObjects.obj
 0001:000094e0       ?getPxSceneDescStaticStructure@@YA?AW4Enum@PxPruningStructureType@physx@@PEBVPxSceneDesc@3@@Z 000000018000a4e0 f i PxAutoGeneratedMetaDataObjects.obj
 0001:000094f0       ?getPxSceneDescUserData@@YAPEAXPEBVPxSceneDesc@physx@@@Z 000000018000a4f0 f i PxAutoGeneratedMetaDataObjects.obj
 0001:00009500       ?getPxSceneDescWakeCounterResetValue@@YAMPEBVPxSceneDesc@physx@@@Z 000000018000a500 f i PxAutoGeneratedMetaDataObjects.obj
 0001:00009510       ?getPxSceneLimitsMaxNbActors@@YAIPEBVPxSceneLimits@physx@@@Z 000000018000a510 f i PxAutoGeneratedMetaDataObjects.obj
 0001:00009520       ?getPxSceneLimitsMaxNbAggregates@@YAIPEBVPxSceneLimits@physx@@@Z 000000018000a520 f i PxAutoGeneratedMetaDataObjects.obj
 0001:00009530       ?getPxSceneLimitsMaxNbBodies@@YAIPEBVPxSceneLimits@physx@@@Z 000000018000a530 f i PxAutoGeneratedMetaDataObjects.obj
 0001:00009540       ?getPxSceneLimitsMaxNbBroadPhaseOverlaps@@YAIPEBVPxSceneLimits@physx@@@Z 000000018000a540 f i PxAutoGeneratedMetaDataObjects.obj
 0001:00009550       ?getPxSceneLimitsMaxNbConstraints@@YAIPEBVPxSceneLimits@physx@@@Z 000000018000a550 f i PxAutoGeneratedMetaDataObjects.obj
 0001:00009560       ?getPxSceneLimitsMaxNbDynamicShapes@@YAIPEBVPxSceneLimits@physx@@@Z 000000018000a560 f i PxAutoGeneratedMetaDataObjects.obj
 0001:00009570       ?getPxSceneLimitsMaxNbRegions@@YAIPEBVPxSceneLimits@physx@@@Z 000000018000a570 f i PxAutoGeneratedMetaDataObjects.obj
 0001:00009580       ?getPxSceneLimitsMaxNbStaticShapes@@YAIPEBVPxSceneLimits@physx@@@Z 000000018000a580 f i PxAutoGeneratedMetaDataObjects.obj
 0001:00009590       ?getPxSceneUserData@@YAPEAXPEBVPxScene@physx@@@Z 000000018000a590 f i PxAutoGeneratedMetaDataObjects.obj
 0001:000095a0       ?getPxShapeUserData@@YAPEAXPEBVPxShape@physx@@@Z 000000018000a5a0 f i PxAutoGeneratedMetaDataObjects.obj
 0001:000095b0       ?getPxSimulationStatisticsCompressedContactSize@@YAIPEBVPxSimulationStatistics@physx@@@Z 000000018000a5b0 f i PxAutoGeneratedMetaDataObjects.obj
 0001:000095c0       ?getPxSimulationStatisticsNbActiveConstraints@@YAIPEBVPxSimulationStatistics@physx@@@Z 000000018000a5c0 f i PxAutoGeneratedMetaDataObjects.obj
 0001:000095d0       ?getPxSimulationStatisticsNbActiveDynamicBodies@@YAIPEBVPxSimulationStatistics@physx@@@Z 000000018000a5d0 f i PxAutoGeneratedMetaDataObjects.obj
 0001:000095e0       ?getPxSimulationStatisticsNbActiveKinematicBodies@@YAIPEBVPxSimulationStatistics@physx@@@Z 000000018000a5e0 f i PxAutoGeneratedMetaDataObjects.obj
 0001:000095f0       ?getPxSimulationStatisticsNbAggregates@@YAIPEBVPxSimulationStatistics@physx@@@Z 000000018000a5f0 f i PxAutoGeneratedMetaDataObjects.obj
 0001:00009600       ?getPxSimulationStatisticsNbArticulations@@YAIPEBVPxSimulationStatistics@physx@@@Z 000000018000a600 f i PxAutoGeneratedMetaDataObjects.obj
 0001:00009610       ?getPxSimulationStatisticsNbAxisSolverConstraints@@YAIPEBVPxSimulationStatistics@physx@@@Z 000000018000a610 f i PxAutoGeneratedMetaDataObjects.obj
 0001:00009620       ?getPxSimulationStatisticsNbBroadPhaseAdds@@YAIPEBVPxSimulationStatistics@physx@@@Z 000000018000a620 f i PxAutoGeneratedMetaDataObjects.obj
 0001:00009630       ?getPxSimulationStatisticsNbBroadPhaseRemoves@@YAIPEBVPxSimulationStatistics@physx@@@Z 000000018000a630 f i PxAutoGeneratedMetaDataObjects.obj
 0001:00009640       ?getPxSimulationStatisticsNbDiscreteContactPairsTotal@@YAIPEBVPxSimulationStatistics@physx@@@Z 000000018000a640 f i PxAutoGeneratedMetaDataObjects.obj
 0001:00009650       ?getPxSimulationStatisticsNbDiscreteContactPairsWithCacheHits@@YAIPEBVPxSimulationStatistics@physx@@@Z 000000018000a650 f i PxAutoGeneratedMetaDataObjects.obj
 0001:00009660       ?getPxSimulationStatisticsNbDiscreteContactPairsWithContacts@@YAIPEBVPxSimulationStatistics@physx@@@Z 000000018000a660 f i PxAutoGeneratedMetaDataObjects.obj
 0001:00009670       ?getPxSimulationStatisticsNbDynamicBodies@@YAIPEBVPxSimulationStatistics@physx@@@Z 000000018000a670 f i PxAutoGeneratedMetaDataObjects.obj
 0001:00009680       ?getPxSimulationStatisticsNbKinematicBodies@@YAIPEBVPxSimulationStatistics@physx@@@Z 000000018000a680 f i PxAutoGeneratedMetaDataObjects.obj
 0001:00009690       ?getPxSimulationStatisticsNbLostPairs@@YAIPEBVPxSimulationStatistics@physx@@@Z 000000018000a690 f i PxAutoGeneratedMetaDataObjects.obj
 0001:000096a0       ?getPxSimulationStatisticsNbLostTouches@@YAIPEBVPxSimulationStatistics@physx@@@Z 000000018000a6a0 f i PxAutoGeneratedMetaDataObjects.obj
 0001:000096b0       ?getPxSimulationStatisticsNbNewPairs@@YAIPEBVPxSimulationStatistics@physx@@@Z 000000018000a6b0 f i PxAutoGeneratedMetaDataObjects.obj
 0001:000096c0       ?getPxSimulationStatisticsNbNewTouches@@YAIPEBVPxSimulationStatistics@physx@@@Z 000000018000a6c0 f i PxAutoGeneratedMetaDataObjects.obj
 0001:000096d0       ?getPxSimulationStatisticsNbPartitions@@YAIPEBVPxSimulationStatistics@physx@@@Z 000000018000a6d0 f i PxAutoGeneratedMetaDataObjects.obj
 0001:000096e0       ?getPxSimulationStatisticsNbStaticBodies@@YAIPEBVPxSimulationStatistics@physx@@@Z 000000018000a6e0 f i PxAutoGeneratedMetaDataObjects.obj
 0001:000096f0       ?getPxSimulationStatisticsPeakConstraintMemory@@YAIPEBVPxSimulationStatistics@physx@@@Z 000000018000a6f0 f i PxAutoGeneratedMetaDataObjects.obj
 0001:00009700       ?getPxSimulationStatisticsRequiredContactConstraintMemory@@YAIPEBVPxSimulationStatistics@physx@@@Z 000000018000a700 f i PxAutoGeneratedMetaDataObjects.obj
 0001:00009710       ?getPxSphereGeometryRadius@@YAMPEBVPxSphereGeometry@physx@@@Z 000000018000a710 f i PxAutoGeneratedMetaDataObjects.obj
 0001:00009720       ?getPxTolerancesScaleLength@@YAMPEBVPxTolerancesScale@physx@@@Z 000000018000a720 f i PxAutoGeneratedMetaDataObjects.obj
 0001:00009730       ?getPxTolerancesScaleSpeed@@YAMPEBVPxTolerancesScale@physx@@@Z 000000018000a730 f i PxAutoGeneratedMetaDataObjects.obj
 0001:00009740       ?getPxTriangleMeshGeometryMeshFlags@@YA?AV?$PxFlags@W4Enum@PxMeshGeometryFlag@physx@@E@physx@@PEBVPxTriangleMeshGeometry@2@@Z 000000018000a740 f i PxAutoGeneratedMetaDataObjects.obj
 0001:00009750       ?getPxTriangleMeshGeometryScale@@YA?AVPxMeshScale@physx@@PEBVPxTriangleMeshGeometry@2@@Z 000000018000a750 f i PxAutoGeneratedMetaDataObjects.obj
 0001:00009780       ?getPxTriangleMeshGeometryTriangleMesh@@YAPEAVPxTriangleMesh@physx@@PEBVPxTriangleMeshGeometry@2@@Z 000000018000a780 f i PxAutoGeneratedMetaDataObjects.obj
 0001:00009790       ?getPxgDynamicsMemoryConfigConstraintBufferCapacity@@YAIPEBUPxgDynamicsMemoryConfig@physx@@@Z 000000018000a790 f i PxAutoGeneratedMetaDataObjects.obj
 0001:000097a0       ?getPxgDynamicsMemoryConfigContactBufferCapacity@@YAIPEBUPxgDynamicsMemoryConfig@physx@@@Z 000000018000a7a0 f i PxAutoGeneratedMetaDataObjects.obj
 0001:000097b0       ?getPxgDynamicsMemoryConfigContactStreamSize@@YAIPEBUPxgDynamicsMemoryConfig@physx@@@Z 000000018000a7b0 f i PxAutoGeneratedMetaDataObjects.obj
 0001:000097c0       ?getPxgDynamicsMemoryConfigForceStreamCapacity@@YAIPEBUPxgDynamicsMemoryConfig@physx@@@Z 000000018000a7c0 f i PxAutoGeneratedMetaDataObjects.obj
 0001:000097d0       ?getPxgDynamicsMemoryConfigFoundLostPairsCapacity@@YAIPEBUPxgDynamicsMemoryConfig@physx@@@Z 000000018000a7d0 f i PxAutoGeneratedMetaDataObjects.obj
 0001:000097e0       ?getPxgDynamicsMemoryConfigHeapCapacity@@YAIPEBUPxgDynamicsMemoryConfig@physx@@@Z 000000018000a7e0 f i PxAutoGeneratedMetaDataObjects.obj
 0001:000097f0       ?getPxgDynamicsMemoryConfigPatchStreamSize@@YAIPEBUPxgDynamicsMemoryConfig@physx@@@Z 000000018000a7f0 f i PxAutoGeneratedMetaDataObjects.obj
 0001:00009800       ?getPxgDynamicsMemoryConfigTempBufferCapacity@@YAIPEBUPxgDynamicsMemoryConfig@physx@@@Z 000000018000a800 f i PxAutoGeneratedMetaDataObjects.obj
 0001:00009810       ?setPxActorUserData@@YAXPEAVPxActor@physx@@PEAX@Z 000000018000a810 f i PxAutoGeneratedMetaDataObjects.obj
 0001:00009820       ?setPxArticulationBaseUserData@@YAXPEAVPxArticulationBase@physx@@PEAX@Z 000000018000a820 f i PxAutoGeneratedMetaDataObjects.obj
 0001:00009830       ?setPxBoxGeometryHalfExtents@@YAXPEAVPxBoxGeometry@physx@@VPxVec3@2@@Z 000000018000a830 f i PxAutoGeneratedMetaDataObjects.obj
 0001:00009850       ?setPxCapsuleGeometryHalfHeight@@YAXPEAVPxCapsuleGeometry@physx@@M@Z 000000018000a850 f i PxAutoGeneratedMetaDataObjects.obj
 0001:00009860       ?setPxCapsuleGeometryRadius@@YAXPEAVPxCapsuleGeometry@physx@@M@Z 000000018000a860 f i PxAutoGeneratedMetaDataObjects.obj
 0001:00009870       ?setPxConvexMeshGeometryConvexMesh@@YAXPEAVPxConvexMeshGeometry@physx@@PEAVPxConvexMesh@2@@Z 000000018000a870 f i PxAutoGeneratedMetaDataObjects.obj
 0001:00009880       ?setPxConvexMeshGeometryMeshFlags@@YAXPEAVPxConvexMeshGeometry@physx@@V?$PxFlags@W4Enum@PxConvexMeshGeometryFlag@physx@@E@2@@Z 000000018000a880 f i PxAutoGeneratedMetaDataObjects.obj
 0001:00009890       ?setPxConvexMeshGeometryScale@@YAXPEAVPxConvexMeshGeometry@physx@@VPxMeshScale@2@@Z 000000018000a890 f i PxAutoGeneratedMetaDataObjects.obj
 0001:000098c0       ?setPxHeightFieldDescConvexEdgeThreshold@@YAXPEAVPxHeightFieldDesc@physx@@M@Z 000000018000a8c0 f i PxAutoGeneratedMetaDataObjects.obj
 0001:000098d0       ?setPxHeightFieldDescFlags@@YAXPEAVPxHeightFieldDesc@physx@@V?$PxFlags@W4Enum@PxHeightFieldFlag@physx@@G@2@@Z 000000018000a8d0 f i PxAutoGeneratedMetaDataObjects.obj
 0001:000098e0       ?setPxHeightFieldDescFormat@@YAXPEAVPxHeightFieldDesc@physx@@W4Enum@PxHeightFieldFormat@2@@Z 000000018000a8e0 f i PxAutoGeneratedMetaDataObjects.obj
 0001:000098f0       ?setPxHeightFieldDescNbColumns@@YAXPEAVPxHeightFieldDesc@physx@@I@Z 000000018000a8f0 f i PxAutoGeneratedMetaDataObjects.obj
 0001:00009900       ?setPxHeightFieldDescNbRows@@YAXPEAVPxHeightFieldDesc@physx@@I@Z 000000018000a900 f i PxAutoGeneratedMetaDataObjects.obj
 0001:00009910       ?setPxHeightFieldDescSamples@@YAXPEAVPxHeightFieldDesc@physx@@UPxStridedData@2@@Z 000000018000a910 f i PxAutoGeneratedMetaDataObjects.obj
 0001:00009920       ?setPxHeightFieldGeometryColumnScale@@YAXPEAVPxHeightFieldGeometry@physx@@M@Z 000000018000a920 f i PxAutoGeneratedMetaDataObjects.obj
 0001:00009930       ?setPxHeightFieldGeometryHeightField@@YAXPEAVPxHeightFieldGeometry@physx@@PEAVPxHeightField@2@@Z 000000018000a930 f i PxAutoGeneratedMetaDataObjects.obj
 0001:00009940       ?setPxHeightFieldGeometryHeightFieldFlags@@YAXPEAVPxHeightFieldGeometry@physx@@V?$PxFlags@W4Enum@PxMeshGeometryFlag@physx@@E@2@@Z 000000018000a940 f i PxAutoGeneratedMetaDataObjects.obj
 0001:00009950       ?setPxHeightFieldGeometryHeightScale@@YAXPEAVPxHeightFieldGeometry@physx@@M@Z 000000018000a950 f i PxAutoGeneratedMetaDataObjects.obj
 0001:00009960       ?setPxHeightFieldGeometryRowScale@@YAXPEAVPxHeightFieldGeometry@physx@@M@Z 000000018000a960 f i PxAutoGeneratedMetaDataObjects.obj
 0001:00009970       ?setPxMaterialUserData@@YAXPEAVPxMaterial@physx@@PEAX@Z 000000018000a970 f i PxAutoGeneratedMetaDataObjects.obj
 0001:00009980       ?setPxMeshScaleRotation@@YAXPEAVPxMeshScale@physx@@VPxQuat@2@@Z 000000018000a980 f i PxAutoGeneratedMetaDataObjects.obj
 0001:000099a0       ?setPxMeshScaleScale@@YAXPEAVPxMeshScale@physx@@VPxVec3@2@@Z 000000018000a9a0 f i PxAutoGeneratedMetaDataObjects.obj
 0001:000099c0       ?setPxSceneDescBounceThresholdVelocity@@YAXPEAVPxSceneDesc@physx@@M@Z 000000018000a9c0 f i PxAutoGeneratedMetaDataObjects.obj
 0001:000099d0       ?setPxSceneDescBroadPhaseCallback@@YAXPEAVPxSceneDesc@physx@@PEAVPxBroadPhaseCallback@2@@Z 000000018000a9d0 f i PxAutoGeneratedMetaDataObjects.obj
 0001:000099e0       ?setPxSceneDescBroadPhaseType@@YAXPEAVPxSceneDesc@physx@@W4Enum@PxBroadPhaseType@2@@Z 000000018000a9e0 f i PxAutoGeneratedMetaDataObjects.obj
 0001:000099f0       ?setPxSceneDescCcdContactModifyCallback@@YAXPEAVPxSceneDesc@physx@@PEAVPxCCDContactModifyCallback@2@@Z 000000018000a9f0 f i PxAutoGeneratedMetaDataObjects.obj
 0001:00009a00       ?setPxSceneDescCcdMaxPasses@@YAXPEAVPxSceneDesc@physx@@I@Z 000000018000aa00 f i PxAutoGeneratedMetaDataObjects.obj
 0001:00009a10       ?setPxSceneDescCcdMaxSeparation@@YAXPEAVPxSceneDesc@physx@@M@Z 000000018000aa10 f i PxAutoGeneratedMetaDataObjects.obj
 0001:00009a20       ?setPxSceneDescCcdThreshold@@YAXPEAVPxSceneDesc@physx@@M@Z 000000018000aa20 f i PxAutoGeneratedMetaDataObjects.obj
 0001:00009a30       ?setPxSceneDescContactModifyCallback@@YAXPEAVPxSceneDesc@physx@@PEAVPxContactModifyCallback@2@@Z 000000018000aa30 f i PxAutoGeneratedMetaDataObjects.obj
 0001:00009a40       ?setPxSceneDescContactReportStreamBufferSize@@YAXPEAVPxSceneDesc@physx@@I@Z 000000018000aa40 f i PxAutoGeneratedMetaDataObjects.obj
 0001:00009a50       ?setPxSceneDescCpuDispatcher@@YAXPEAVPxSceneDesc@physx@@PEAVPxCpuDispatcher@2@@Z 000000018000aa50 f i PxAutoGeneratedMetaDataObjects.obj
 0001:00009a60       ?setPxSceneDescCudaContextManager@@YAXPEAVPxSceneDesc@physx@@PEAVPxCudaContextManager@2@@Z 000000018000aa60 f i PxAutoGeneratedMetaDataObjects.obj
 0001:00009a70       ?setPxSceneDescDynamicStructure@@YAXPEAVPxSceneDesc@physx@@W4Enum@PxPruningStructureType@2@@Z 000000018000aa70 f i PxAutoGeneratedMetaDataObjects.obj
 0001:00009a80       ?setPxSceneDescDynamicTreeRebuildRateHint@@YAXPEAVPxSceneDesc@physx@@I@Z 000000018000aa80 f i PxAutoGeneratedMetaDataObjects.obj
 0001:00009a90       ?setPxSceneDescFilterCallback@@YAXPEAVPxSceneDesc@physx@@PEAVPxSimulationFilterCallback@2@@Z 000000018000aa90 f i PxAutoGeneratedMetaDataObjects.obj
 0001:00009aa0       ?setPxSceneDescFilterShader@@YAXPEAVPxSceneDesc@physx@@P6A?AV?$PxFlags@W4Enum@PxFilterFlag@physx@@G@2@IUPxFilterData@2@I1AEAV?$PxFlags@W4Enum@PxPairFlag@physx@@G@2@PEBXI@Z@Z 000000018000aaa0 f i PxAutoGeneratedMetaDataObjects.obj
 0001:00009ab0       ?setPxSceneDescFilterShaderData@@YAXPEAVPxSceneDesc@physx@@PEBX@Z 000000018000aab0 f i PxAutoGeneratedMetaDataObjects.obj
 0001:00009ac0       ?setPxSceneDescFilterShaderDataSize@@YAXPEAVPxSceneDesc@physx@@I@Z 000000018000aac0 f i PxAutoGeneratedMetaDataObjects.obj
 0001:00009ad0       ?setPxSceneDescFlags@@YAXPEAVPxSceneDesc@physx@@V?$PxFlags@W4Enum@PxSceneFlag@physx@@I@2@@Z 000000018000aad0 f i PxAutoGeneratedMetaDataObjects.obj
 0001:00009ae0       ?setPxSceneDescFrictionOffsetThreshold@@YAXPEAVPxSceneDesc@physx@@M@Z 000000018000aae0 f i PxAutoGeneratedMetaDataObjects.obj
 0001:00009af0       ?setPxSceneDescFrictionType@@YAXPEAVPxSceneDesc@physx@@W4Enum@PxFrictionType@2@@Z 000000018000aaf0 f i PxAutoGeneratedMetaDataObjects.obj
 0001:00009b00       ?setPxSceneDescGpuComputeVersion@@YAXPEAVPxSceneDesc@physx@@I@Z 000000018000ab00 f i PxAutoGeneratedMetaDataObjects.obj
 0001:00009b10       ?setPxSceneDescGpuDynamicsConfig@@YAXPEAVPxSceneDesc@physx@@UPxgDynamicsMemoryConfig@2@@Z 000000018000ab10 f i PxAutoGeneratedMetaDataObjects.obj
 0001:00009b30       ?setPxSceneDescGpuMaxNumPartitions@@YAXPEAVPxSceneDesc@physx@@I@Z 000000018000ab30 f i PxAutoGeneratedMetaDataObjects.obj
 0001:00009b40       ?setPxSceneDescGravity@@YAXPEAVPxSceneDesc@physx@@VPxVec3@2@@Z 000000018000ab40 f i PxAutoGeneratedMetaDataObjects.obj
 0001:00009b60       ?setPxSceneDescKineKineFilteringMode@@YAXPEAVPxSceneDesc@physx@@W4Enum@PxPairFilteringMode@2@@Z 000000018000ab60 f i PxAutoGeneratedMetaDataObjects.obj
 0001:00009b70       ?setPxSceneDescLimits@@YAXPEAVPxSceneDesc@physx@@VPxSceneLimits@2@@Z 000000018000ab70 f i PxAutoGeneratedMetaDataObjects.obj
 0001:00009b80       ?setPxSceneDescMaxBiasCoefficient@@YAXPEAVPxSceneDesc@physx@@M@Z 000000018000ab80 f i PxAutoGeneratedMetaDataObjects.obj
 0001:00009b90       ?setPxSceneDescMaxNbContactDataBlocks@@YAXPEAVPxSceneDesc@physx@@I@Z 000000018000ab90 f i PxAutoGeneratedMetaDataObjects.obj
 0001:00009ba0       ?setPxSceneDescNbContactDataBlocks@@YAXPEAVPxSceneDesc@physx@@I@Z 000000018000aba0 f i PxAutoGeneratedMetaDataObjects.obj
 0001:00009bb0       ?setPxSceneDescSanityBounds@@YAXPEAVPxSceneDesc@physx@@VPxBounds3@2@@Z 000000018000abb0 f i PxAutoGeneratedMetaDataObjects.obj
 0001:00009bf0       ?setPxSceneDescSceneQueryUpdateMode@@YAXPEAVPxSceneDesc@physx@@W4Enum@PxSceneQueryUpdateMode@2@@Z 000000018000abf0 f i PxAutoGeneratedMetaDataObjects.obj
 0001:00009c00       ?setPxSceneDescSimulationEventCallback@@YAXPEAVPxSceneDesc@physx@@PEAVPxSimulationEventCallback@2@@Z 000000018000ac00 f i PxAutoGeneratedMetaDataObjects.obj
 0001:00009c10       ?setPxSceneDescSolverArticulationBatchSize@@YAXPEAVPxSceneDesc@physx@@I@Z 000000018000ac10 f i PxAutoGeneratedMetaDataObjects.obj
 0001:00009c20       ?setPxSceneDescSolverBatchSize@@YAXPEAVPxSceneDesc@physx@@I@Z 000000018000ac20 f i PxAutoGeneratedMetaDataObjects.obj
 0001:00009c30       ?setPxSceneDescSolverOffsetSlop@@YAXPEAVPxSceneDesc@physx@@M@Z 000000018000ac30 f i PxAutoGeneratedMetaDataObjects.obj
 0001:00009c40       ?setPxSceneDescSolverType@@YAXPEAVPxSceneDesc@physx@@W4Enum@PxSolverType@2@@Z 000000018000ac40 f i PxAutoGeneratedMetaDataObjects.obj
 0001:00009c50       ?setPxSceneDescStaticKineFilteringMode@@YAXPEAVPxSceneDesc@physx@@W4Enum@PxPairFilteringMode@2@@Z 000000018000ac50 f i PxAutoGeneratedMetaDataObjects.obj
 0001:00009c60       ?setPxSceneDescStaticStructure@@YAXPEAVPxSceneDesc@physx@@W4Enum@PxPruningStructureType@2@@Z 000000018000ac60 f i PxAutoGeneratedMetaDataObjects.obj
 0001:00009c70       ?setPxSceneDescUserData@@YAXPEAVPxSceneDesc@physx@@PEAX@Z 000000018000ac70 f i PxAutoGeneratedMetaDataObjects.obj
 0001:00009c80       ?setPxSceneDescWakeCounterResetValue@@YAXPEAVPxSceneDesc@physx@@M@Z 000000018000ac80 f i PxAutoGeneratedMetaDataObjects.obj
 0001:00009c90       ?setPxSceneLimitsMaxNbActors@@YAXPEAVPxSceneLimits@physx@@I@Z 000000018000ac90 f i PxAutoGeneratedMetaDataObjects.obj
 0001:00009ca0       ?setPxSceneLimitsMaxNbAggregates@@YAXPEAVPxSceneLimits@physx@@I@Z 000000018000aca0 f i PxAutoGeneratedMetaDataObjects.obj
 0001:00009cb0       ?setPxSceneLimitsMaxNbBodies@@YAXPEAVPxSceneLimits@physx@@I@Z 000000018000acb0 f i PxAutoGeneratedMetaDataObjects.obj
 0001:00009cc0       ?setPxSceneLimitsMaxNbBroadPhaseOverlaps@@YAXPEAVPxSceneLimits@physx@@I@Z 000000018000acc0 f i PxAutoGeneratedMetaDataObjects.obj
 0001:00009cd0       ?setPxSceneLimitsMaxNbConstraints@@YAXPEAVPxSceneLimits@physx@@I@Z 000000018000acd0 f i PxAutoGeneratedMetaDataObjects.obj
 0001:00009ce0       ?setPxSceneLimitsMaxNbDynamicShapes@@YAXPEAVPxSceneLimits@physx@@I@Z 000000018000ace0 f i PxAutoGeneratedMetaDataObjects.obj
 0001:00009cf0       ?setPxSceneLimitsMaxNbRegions@@YAXPEAVPxSceneLimits@physx@@I@Z 000000018000acf0 f i PxAutoGeneratedMetaDataObjects.obj
 0001:00009d00       ?setPxSceneLimitsMaxNbStaticShapes@@YAXPEAVPxSceneLimits@physx@@I@Z 000000018000ad00 f i PxAutoGeneratedMetaDataObjects.obj
 0001:00009d10       ?setPxSceneUserData@@YAXPEAVPxScene@physx@@PEAX@Z 000000018000ad10 f i PxAutoGeneratedMetaDataObjects.obj
 0001:00009d20       ?setPxShapeUserData@@YAXPEAVPxShape@physx@@PEAX@Z 000000018000ad20 f i PxAutoGeneratedMetaDataObjects.obj
 0001:00009d30       ?setPxSimulationStatisticsCompressedContactSize@@YAXPEAVPxSimulationStatistics@physx@@I@Z 000000018000ad30 f i PxAutoGeneratedMetaDataObjects.obj
 0001:00009d40       ?setPxSimulationStatisticsNbActiveConstraints@@YAXPEAVPxSimulationStatistics@physx@@I@Z 000000018000ad40 f i PxAutoGeneratedMetaDataObjects.obj
 0001:00009d50       ?setPxSimulationStatisticsNbActiveDynamicBodies@@YAXPEAVPxSimulationStatistics@physx@@I@Z 000000018000ad50 f i PxAutoGeneratedMetaDataObjects.obj
 0001:00009d60       ?setPxSimulationStatisticsNbActiveKinematicBodies@@YAXPEAVPxSimulationStatistics@physx@@I@Z 000000018000ad60 f i PxAutoGeneratedMetaDataObjects.obj
 0001:00009d70       ?setPxSimulationStatisticsNbAggregates@@YAXPEAVPxSimulationStatistics@physx@@I@Z 000000018000ad70 f i PxAutoGeneratedMetaDataObjects.obj
 0001:00009d80       ?setPxSimulationStatisticsNbArticulations@@YAXPEAVPxSimulationStatistics@physx@@I@Z 000000018000ad80 f i PxAutoGeneratedMetaDataObjects.obj
 0001:00009d90       ?setPxSimulationStatisticsNbAxisSolverConstraints@@YAXPEAVPxSimulationStatistics@physx@@I@Z 000000018000ad90 f i PxAutoGeneratedMetaDataObjects.obj
 0001:00009da0       ?setPxSimulationStatisticsNbBroadPhaseAdds@@YAXPEAVPxSimulationStatistics@physx@@I@Z 000000018000ada0 f i PxAutoGeneratedMetaDataObjects.obj
 0001:00009db0       ?setPxSimulationStatisticsNbBroadPhaseRemoves@@YAXPEAVPxSimulationStatistics@physx@@I@Z 000000018000adb0 f i PxAutoGeneratedMetaDataObjects.obj
 0001:00009dc0       ?setPxSimulationStatisticsNbDiscreteContactPairsTotal@@YAXPEAVPxSimulationStatistics@physx@@I@Z 000000018000adc0 f i PxAutoGeneratedMetaDataObjects.obj
 0001:00009dd0       ?setPxSimulationStatisticsNbDiscreteContactPairsWithCacheHits@@YAXPEAVPxSimulationStatistics@physx@@I@Z 000000018000add0 f i PxAutoGeneratedMetaDataObjects.obj
 0001:00009de0       ?setPxSimulationStatisticsNbDiscreteContactPairsWithContacts@@YAXPEAVPxSimulationStatistics@physx@@I@Z 000000018000ade0 f i PxAutoGeneratedMetaDataObjects.obj
 0001:00009df0       ?setPxSimulationStatisticsNbDynamicBodies@@YAXPEAVPxSimulationStatistics@physx@@I@Z 000000018000adf0 f i PxAutoGeneratedMetaDataObjects.obj
 0001:00009e00       ?setPxSimulationStatisticsNbKinematicBodies@@YAXPEAVPxSimulationStatistics@physx@@I@Z 000000018000ae00 f i PxAutoGeneratedMetaDataObjects.obj
 0001:00009e10       ?setPxSimulationStatisticsNbLostPairs@@YAXPEAVPxSimulationStatistics@physx@@I@Z 000000018000ae10 f i PxAutoGeneratedMetaDataObjects.obj
 0001:00009e20       ?setPxSimulationStatisticsNbLostTouches@@YAXPEAVPxSimulationStatistics@physx@@I@Z 000000018000ae20 f i PxAutoGeneratedMetaDataObjects.obj
 0001:00009e30       ?setPxSimulationStatisticsNbNewPairs@@YAXPEAVPxSimulationStatistics@physx@@I@Z 000000018000ae30 f i PxAutoGeneratedMetaDataObjects.obj
 0001:00009e40       ?setPxSimulationStatisticsNbNewTouches@@YAXPEAVPxSimulationStatistics@physx@@I@Z 000000018000ae40 f i PxAutoGeneratedMetaDataObjects.obj
 0001:00009e50       ?setPxSimulationStatisticsNbPartitions@@YAXPEAVPxSimulationStatistics@physx@@I@Z 000000018000ae50 f i PxAutoGeneratedMetaDataObjects.obj
 0001:00009e60       ?setPxSimulationStatisticsNbStaticBodies@@YAXPEAVPxSimulationStatistics@physx@@I@Z 000000018000ae60 f i PxAutoGeneratedMetaDataObjects.obj
 0001:00009e70       ?setPxSimulationStatisticsPeakConstraintMemory@@YAXPEAVPxSimulationStatistics@physx@@I@Z 000000018000ae70 f i PxAutoGeneratedMetaDataObjects.obj
 0001:00009e80       ?setPxSimulationStatisticsRequiredContactConstraintMemory@@YAXPEAVPxSimulationStatistics@physx@@I@Z 000000018000ae80 f i PxAutoGeneratedMetaDataObjects.obj
 0001:00009e90       ?setPxSphereGeometryRadius@@YAXPEAVPxSphereGeometry@physx@@M@Z 000000018000ae90 f i PxAutoGeneratedMetaDataObjects.obj
 0001:00009ea0       ?setPxTolerancesScaleLength@@YAXPEAVPxTolerancesScale@physx@@M@Z 000000018000aea0 f i PxAutoGeneratedMetaDataObjects.obj
 0001:00009eb0       ?setPxTolerancesScaleSpeed@@YAXPEAVPxTolerancesScale@physx@@M@Z 000000018000aeb0 f i PxAutoGeneratedMetaDataObjects.obj
 0001:00009ec0       ?setPxTriangleMeshGeometryMeshFlags@@YAXPEAVPxTriangleMeshGeometry@physx@@V?$PxFlags@W4Enum@PxMeshGeometryFlag@physx@@E@2@@Z 000000018000aec0 f i PxAutoGeneratedMetaDataObjects.obj
 0001:00009ed0       ?setPxTriangleMeshGeometryScale@@YAXPEAVPxTriangleMeshGeometry@physx@@VPxMeshScale@2@@Z 000000018000aed0 f i PxAutoGeneratedMetaDataObjects.obj
 0001:00009f00       ?setPxTriangleMeshGeometryTriangleMesh@@YAXPEAVPxTriangleMeshGeometry@physx@@PEAVPxTriangleMesh@2@@Z 000000018000af00 f i PxAutoGeneratedMetaDataObjects.obj
 0001:00009f10       ?setPxgDynamicsMemoryConfigConstraintBufferCapacity@@YAXPEAUPxgDynamicsMemoryConfig@physx@@I@Z 000000018000af10 f i PxAutoGeneratedMetaDataObjects.obj
 0001:00009f20       ?setPxgDynamicsMemoryConfigContactBufferCapacity@@YAXPEAUPxgDynamicsMemoryConfig@physx@@I@Z 000000018000af20 f i PxAutoGeneratedMetaDataObjects.obj
 0001:00009f30       ?setPxgDynamicsMemoryConfigContactStreamSize@@YAXPEAUPxgDynamicsMemoryConfig@physx@@I@Z 000000018000af30 f i PxAutoGeneratedMetaDataObjects.obj
 0001:00009f40       ?setPxgDynamicsMemoryConfigForceStreamCapacity@@YAXPEAUPxgDynamicsMemoryConfig@physx@@I@Z 000000018000af40 f i PxAutoGeneratedMetaDataObjects.obj
 0001:00009f50       ?setPxgDynamicsMemoryConfigFoundLostPairsCapacity@@YAXPEAUPxgDynamicsMemoryConfig@physx@@I@Z 000000018000af50 f i PxAutoGeneratedMetaDataObjects.obj
 0001:00009f60       ?setPxgDynamicsMemoryConfigHeapCapacity@@YAXPEAUPxgDynamicsMemoryConfig@physx@@I@Z 000000018000af60 f i PxAutoGeneratedMetaDataObjects.obj
 0001:00009f70       ?setPxgDynamicsMemoryConfigPatchStreamSize@@YAXPEAUPxgDynamicsMemoryConfig@physx@@I@Z 000000018000af70 f i PxAutoGeneratedMetaDataObjects.obj
 0001:00009f80       ?setPxgDynamicsMemoryConfigTempBufferCapacity@@YAXPEAUPxgDynamicsMemoryConfig@physx@@I@Z 000000018000af80 f i PxAutoGeneratedMetaDataObjects.obj
 0001:00009f90       ?getGeometryType@PxShapeGeometryPropertyHelper@physx@@QEBA?AW4Enum@PxGeometryType@2@PEBVPxShape@2@@Z 000000018000af90 f   PxMetaDataObjects.obj
 0001:00009fa0       ?getGeometry@PxShapeGeometryPropertyHelper@physx@@QEBA_NPEBVPxShape@2@AEAVPxBoxGeometry@2@@Z 000000018000afa0 f   PxMetaDataObjects.obj
 0001:00009fc0       ?getGeometry@PxShapeGeometryPropertyHelper@physx@@QEBA_NPEBVPxShape@2@AEAVPxSphereGeometry@2@@Z 000000018000afc0 f   PxMetaDataObjects.obj
 0001:00009fe0       ?getGeometry@PxShapeGeometryPropertyHelper@physx@@QEBA_NPEBVPxShape@2@AEAVPxCapsuleGeometry@2@@Z 000000018000afe0 f   PxMetaDataObjects.obj
 0001:0000a000       ?getGeometry@PxShapeGeometryPropertyHelper@physx@@QEBA_NPEBVPxShape@2@AEAVPxPlaneGeometry@2@@Z 000000018000b000 f   PxMetaDataObjects.obj
 0001:0000a020       ?getGeometry@PxShapeGeometryPropertyHelper@physx@@QEBA_NPEBVPxShape@2@AEAVPxConvexMeshGeometry@2@@Z 000000018000b020 f   PxMetaDataObjects.obj
 0001:0000a040       ?getGeometry@PxShapeGeometryPropertyHelper@physx@@QEBA_NPEBVPxShape@2@AEAVPxTriangleMeshGeometry@2@@Z 000000018000b040 f   PxMetaDataObjects.obj
 0001:0000a060       ?getGeometry@PxShapeGeometryPropertyHelper@physx@@QEBA_NPEBVPxShape@2@AEAVPxHeightFieldGeometry@2@@Z 000000018000b060 f   PxMetaDataObjects.obj
 0001:0000a080       ?setMaterials@PxShapeMaterialsPropertyHelper@physx@@QEBAXPEAVPxShape@2@PEBQEAVPxMaterial@2@G@Z 000000018000b080 f   PxMetaDataObjects.obj
 0001:0000a0a0       ?createShape@PxRigidActorShapeCollectionHelper@physx@@QEBAPEAVPxShape@2@PEAVPxRigidActor@2@AEBVPxGeometry@2@AEAVPxMaterial@2@V?$PxFlags@W4Enum@PxShapeFlag@physx@@E@2@@Z 000000018000b0a0 f   PxMetaDataObjects.obj
 0001:0000a130       ?createShape@PxRigidActorShapeCollectionHelper@physx@@QEBAPEAVPxShape@2@PEAVPxRigidActor@2@AEBVPxGeometry@2@PEBQEAVPxMaterial@2@GV?$PxFlags@W4Enum@PxShapeFlag@physx@@E@2@@Z 000000018000b130 f   PxMetaDataObjects.obj
 0001:0000a1c0       ?createLink@PxArticulationLinkCollectionPropHelper@physx@@QEBAPEAVPxArticulationLink@2@PEAVPxArticulation@2@PEAV32@AEBVPxTransform@2@@Z 000000018000b1c0 f   PxMetaDataObjects.obj
 0001:0000a1e0       ??0NbShapesProperty@physx@@QEAA@XZ 000000018000b1e0 f   PxMetaDataObjects.obj
 0001:0000a220       ??0NbDiscreteContactPairsProperty@physx@@QEAA@XZ 000000018000b220 f   PxMetaDataObjects.obj
 0001:0000a260       ??0NbModifiedContactPairsProperty@physx@@QEAA@XZ 000000018000b260 f   PxMetaDataObjects.obj
 0001:0000a2a0       ??0NbCCDPairsProperty@physx@@QEAA@XZ 000000018000b2a0 f   PxMetaDataObjects.obj
 0001:0000a2e0       ??0NbTriggerPairsProperty@physx@@QEAA@XZ 000000018000b2e0 f   PxMetaDataObjects.obj
 0001:0000a320       ??0SimulationStatisticsProperty@physx@@QEAA@XZ 000000018000b320 f   PxMetaDataObjects.obj
 0001:0000a340       ??0Allocator@shdfnd@physx@@QEAA@PEBD@Z 000000018000b340 f i PxMetaDataObjects.obj
 0001:0000a350       ??0PxFoundation@physx@@QEAA@AEBV01@@Z 000000018000b350 f i PxMetaDataObjects.obj
 0001:0000a360       ??0PxFoundation@physx@@QEAA@XZ 000000018000b360 f i PxMetaDataObjects.obj
 0001:0000a370       ??1PxFoundation@physx@@MEAA@XZ 000000018000b370 f i PxMetaDataObjects.obj
 0001:0000a380       ??4Allocator@shdfnd@physx@@QEAAAEAV012@$$QEAV012@@Z 000000018000b380 f i PxMetaDataObjects.obj
 0001:0000a390       ??4Allocator@shdfnd@physx@@QEAAAEAV012@AEBV012@@Z 000000018000b390 f i PxMetaDataObjects.obj
 0001:0000a3a0       ??4MutexImpl@shdfnd@physx@@QEAAAEAV012@AEBV012@@Z 000000018000b3a0 f i PxMetaDataObjects.obj
 0001:0000a3b0       ??4PxFoundation@physx@@QEAAAEAV01@AEBV01@@Z 000000018000b3b0 f i PxMetaDataObjects.obj
 0001:0000a3c0       ??_EPxFoundation@physx@@MEAAPEAXI@Z 000000018000b3c0 f i PxMetaDataObjects.obj
 0001:0000a450       ??_FAllocator@shdfnd@physx@@QEAAXXZ 000000018000b450 f i PxMetaDataObjects.obj
 0001:0000a460       ??_GPxFoundation@physx@@MEAAPEAXI@Z 000000018000b460 f i PxMetaDataObjects.obj
 0001:0000a490       ??_I@YAXPEAX_K1P6AX0@Z@Z   000000018000b490 f i PxMetaDataObjects.obj
 0001:0000a4f0       ?GetNbCCDPairs@@YAIPEBVPxSimulationStatistics@physx@@W4Enum@PxGeometryType@2@1@Z 000000018000b4f0 f i PxMetaDataObjects.obj
 0001:0000a510       ?GetNbDiscreteContactPairs@@YAIPEBVPxSimulationStatistics@physx@@W4Enum@PxGeometryType@2@1@Z 000000018000b510 f i PxMetaDataObjects.obj
 0001:0000a530       ?GetNbModifiedContactPairs@@YAIPEBVPxSimulationStatistics@physx@@W4Enum@PxGeometryType@2@1@Z 000000018000b530 f i PxMetaDataObjects.obj
 0001:0000a550       ?GetNbShape@@YAIPEBVPxSimulationStatistics@physx@@W4Enum@PxGeometryType@2@@Z 000000018000b550 f i PxMetaDataObjects.obj
 0001:0000a560       ?GetNbTriggerPairs@@YAIPEBVPxSimulationStatistics@physx@@W4Enum@PxGeometryType@2@1@Z 000000018000b560 f i PxMetaDataObjects.obj
 0001:0000a580       ?GetStats@@YA?AVPxSimulationStatistics@physx@@PEBVPxScene@2@@Z 000000018000b580 f i PxMetaDataObjects.obj
 0001:0000a660       ?SetNbCCDPairs@@YAXPEAVPxSimulationStatistics@physx@@W4Enum@PxGeometryType@2@1I@Z 000000018000b660 f i PxMetaDataObjects.obj
 0001:0000a680       ?SetNbDiscreteContactPairs@@YAXPEAVPxSimulationStatistics@physx@@W4Enum@PxGeometryType@2@1I@Z 000000018000b680 f i PxMetaDataObjects.obj
 0001:0000a6a0       ?SetNbModifiedContactPairs@@YAXPEAVPxSimulationStatistics@physx@@W4Enum@PxGeometryType@2@1I@Z 000000018000b6a0 f i PxMetaDataObjects.obj
 0001:0000a6c0       ?SetNbShape@@YAXPEAVPxSimulationStatistics@physx@@W4Enum@PxGeometryType@2@I@Z 000000018000b6c0 f i PxMetaDataObjects.obj
 0001:0000a6d0       ?SetNbTriggerPairs@@YAXPEAVPxSimulationStatistics@physx@@W4Enum@PxGeometryType@2@1I@Z 000000018000b6d0 f i PxMetaDataObjects.obj
 0001:0000a6f0       ?__empty_global_delete@@YAXPEAX@Z 000000018000b6f0 f i PxMetaDataObjects.obj
 0001:0000a700       ?__global_delete@@YAXPEAX_K@Z 000000018000b700 f i PxMetaDataObjects.obj
 0001:0000a700       ?__global_array_delete@@YAXPEAX_K@Z 000000018000b700 f i PxMetaDataObjects.obj
 0001:0000a700       ?__empty_global_delete@@YAXPEAX_K@Z 000000018000b700 f i PxMetaDataObjects.obj
 0001:0000a710       ?getAllocator@Foundation@shdfnd@physx@@QEAAAEAVPxAllocatorCallback@3@XZ 000000018000b710 f i PxMetaDataObjects.obj
 0001:0000a720       ?getAllocatorCallback@Foundation@shdfnd@physx@@UEAAAEAVPxAllocatorCallback@3@XZ 000000018000b720 f i PxMetaDataObjects.obj
 0001:0000a730       ?getErrorCallback@Foundation@shdfnd@physx@@UEAAAEAVPxErrorCallback@3@XZ 000000018000b730 f i PxMetaDataObjects.obj
 0001:0000a740       ?getErrorLevel@Foundation@shdfnd@physx@@UEBA?AW4Enum@PxErrorCode@3@XZ 000000018000b740 f i PxMetaDataObjects.obj
 0001:0000a750       ?getInternalErrorCallback@Foundation@shdfnd@physx@@QEAAAEAVPxErrorCallback@3@XZ 000000018000b750 f i PxMetaDataObjects.obj
 0001:0000a760       ?getNamedAllocMap@Foundation@shdfnd@physx@@QEAAAEAV?$HashMap@PEBVNamedAllocator@shdfnd@physx@@PEBDU?$Hash@PEBVNamedAllocator@shdfnd@physx@@@23@VNonTrackingAllocator@23@@23@XZ 000000018000b760 f i PxMetaDataObjects.obj
 0001:0000a770       ?getNamedAllocMutex@Foundation@shdfnd@physx@@QEAAAEAV?$MutexT@VAllocator@shdfnd@physx@@@23@XZ 000000018000b770 f i PxMetaDataObjects.obj
 0001:0000a780       ?getReportAllocationNames@Foundation@shdfnd@physx@@UEBA_NXZ 000000018000b780 f i PxMetaDataObjects.obj
 0001:0000a790       ?getTempAllocFreeTable@Foundation@shdfnd@physx@@QEAAAEAV?$Array@PEATTempAllocatorChunk@shdfnd@physx@@VAllocator@23@@23@XZ 000000018000b790 f i PxMetaDataObjects.obj
 0001:0000a7a0       ?getTempAllocMutex@Foundation@shdfnd@physx@@QEAAAEAV?$MutexT@VAllocator@shdfnd@physx@@@23@XZ 000000018000b7a0 f i PxMetaDataObjects.obj
 0001:0000a7b0       ?setErrorLevel@Foundation@shdfnd@physx@@UEAAXW4Enum@PxErrorCode@3@@Z 000000018000b7b0 f i PxMetaDataObjects.obj
 0001:0000a7c0       ?setReportAllocationNames@Foundation@shdfnd@physx@@UEAAX_N@Z 000000018000b7c0 f i PxMetaDataObjects.obj
 0001:0000a7d0       ?exportExtraData@NpActor@physx@@QEAAXAEAVPxSerializationContext@2@@Z 000000018000b7d0 f   NpActor.obj
 0001:0000a980       ?importExtraData@NpActor@physx@@QEAAXAEAVPxDeserializationContext@2@@Z 000000018000b980 f   NpActor.obj
 0001:0000aa20       ?resolveReferences@NpActor@physx@@QEAAXAEAVPxDeserializationContext@2@@Z 000000018000ba20 f   NpActor.obj
 0001:0000aab0       ??0NpActor@physx@@QEAA@PEBD@Z 000000018000bab0 f   NpActor.obj
 0001:0000aad0       ?releaseConstraints@NpActor@physx@@QEAAXAEAVPxRigidActor@2@@Z 000000018000bad0 f   NpActor.obj
 0001:0000abf0       ?release@NpActor@physx@@QEAAXAEAVPxActor@2@@Z 000000018000bbf0 f   NpActor.obj
 0001:0000ac10       ?getNpAggregate@NpActor@physx@@QEBAPEAVNpAggregate@2@AEAI@Z 000000018000bc10 f   NpActor.obj
 0001:0000ac60       ?setAggregate@NpActor@physx@@QEAAXPEAVNpAggregate@2@AEAVPxActor@2@@Z 000000018000bc60 f   NpActor.obj
 0001:0000ae10       ?getAggregate@NpActor@physx@@QEBAPEAVPxAggregate@2@XZ 000000018000be10 f   NpActor.obj
 0001:0000ae60       ?removeConstraintsFromScene@NpActor@physx@@QEAAXXZ 000000018000be60 f   NpActor.obj
 0001:0000af10       ?findConnector@NpActor@physx@@QEBAIW4Enum@NpConnectorType@2@PEAVPxBase@2@@Z 000000018000bf10 f   NpActor.obj
 0001:0000af60       ?addConnector@NpActor@physx@@QEAAXW4Enum@NpConnectorType@2@PEAVPxBase@2@PEBD@Z 000000018000bf60 f   NpActor.obj
 0001:0000b0c0       ?removeConnector@NpActor@physx@@QEAAXAEAVPxActor@2@W4Enum@NpConnectorType@2@PEAVPxBase@2@PEBD@Z 000000018000c0c0 f   NpActor.obj
 0001:0000b170       ?getNbConnectors@NpActor@physx@@QEBAIW4Enum@NpConnectorType@2@@Z 000000018000c170 f   NpActor.obj
 0001:0000b1b0       ?getShapeManager@NpActor@physx@@SAPEAVNpShapeManager@2@AEAVPxRigidActor@2@@Z 000000018000c1b0 f   NpActor.obj
 0001:0000b1e0       ?getShapeManager@NpActor@physx@@SAPEBVNpShapeManager@2@AEBVPxRigidActor@2@@Z 000000018000c1e0 f   NpActor.obj
 0001:0000b210       ?getGlobalPose@NpActor@physx@@SAXAEAVPxTransform@2@AEBVNpShape@2@AEBVPxRigidActor@2@@Z 000000018000c210 f   NpActor.obj
 0001:0000b240       ?getGlobalPose@NpActor@physx@@SAXAEAVPxTransform@2@AEBVShape@Scb@2@AEBVActor@52@@Z 000000018000c240 f   NpActor.obj
 0001:0000b720       ?getAPIScene@NpActor@physx@@SAPEAVNpScene@2@AEBVPxActor@2@@Z 000000018000c720 f   NpActor.obj
 0001:0000b760       ?getOwnerScene@NpActor@physx@@SAPEAVNpScene@2@AEBVPxActor@2@@Z 000000018000c760 f   NpActor.obj
 0001:0000b790       ?onActorRelease@NpActor@physx@@SAXPEAVPxActor@2@@Z 000000018000c790 f   NpActor.obj
 0001:0000b7b0       ??1NpActor@physx@@IEAA@XZ  000000018000c7b0 f   NpActor.obj
 0001:0000b7c0       ?addConstraintsToSceneInternal@NpActor@physx@@AEAAXXZ 000000018000c7c0 f   NpActor.obj
 0001:0000b890       ?removeConnector@NpActor@physx@@AEAAXAEAVPxActor@2@I@Z 000000018000c890 f   NpActor.obj
 0001:0000b8f0       ??0Offsets@NpActor@physx@@QEAA@XZ 000000018000c8f0 f   NpActor.obj
 0001:0000b9e0       ??$exportArray@VNpConnector@physx@@V?$InlineAllocator@$0EA@V?$ReflectionAllocator@VNpConnector@physx@@@shdfnd@physx@@@shdfnd@2@@Cm@physx@@YAXAEBV?$Array@VNpConnector@physx@@V?$InlineAllocator@$0EA@V?$ReflectionAllocator@VNpConnector@physx@@@shdfnd@physx@@@shdfnd@2@@shdfnd@1@AEAVPxSerializationContext@1@@Z 000000018000c9e0 f i NpActor.obj
 0001:0000ba10       ??$exportInlineArray@VNpConnector@physx@@$03V?$ReflectionAllocator@VNpConnector@physx@@@shdfnd@2@@Cm@physx@@YAXAEBV?$InlineArray@VNpConnector@physx@@$03V?$ReflectionAllocator@VNpConnector@physx@@@shdfnd@2@@shdfnd@1@AEAVPxSerializationContext@1@@Z 000000018000ca10 f i NpActor.obj
 0001:0000ba50       ??$importArray@VNpConnector@physx@@V?$InlineAllocator@$0EA@V?$ReflectionAllocator@VNpConnector@physx@@@shdfnd@physx@@@shdfnd@2@@Cm@physx@@YAXAEAV?$Array@VNpConnector@physx@@V?$InlineAllocator@$0EA@V?$ReflectionAllocator@VNpConnector@physx@@@shdfnd@physx@@@shdfnd@2@@shdfnd@1@AEAVPxDeserializationContext@1@@Z 000000018000ca50 f i NpActor.obj
 0001:0000ba90       ??$importInlineArray@VNpConnector@physx@@$03V?$ReflectionAllocator@VNpConnector@physx@@@shdfnd@2@@Cm@physx@@YAXAEAV?$InlineArray@VNpConnector@physx@@$03V?$ReflectionAllocator@VNpConnector@physx@@@shdfnd@2@@shdfnd@1@AEAVPxDeserializationContext@1@@Z 000000018000ca90 f i NpActor.obj
 0001:0000bad0       ??$pointerOffset@PEBVActor@Scb@physx@@@shdfnd@physx@@YAPEBVActor@Scb@1@PEBX_J@Z 000000018000cad0 f i NpActor.obj
 0001:0000bae0       ??0PxTransform@physx@@QEAA@XZ 000000018000cae0 f i NpActor.obj
 0001:0000baf0       ??0PxVec3@physx@@QEAA@XZ   000000018000caf0 f i NpActor.obj
 0001:0000bb00       ??4FPUGuard@shdfnd@physx@@QEAAAEAV012@AEBV012@@Z 000000018000cb00 f i NpActor.obj
 0001:0000bb20       ??4SyncImpl@shdfnd@physx@@QEAAAEAV012@AEBV012@@Z 000000018000cb20 f i NpActor.obj
 0001:0000bb30       ??4ThreadImpl@shdfnd@physx@@QEAAAEAV012@AEBV012@@Z 000000018000cb30 f i NpActor.obj
 0001:0000bb40       ?allocate@?$Array@VNpConnector@physx@@V?$InlineAllocator@$0EA@V?$ReflectionAllocator@VNpConnector@physx@@@shdfnd@physx@@@shdfnd@2@@shdfnd@physx@@IEAAPEAVNpConnector@3@I@Z 000000018000cb40 f i NpActor.obj
 0001:0000bc00       ?create@?$HashBase@PEAVPxConstraint@physx@@PEAV12@U?$Hash@PEAVPxConstraint@physx@@@shdfnd@2@UGetKey@?$HashSetBase@PEAVPxConstraint@physx@@U?$Hash@PEAVPxConstraint@physx@@@shdfnd@2@VNonTrackingAllocator@42@$00@internal@42@VNonTrackingAllocator@42@$00@internal@shdfnd@physx@@QEAAPEAPEAVPxConstraint@4@AEBQEAV54@AEA_N@Z 000000018000cc00 f i NpActor.obj
 0001:0000bda0       ?erase@?$HashBase@PEAVPxConstraint@physx@@PEAV12@U?$Hash@PEAVPxConstraint@physx@@@shdfnd@2@UGetKey@?$HashSetBase@PEAVPxConstraint@physx@@U?$Hash@PEAVPxConstraint@physx@@@shdfnd@2@VNonTrackingAllocator@42@$00@internal@42@VNonTrackingAllocator@42@$00@internal@shdfnd@physx@@QEAA_NAEBQEAVPxConstraint@4@@Z 000000018000cda0 f i NpActor.obj
 0001:0000bf10       ?growAndPushBack@?$Array@VNpConnector@physx@@V?$InlineAllocator@$0EA@V?$ReflectionAllocator@VNpConnector@physx@@@shdfnd@physx@@@shdfnd@2@@shdfnd@physx@@IEAAAEAVNpConnector@3@AEBV43@@Z 000000018000cf10 f i NpActor.obj
 0001:0000bff0       ?recreate@?$Array@VNpConnector@physx@@V?$InlineAllocator@$0EA@V?$ReflectionAllocator@VNpConnector@physx@@@shdfnd@physx@@@shdfnd@2@@shdfnd@physx@@IEAAXI@Z 000000018000cff0 f i NpActor.obj
 0001:0000c0a0       ?reserveInternal@?$HashBase@PEAVPxConstraint@physx@@PEAV12@U?$Hash@PEAVPxConstraint@physx@@@shdfnd@2@UGetKey@?$HashSetBase@PEAVPxConstraint@physx@@U?$Hash@PEAVPxConstraint@physx@@@shdfnd@2@VNonTrackingAllocator@42@$00@internal@42@VNonTrackingAllocator@42@$00@internal@shdfnd@physx@@AEAAXI@Z 000000018000d0a0 f i NpActor.obj
 0001:0000c270       ?resizeUninitialized@?$Array@VNpConnector@physx@@V?$InlineAllocator@$0EA@V?$ReflectionAllocator@VNpConnector@physx@@@shdfnd@physx@@@shdfnd@2@@shdfnd@physx@@QEAAXI@Z 000000018000d270 f i NpActor.obj
 0001:0000c2b0       ?preExportDataReset@NpAggregate@physx@@QEAAXXZ 000000018000d2b0 f   NpAggregate.obj
 0001:0000c2c0       ?exportExtraData@NpAggregate@physx@@UEAAXAEAVPxSerializationContext@2@@Z 000000018000d2c0 f   NpAggregate.obj
 0001:0000c310       ?importExtraData@NpAggregate@physx@@QEAAXAEAVPxDeserializationContext@2@@Z 000000018000d310 f   NpAggregate.obj
 0001:0000c340       ?resolveReferences@NpAggregate@physx@@QEAAXAEAVPxDeserializationContext@2@@Z 000000018000d340 f   NpAggregate.obj
 0001:0000c450       ?requiresObjects@NpAggregate@physx@@UEAAXAEAVPxProcessPxBaseCallback@2@@Z 000000018000d450 f   NpAggregate.obj
 0001:0000c4c0       ?createObject@NpAggregate@physx@@SAPEAV12@AEAPEAEAEAVPxDeserializationContext@2@@Z 000000018000d4c0 f   NpAggregate.obj
 0001:0000c630       ??0NpAggregate@physx@@QEAA@I_N@Z 000000018000d630 f   NpAggregate.obj
 0001:0000c6e0       ??1NpAggregate@physx@@UEAA@XZ 000000018000d6e0 f   NpAggregate.obj
 0001:0000c760       ?release@NpAggregate@physx@@UEAAXXZ 000000018000d760 f   NpAggregate.obj
 0001:0000c8e0       ?addActor@NpAggregate@physx@@UEAA_NAEAVPxActor@2@PEBVPxBVHStructure@2@@Z 000000018000d8e0 f   NpAggregate.obj
 0001:0000cb00       ?removeActor@NpAggregate@physx@@UEAA_NAEAVPxActor@2@@Z 000000018000db00 f   NpAggregate.obj
 0001:0000cd20       ?addArticulation@NpAggregate@physx@@UEAA_NAEAVPxArticulationBase@2@@Z 000000018000dd20 f   NpAggregate.obj
 0001:0000cf00       ?removeArticulation@NpAggregate@physx@@UEAA_NAEAVPxArticulationBase@2@@Z 000000018000df00 f   NpAggregate.obj
 0001:0000d060       ?getNbActors@NpAggregate@physx@@UEBAIXZ 000000018000e060 f   NpAggregate.obj
 0001:0000d070       ?getMaxNbActors@NpAggregate@physx@@UEBAIXZ 000000018000e070 f   NpAggregate.obj
 0001:0000d080       ?getActors@NpAggregate@physx@@UEBAIPEAPEAVPxActor@2@II@Z 000000018000e080 f   NpAggregate.obj
 0001:0000d0d0       ?getScene@NpAggregate@physx@@UEAAPEAVPxScene@2@XZ 000000018000e0d0 f   NpAggregate.obj
 0001:0000d110       ?getSelfCollision@NpAggregate@physx@@UEBA_NXZ 000000018000e110 f   NpAggregate.obj
 0001:0000d120       ?getAPIScene@NpAggregate@physx@@QEBAPEAVNpScene@2@XZ 000000018000e120 f   NpAggregate.obj
 0001:0000d160       ?getOwnerScene@NpAggregate@physx@@QEBAPEAVNpScene@2@XZ 000000018000e160 f   NpAggregate.obj
 0001:0000d180       ?addActorInternal@NpAggregate@physx@@QEAAXAEAVPxActor@2@AEAVNpScene@2@PEBVPxBVHStructure@2@@Z 000000018000e180 f   NpAggregate.obj
 0001:0000d270       ?removeAndReinsert@NpAggregate@physx@@QEAAXAEAVPxActor@2@_N@Z 000000018000e270 f   NpAggregate.obj
 0001:0000d2e0       ?removeActorAndReinsert@NpAggregate@physx@@QEAA_NAEAVPxActor@2@_N@Z 000000018000e2e0 f   NpAggregate.obj
 0001:0000d3c0       ?removeArticulationAndReinsert@NpAggregate@physx@@QEAA_NAEAVPxArticulationBase@2@_N@Z 000000018000e3c0 f   NpAggregate.obj
 0001:0000d500       ??$pointerOffset@PEAVActor@Scb@physx@@@shdfnd@physx@@YAPEAVActor@Scb@1@PEAX_J@Z 000000018000e500 f i NpAggregate.obj
 0001:0000d510       ??$pointerOffset@PEAVNpActor@physx@@@shdfnd@physx@@YAPEAVNpActor@1@PEAX_J@Z 000000018000e510 f i NpAggregate.obj
 0001:0000d520       ??1PxAggregate@physx@@MEAA@XZ 000000018000e520 f i NpAggregate.obj
 0001:0000d530       ??1PxBase@physx@@MEAA@XZ   000000018000e530 f i NpAggregate.obj
 0001:0000d540       ??_ENpAggregate@physx@@UEAAPEAXI@Z 000000018000e540 f i NpAggregate.obj
 0001:0000d540       ??_GNpAggregate@physx@@UEAAPEAXI@Z 000000018000e540 f i NpAggregate.obj
 0001:0000d5f0       ??_GPxAggregate@physx@@MEAAPEAXI@Z 000000018000e5f0 f i NpAggregate.obj
 0001:0000d5f0       ??_EPxAggregate@physx@@MEAAPEAXI@Z 000000018000e5f0 f i NpAggregate.obj
 0001:0000d620       ??_EPxBase@physx@@MEAAPEAXI@Z 000000018000e620 f i NpAggregate.obj
 0001:0000d620       ??_GPxBase@physx@@MEAAPEAXI@Z 000000018000e620 f i NpAggregate.obj
 0001:0000d650       ?erase@?$HashBase@PEAVPxAggregate@physx@@PEAV12@U?$Hash@PEAVPxAggregate@physx@@@shdfnd@2@UGetKey@?$HashSetBase@PEAVPxAggregate@physx@@U?$Hash@PEAVPxAggregate@physx@@@shdfnd@2@VNonTrackingAllocator@42@$00@internal@42@VNonTrackingAllocator@42@$00@internal@shdfnd@physx@@QEAA_NAEBQEAVPxAggregate@4@@Z 000000018000e650 f i NpAggregate.obj
 0001:0000d7c0       ?getConcreteTypeName@PxAggregate@physx@@UEBAPEBDXZ 000000018000e7c0 f i NpAggregate.obj
 0001:0000d7d0       ?isKindOf@PxAggregate@physx@@MEBA_NPEBD@Z 000000018000e7d0 f i NpAggregate.obj
 0001:0000d820       ?isKindOf@PxBase@physx@@MEBA_NPEBD@Z 000000018000e820 f i NpAggregate.obj
 0001:0000d850       ?isReleasable@PxBase@physx@@UEBA_NXZ 000000018000e850 f i NpAggregate.obj
 0001:0000d860       ?recomputeLinkIDs@PxArticulationImpl@physx@@QEAAXXZ 000000018000e860 f   NpArticulationReducedCoordinate.obj
 0001:0000d910       ??1NpArticulationReducedCoordinate@physx@@UEAA@XZ 000000018000e910 f   NpArticulationReducedCoordinate.obj
 0001:0000d9b0       ?preExportDataReset@NpArticulationReducedCoordinate@physx@@QEAAXXZ 000000018000e9b0 f   NpArticulationReducedCoordinate.obj
 0001:0000d9e0       ?createObject@NpArticulationReducedCoordinate@physx@@SAPEAV12@AEAPEAEAEAVPxDeserializationContext@2@@Z 000000018000e9e0 f   NpArticulationReducedCoordinate.obj
 0001:0000db80       ?setArticulationFlags@NpArticulationReducedCoordinate@physx@@UEAAXV?$PxFlags@W4Enum@PxArticulationFlag@physx@@E@2@@Z 000000018000eb80 f   NpArticulationReducedCoordinate.obj
 0001:0000dbf0       ?setArticulationFlag@NpArticulationReducedCoordinate@physx@@UEAAXW4Enum@PxArticulationFlag@2@_N@Z 000000018000ebf0 f   NpArticulationReducedCoordinate.obj
 0001:0000dc60       ?getArticulationFlags@NpArticulationReducedCoordinate@physx@@UEBA?AV?$PxFlags@W4Enum@PxArticulationFlag@physx@@E@2@XZ 000000018000ec60 f   NpArticulationReducedCoordinate.obj
 0001:0000dc70       ?getDofs@NpArticulationReducedCoordinate@physx@@UEBAIXZ 000000018000ec70 f   NpArticulationReducedCoordinate.obj
 0001:0000dc80       ?createCache@NpArticulationReducedCoordinate@physx@@UEBAPEAVPxArticulationCache@2@XZ 000000018000ec80 f   NpArticulationReducedCoordinate.obj
 0001:0000dcb0       ?getCacheDataSize@NpArticulationReducedCoordinate@physx@@UEBAIXZ 000000018000ecb0 f   NpArticulationReducedCoordinate.obj
 0001:0000dcc0       ?zeroCache@NpArticulationReducedCoordinate@physx@@UEAAXAEAVPxArticulationCache@2@@Z 000000018000ecc0 f   NpArticulationReducedCoordinate.obj
 0001:0000dcd0       ?applyCache@NpArticulationReducedCoordinate@physx@@UEAAXAEAVPxArticulationCache@2@V?$PxFlags@W4Enum@PxArticulationCache@physx@@E@2@_N@Z 000000018000ecd0 f   NpArticulationReducedCoordinate.obj
 0001:0000e040       ?copyInternalStateToCache@NpArticulationReducedCoordinate@physx@@UEBAXAEAVPxArticulationCache@2@V?$PxFlags@W4Enum@PxArticulationCache@physx@@E@2@@Z 000000018000f040 f   NpArticulationReducedCoordinate.obj
 0001:0000e070       ?releaseCache@NpArticulationReducedCoordinate@physx@@UEBAXAEAVPxArticulationCache@2@@Z 000000018000f070 f   NpArticulationReducedCoordinate.obj
 0001:0000e080       ?packJointData@NpArticulationReducedCoordinate@physx@@UEBAXPEBMPEAM@Z 000000018000f080 f   NpArticulationReducedCoordinate.obj
 0001:0000e090       ?unpackJointData@NpArticulationReducedCoordinate@physx@@UEBAXPEBMPEAM@Z 000000018000f090 f   NpArticulationReducedCoordinate.obj
 0001:0000e0a0       ?commonInit@NpArticulationReducedCoordinate@physx@@UEBAXXZ 000000018000f0a0 f   NpArticulationReducedCoordinate.obj
 0001:0000e0b0       ?computeGeneralizedGravityForce@NpArticulationReducedCoordinate@physx@@UEBAXAEAVPxArticulationCache@2@@Z 000000018000f0b0 f   NpArticulationReducedCoordinate.obj
 0001:0000e0c0       ?computeCoriolisAndCentrifugalForce@NpArticulationReducedCoordinate@physx@@UEBAXAEAVPxArticulationCache@2@@Z 000000018000f0c0 f   NpArticulationReducedCoordinate.obj
 0001:0000e0d0       ?computeGeneralizedExternalForce@NpArticulationReducedCoordinate@physx@@UEBAXAEAVPxArticulationCache@2@@Z 000000018000f0d0 f   NpArticulationReducedCoordinate.obj
 0001:0000e0e0       ?computeJointAcceleration@NpArticulationReducedCoordinate@physx@@UEBAXAEAVPxArticulationCache@2@@Z 000000018000f0e0 f   NpArticulationReducedCoordinate.obj
 0001:0000e0f0       ?computeJointForce@NpArticulationReducedCoordinate@physx@@UEBAXAEAVPxArticulationCache@2@@Z 000000018000f0f0 f   NpArticulationReducedCoordinate.obj
 0001:0000e100       ?computeDenseJacobian@NpArticulationReducedCoordinate@physx@@UEBAXAEAVPxArticulationCache@2@AEAI1@Z 000000018000f100 f   NpArticulationReducedCoordinate.obj
 0001:0000e110       ?computeCoefficientMatrix@NpArticulationReducedCoordinate@physx@@UEBAXAEAVPxArticulationCache@2@@Z 000000018000f110 f   NpArticulationReducedCoordinate.obj
 0001:0000e180       ?computeLambda@NpArticulationReducedCoordinate@physx@@UEBA_NAEAVPxArticulationCache@2@0QEBMI@Z 000000018000f180 f   NpArticulationReducedCoordinate.obj
 0001:0000e280       ?computeGeneralizedMassMatrix@NpArticulationReducedCoordinate@physx@@UEBAXAEAVPxArticulationCache@2@@Z 000000018000f280 f   NpArticulationReducedCoordinate.obj
 0001:0000e290       ?addLoopJoint@NpArticulationReducedCoordinate@physx@@UEAAXPEAVPxJoint@2@@Z 000000018000f290 f   NpArticulationReducedCoordinate.obj
 0001:0000e340       ?removeLoopJoint@NpArticulationReducedCoordinate@physx@@UEAAXPEAVPxJoint@2@@Z 000000018000f340 f   NpArticulationReducedCoordinate.obj
 0001:0000e3c0       ?getNbLoopJoints@NpArticulationReducedCoordinate@physx@@UEBAIXZ 000000018000f3c0 f   NpArticulationReducedCoordinate.obj
 0001:0000e3d0       ?getLoopJoints@NpArticulationReducedCoordinate@physx@@UEBAIPEAPEAVPxJoint@2@II@Z 000000018000f3d0 f   NpArticulationReducedCoordinate.obj
 0001:0000e430       ?getCoefficientMatrixSize@NpArticulationReducedCoordinate@physx@@UEBAIXZ 000000018000f430 f   NpArticulationReducedCoordinate.obj
 0001:0000e440       ?teleportRootLink@NpArticulationReducedCoordinate@physx@@UEAAXAEBVPxTransform@2@_N@Z 000000018000f440 f   NpArticulationReducedCoordinate.obj
 0001:0000e460       ?getLinkVelocity@NpArticulationReducedCoordinate@physx@@UEAA?AUPxSpatialVelocity@2@I@Z 000000018000f460 f   NpArticulationReducedCoordinate.obj
 0001:0000e490       ?getLinkAcceleration@NpArticulationReducedCoordinate@physx@@UEAA?AUPxSpatialVelocity@2@I@Z 000000018000f490 f   NpArticulationReducedCoordinate.obj
 0001:0000e4c0       ??0NpArticulationReducedCoordinate@physx@@QEAA@XZ 000000018000f4c0 f   NpArticulationReducedCoordinate.obj
 0001:0000e570       ?createArticulationJoint@NpArticulationReducedCoordinate@physx@@UEAAPEAVPxArticulationJointBase@2@AEAVPxArticulationLink@2@AEBVPxTransform@2@01@Z 000000018000f570 f   NpArticulationReducedCoordinate.obj
 0001:0000e590       ?releaseArticulationJoint@NpArticulationReducedCoordinate@physx@@UEAAXPEAVPxArticulationJointBase@2@@Z 000000018000f590 f   NpArticulationReducedCoordinate.obj
 0001:0000e5a0       ??$exportArray@PEAVNpArticulationLink@physx@@V?$InlineAllocator@$0CA@V?$ReflectionAllocator@PEAVNpArticulationLink@physx@@@shdfnd@physx@@@shdfnd@2@@Cm@physx@@YAXAEBV?$Array@PEAVNpArticulationLink@physx@@V?$InlineAllocator@$0CA@V?$ReflectionAllocator@PEAVNpArticulationLink@physx@@@shdfnd@physx@@@shdfnd@2@@shdfnd@1@AEAVPxSerializationContext@1@@Z 000000018000f5a0 f i NpArticulationReducedCoordinate.obj
 0001:0000e5d0       ??$exportInlineArray@PEAVNpArticulationLink@physx@@$03V?$ReflectionAllocator@PEAVNpArticulationLink@physx@@@shdfnd@2@@Cm@physx@@YAXAEBV?$InlineArray@PEAVNpArticulationLink@physx@@$03V?$ReflectionAllocator@PEAVNpArticulationLink@physx@@@shdfnd@2@@shdfnd@1@AEAVPxSerializationContext@1@@Z 000000018000f5d0 f i NpArticulationReducedCoordinate.obj
 0001:0000e610       ??$importArray@PEAVNpArticulationLink@physx@@V?$InlineAllocator@$0CA@V?$ReflectionAllocator@PEAVNpArticulationLink@physx@@@shdfnd@physx@@@shdfnd@2@@Cm@physx@@YAXAEAV?$Array@PEAVNpArticulationLink@physx@@V?$InlineAllocator@$0CA@V?$ReflectionAllocator@PEAVNpArticulationLink@physx@@@shdfnd@physx@@@shdfnd@2@@shdfnd@1@AEAVPxDeserializationContext@1@@Z 000000018000f610 f i NpArticulationReducedCoordinate.obj
 0001:0000e650       ??$importInlineArray@PEAVNpArticulationLink@physx@@$03V?$ReflectionAllocator@PEAVNpArticulationLink@physx@@@shdfnd@2@@Cm@physx@@YAXAEAV?$InlineArray@PEAVNpArticulationLink@physx@@$03V?$ReflectionAllocator@PEAVNpArticulationLink@physx@@@shdfnd@2@@shdfnd@1@AEAVPxDeserializationContext@1@@Z 000000018000f650 f i NpArticulationReducedCoordinate.obj
 0001:0000e690       ??1?$NpArticulationTemplate@VPxArticulationReducedCoordinate@physx@@@physx@@UEAA@XZ 000000018000f690 f i NpArticulationReducedCoordinate.obj
 0001:0000e6d0       ??1PxArticulationBase@physx@@UEAA@XZ 000000018000f6d0 f i NpArticulationReducedCoordinate.obj
 0001:0000e6e0       ??1PxArticulationImpl@physx@@QEAA@XZ 000000018000f6e0 f i NpArticulationReducedCoordinate.obj
 0001:0000e750       ??1PxArticulationReducedCoordinate@physx@@MEAA@XZ 000000018000f750 f i NpArticulationReducedCoordinate.obj
 0001:0000e760       ??_G?$NpArticulationTemplate@VPxArticulationReducedCoordinate@physx@@@physx@@UEAAPEAXI@Z 000000018000f760 f i NpArticulationReducedCoordinate.obj
 0001:0000e760       ??_E?$NpArticulationTemplate@VPxArticulationReducedCoordinate@physx@@@physx@@UEAAPEAXI@Z 000000018000f760 f i NpArticulationReducedCoordinate.obj
 0001:0000e7f0       ??_ENpArticulationReducedCoordinate@physx@@UEAAPEAXI@Z 000000018000f7f0 f i NpArticulationReducedCoordinate.obj
 0001:0000e7f0       ??_GNpArticulationReducedCoordinate@physx@@UEAAPEAXI@Z 000000018000f7f0 f i NpArticulationReducedCoordinate.obj
 0001:0000e8d0       ??_EPxArticulationBase@physx@@UEAAPEAXI@Z 000000018000f8d0 f i NpArticulationReducedCoordinate.obj
 0001:0000e8d0       ??_GPxArticulationBase@physx@@UEAAPEAXI@Z 000000018000f8d0 f i NpArticulationReducedCoordinate.obj
 0001:0000e900       ??_GPxArticulationReducedCoordinate@physx@@MEAAPEAXI@Z 000000018000f900 f i NpArticulationReducedCoordinate.obj
 0001:0000e900       ??_EPxArticulationReducedCoordinate@physx@@MEAAPEAXI@Z 000000018000f900 f i NpArticulationReducedCoordinate.obj
 0001:0000e930       ?allocate@?$Array@PEAVNpArticulationLink@physx@@V?$InlineAllocator@$0CA@V?$ReflectionAllocator@PEAVNpArticulationLink@physx@@@shdfnd@physx@@@shdfnd@2@@shdfnd@physx@@IEAAPEAPEAVNpArticulationLink@3@I@Z 000000018000f930 f i NpArticulationReducedCoordinate.obj
 0001:0000e9f0       ?allocate@?$Array@PEAVPxJoint@physx@@V?$ReflectionAllocator@PEAVPxJoint@physx@@@shdfnd@2@@shdfnd@physx@@IEAAPEAPEAVPxJoint@3@I@Z 000000018000f9f0 f i NpArticulationReducedCoordinate.obj
 0001:0000ea90       ?createLink@?$NpArticulationTemplate@VPxArticulationReducedCoordinate@physx@@@physx@@UEAAPEAVPxArticulationLink@2@PEAV32@AEBVPxTransform@2@@Z 000000018000fa90 f i NpArticulationReducedCoordinate.obj
 0001:0000ec90       ?erase@?$HashBase@PEAVPxArticulationBase@physx@@PEAV12@U?$Hash@PEAVPxArticulationBase@physx@@@shdfnd@2@UGetKey@?$HashSetBase@PEAVPxArticulationBase@physx@@U?$Hash@PEAVPxArticulationBase@physx@@@shdfnd@2@VNonTrackingAllocator@42@$00@internal@42@VNonTrackingAllocator@42@$00@internal@shdfnd@physx@@QEAA_NAEBQEAVPxArticulationBase@4@@Z 000000018000fc90 f i NpArticulationReducedCoordinate.obj
 0001:0000ee00       ?exportExtraData@?$NpArticulationTemplate@VPxArticulationReducedCoordinate@physx@@@physx@@UEAAXAEAVPxSerializationContext@2@@Z 000000018000fe00 f i NpArticulationReducedCoordinate.obj
 0001:0000ee70       ?getAggregate@?$NpArticulationTemplate@VPxArticulationReducedCoordinate@physx@@@physx@@UEBAPEAVPxAggregate@2@XZ 000000018000fe70 f i NpArticulationReducedCoordinate.obj
 0001:0000ee80       ?getConcreteTypeName@NpArticulationReducedCoordinate@physx@@UEBAPEBDXZ 000000018000fe80 f i NpArticulationReducedCoordinate.obj
 0001:0000ee90       ?getImpl@?$NpArticulationTemplate@VPxArticulationReducedCoordinate@physx@@@physx@@UEAAPEAVPxArticulationImpl@2@XZ 000000018000fe90 f i NpArticulationReducedCoordinate.obj
 0001:0000eea0       ?getImpl@?$NpArticulationTemplate@VPxArticulationReducedCoordinate@physx@@@physx@@UEBAPEBVPxArticulationImpl@2@XZ 000000018000fea0 f i NpArticulationReducedCoordinate.obj
 0001:0000eeb0       ?getLinks@?$NpArticulationTemplate@VPxArticulationReducedCoordinate@physx@@@physx@@UEBAIPEAPEAVPxArticulationLink@2@II@Z 000000018000feb0 f i NpArticulationReducedCoordinate.obj
 0001:0000ef10       ?getName@?$NpArticulationTemplate@VPxArticulationReducedCoordinate@physx@@@physx@@UEBAPEBDXZ 000000018000ff10 f i NpArticulationReducedCoordinate.obj
 0001:0000ef20       ?getNbLinks@?$NpArticulationTemplate@VPxArticulationReducedCoordinate@physx@@@physx@@UEBAIXZ 000000018000ff20 f i NpArticulationReducedCoordinate.obj
 0001:0000ef30       ?getScene@?$NpArticulationTemplate@VPxArticulationReducedCoordinate@physx@@@physx@@UEBAPEAVPxScene@2@XZ 000000018000ff30 f i NpArticulationReducedCoordinate.obj
 0001:0000ef60       ?getSleepThreshold@?$NpArticulationTemplate@VPxArticulationReducedCoordinate@physx@@@physx@@UEBAMXZ 000000018000ff60 f i NpArticulationReducedCoordinate.obj
 0001:0000ef80       ?getSolverIterationCounts@?$NpArticulationTemplate@VPxArticulationReducedCoordinate@physx@@@physx@@UEBAXAEAI0@Z 000000018000ff80 f i NpArticulationReducedCoordinate.obj
 0001:0000efc0       ?getStabilizationThreshold@?$NpArticulationTemplate@VPxArticulationReducedCoordinate@physx@@@physx@@UEBAMXZ 000000018000ffc0 f i NpArticulationReducedCoordinate.obj
 0001:0000efe0       ?getWakeCounter@?$NpArticulationTemplate@VPxArticulationReducedCoordinate@physx@@@physx@@UEBAMXZ 000000018000ffe0 f i NpArticulationReducedCoordinate.obj
 0001:0000eff0       ?getWorldBounds@?$NpArticulationTemplate@VPxArticulationReducedCoordinate@physx@@@physx@@UEBA?AVPxBounds3@2@M@Z 000000018000fff0 f i NpArticulationReducedCoordinate.obj
 0001:0000f1d0       ?growAndPushBack@?$Array@PEAVNpArticulationLink@physx@@V?$InlineAllocator@$0CA@V?$ReflectionAllocator@PEAVNpArticulationLink@physx@@@shdfnd@physx@@@shdfnd@2@@shdfnd@physx@@IEAAAEAPEAVNpArticulationLink@3@AEBQEAV43@@Z 00000001800101d0 f i NpArticulationReducedCoordinate.obj
 0001:0000f2a0       ?growAndPushBack@?$Array@PEAVPxJoint@physx@@V?$ReflectionAllocator@PEAVPxJoint@physx@@@shdfnd@2@@shdfnd@physx@@IEAAAEAPEAVPxJoint@3@AEBQEAV43@@Z 00000001800102a0 f i NpArticulationReducedCoordinate.obj
 0001:0000f360       ?importExtraData@?$NpArticulationTemplate@VPxArticulationReducedCoordinate@physx@@@physx@@QEAAXAEAVPxDeserializationContext@2@@Z 0000000180010360 f i NpArticulationReducedCoordinate.obj
 0001:0000f3d0       ?isKindOf@NpArticulationReducedCoordinate@physx@@UEBA_NPEBD@Z 00000001800103d0 f i NpArticulationReducedCoordinate.obj
 0001:0000f420       ?isSleeping@?$NpArticulationTemplate@VPxArticulationReducedCoordinate@physx@@@physx@@UEBA_NXZ 0000000180010420 f i NpArticulationReducedCoordinate.obj
 0001:0000f430       ?putToSleep@?$NpArticulationTemplate@VPxArticulationReducedCoordinate@physx@@@physx@@UEAAXXZ 0000000180010430 f i NpArticulationReducedCoordinate.obj
 0001:0000f440       ?putToSleep@PxArticulationImpl@physx@@QEAAXXZ 0000000180010440 f i NpArticulationReducedCoordinate.obj
 0001:0000f660       ?recreate@?$Array@PEAVPxJoint@physx@@V?$ReflectionAllocator@PEAVPxJoint@physx@@@shdfnd@2@@shdfnd@physx@@IEAAXI@Z 0000000180010660 f i NpArticulationReducedCoordinate.obj
 0001:0000f700       ?release@?$NpArticulationTemplate@VPxArticulationReducedCoordinate@physx@@@physx@@UEAAXXZ 0000000180010700 f i NpArticulationReducedCoordinate.obj
 0001:0000f800       ?requiresObjects@?$NpArticulationTemplate@VPxArticulationReducedCoordinate@physx@@@physx@@UEAAXAEAVPxProcessPxBaseCallback@2@@Z 0000000180010800 f i NpArticulationReducedCoordinate.obj
 0001:0000f870       ?resolveReferences@?$NpArticulationTemplate@VPxArticulationReducedCoordinate@physx@@@physx@@QEAAXAEAVPxDeserializationContext@2@@Z 0000000180010870 f i NpArticulationReducedCoordinate.obj
 0001:0000f940       ?setName@?$NpArticulationTemplate@VPxArticulationReducedCoordinate@physx@@@physx@@UEAAXPEBD@Z 0000000180010940 f i NpArticulationReducedCoordinate.obj
 0001:0000f950       ?setSleepThreshold@?$NpArticulationTemplate@VPxArticulationReducedCoordinate@physx@@@physx@@UEAAXM@Z 0000000180010950 f i NpArticulationReducedCoordinate.obj
 0001:0000f9e0       ?setSolverIterationCounts@?$NpArticulationTemplate@VPxArticulationReducedCoordinate@physx@@@physx@@UEAAXII@Z 00000001800109e0 f i NpArticulationReducedCoordinate.obj
 0001:0000fa80       ?setStabilizationThreshold@?$NpArticulationTemplate@VPxArticulationReducedCoordinate@physx@@@physx@@UEAAXM@Z 0000000180010a80 f i NpArticulationReducedCoordinate.obj
 0001:0000fb10       ?setWakeCounter@?$NpArticulationTemplate@VPxArticulationReducedCoordinate@physx@@@physx@@UEAAXM@Z 0000000180010b10 f i NpArticulationReducedCoordinate.obj
 0001:0000fb20       ?setWakeCounter@PxArticulationImpl@physx@@QEAAXM@Z 0000000180010b20 f i NpArticulationReducedCoordinate.obj
 0001:0000fcf0       ?wakeUp@?$NpArticulationTemplate@VPxArticulationReducedCoordinate@physx@@@physx@@UEAAXXZ 0000000180010cf0 f i NpArticulationReducedCoordinate.obj
 0001:0000fe60       ?wakeUpInternal@PxArticulationImpl@physx@@QEAAX_N0@Z 0000000180010e60 f i NpArticulationReducedCoordinate.obj
 0001:0000fff0       ?NpArticulationGetRootFromScb@physx@@YAPEAVBody@Scb@1@AEAVArticulation@31@@Z 0000000180010ff0 f   NpArticulation.obj
 0001:00010030       ?NpSetArticulationOnJoint@physx@@YAXAEAVPxArticulationJointBase@1@AEAVPxArticulationImpl@1@@Z 0000000180011030 f   NpArticulation.obj
 0001:00010060       ??1NpArticulation@physx@@UEAA@XZ 0000000180011060 f   NpArticulation.obj
 0001:000100c0       ?createObject@NpArticulation@physx@@SAPEAV12@AEAPEAEAEAVPxDeserializationContext@2@@Z 00000001800110c0 f   NpArticulation.obj
 0001:00010250       ?getInternalDriveIterations@NpArticulation@physx@@UEBAIXZ 0000000180011250 f   NpArticulation.obj
 0001:00010270       ?setInternalDriveIterations@NpArticulation@physx@@UEAAXI@Z 0000000180011270 f   NpArticulation.obj
 0001:00010300       ?getExternalDriveIterations@NpArticulation@physx@@UEBAIXZ 0000000180011300 f   NpArticulation.obj
 0001:00010320       ?setExternalDriveIterations@NpArticulation@physx@@UEAAXI@Z 0000000180011320 f   NpArticulation.obj
 0001:000103b0       ?getMaxProjectionIterations@NpArticulation@physx@@UEBAIXZ 00000001800113b0 f   NpArticulation.obj
 0001:000103d0       ?setMaxProjectionIterations@NpArticulation@physx@@UEAAXI@Z 00000001800113d0 f   NpArticulation.obj
 0001:00010460       ?getSeparationTolerance@NpArticulation@physx@@UEBAMXZ 0000000180011460 f   NpArticulation.obj
 0001:00010480       ?setSeparationTolerance@NpArticulation@physx@@UEAAXM@Z 0000000180011480 f   NpArticulation.obj
 0001:00010520       ?createDriveCache@NpArticulation@physx@@UEBAPEAVPxArticulationDriveCache@2@MI@Z 0000000180011520 f   NpArticulation.obj
 0001:00010530       ?updateDriveCache@NpArticulation@physx@@UEBAXAEAVPxArticulationDriveCache@2@MI@Z 0000000180011530 f   NpArticulation.obj
 0001:00010540       ?releaseDriveCache@NpArticulation@physx@@UEBAXAEAVPxArticulationDriveCache@2@@Z 0000000180011540 f   NpArticulation.obj
 0001:00010550       ?applyImpulse@NpArticulation@physx@@UEAAXPEAVPxArticulationLink@2@AEBVPxArticulationDriveCache@2@AEBVPxVec3@2@2@Z 0000000180011550 f   NpArticulation.obj
 0001:00010670       ?computeImpulseResponse@NpArticulation@physx@@UEBAXPEAVPxArticulationLink@2@AEAVPxVec3@2@1AEBVPxArticulationDriveCache@2@AEBV42@3@Z 0000000180011670 f   NpArticulation.obj
 0001:00010690       ??0NpArticulation@physx@@QEAA@XZ 0000000180011690 f   NpArticulation.obj
 0001:00010730       ?createArticulationJoint@NpArticulation@physx@@EEAAPEAVPxArticulationJointBase@2@AEAVPxArticulationLink@2@AEBVPxTransform@2@01@Z 0000000180011730 f   NpArticulation.obj
 0001:00010750       ?releaseArticulationJoint@NpArticulation@physx@@EEAAXPEAVPxArticulationJointBase@2@@Z 0000000180011750 f   NpArticulation.obj
 0001:00010760       ??1?$NpArticulationTemplate@VPxArticulation@physx@@@physx@@UEAA@XZ 0000000180011760 f i NpArticulation.obj
 0001:000107a0       ??1PxArticulation@physx@@MEAA@XZ 00000001800117a0 f i NpArticulation.obj
 0001:000107b0       ??_G?$NpArticulationTemplate@VPxArticulation@physx@@@physx@@UEAAPEAXI@Z 00000001800117b0 f i NpArticulation.obj
 0001:000107b0       ??_E?$NpArticulationTemplate@VPxArticulation@physx@@@physx@@UEAAPEAXI@Z 00000001800117b0 f i NpArticulation.obj
 0001:00010840       ??_ENpArticulation@physx@@UEAAPEAXI@Z 0000000180011840 f i NpArticulation.obj
 0001:00010840       ??_GNpArticulation@physx@@UEAAPEAXI@Z 0000000180011840 f i NpArticulation.obj
 0001:000108e0       ??_EPxArticulation@physx@@MEAAPEAXI@Z 00000001800118e0 f i NpArticulation.obj
 0001:000108e0       ??_GPxArticulation@physx@@MEAAPEAXI@Z 00000001800118e0 f i NpArticulation.obj
 0001:00010910       ?createLink@?$NpArticulationTemplate@VPxArticulation@physx@@@physx@@UEAAPEAVPxArticulationLink@2@PEAV32@AEBVPxTransform@2@@Z 0000000180011910 f i NpArticulation.obj
 0001:00010b10       ?exportExtraData@?$NpArticulationTemplate@VPxArticulation@physx@@@physx@@UEAAXAEAVPxSerializationContext@2@@Z 0000000180011b10 f i NpArticulation.obj
 0001:00010b80       ?getAggregate@?$NpArticulationTemplate@VPxArticulation@physx@@@physx@@UEBAPEAVPxAggregate@2@XZ 0000000180011b80 f i NpArticulation.obj
 0001:00010b90       ?getConcreteTypeName@NpArticulation@physx@@UEBAPEBDXZ 0000000180011b90 f i NpArticulation.obj
 0001:00010ba0       ?getImpl@?$NpArticulationTemplate@VPxArticulation@physx@@@physx@@UEAAPEAVPxArticulationImpl@2@XZ 0000000180011ba0 f i NpArticulation.obj
 0001:00010bb0       ?getImpl@?$NpArticulationTemplate@VPxArticulation@physx@@@physx@@UEBAPEBVPxArticulationImpl@2@XZ 0000000180011bb0 f i NpArticulation.obj
 0001:00010bc0       ?getLinks@?$NpArticulationTemplate@VPxArticulation@physx@@@physx@@UEBAIPEAPEAVPxArticulationLink@2@II@Z 0000000180011bc0 f i NpArticulation.obj
 0001:00010c20       ?getName@?$NpArticulationTemplate@VPxArticulation@physx@@@physx@@UEBAPEBDXZ 0000000180011c20 f i NpArticulation.obj
 0001:00010c30       ?getNbLinks@?$NpArticulationTemplate@VPxArticulation@physx@@@physx@@UEBAIXZ 0000000180011c30 f i NpArticulation.obj
 0001:00010c40       ?getScene@?$NpArticulationTemplate@VPxArticulation@physx@@@physx@@UEBAPEAVPxScene@2@XZ 0000000180011c40 f i NpArticulation.obj
 0001:00010c70       ?getSleepThreshold@?$NpArticulationTemplate@VPxArticulation@physx@@@physx@@UEBAMXZ 0000000180011c70 f i NpArticulation.obj
 0001:00010c90       ?getSolverIterationCounts@?$NpArticulationTemplate@VPxArticulation@physx@@@physx@@UEBAXAEAI0@Z 0000000180011c90 f i NpArticulation.obj
 0001:00010cd0       ?getStabilizationThreshold@?$NpArticulationTemplate@VPxArticulation@physx@@@physx@@UEBAMXZ 0000000180011cd0 f i NpArticulation.obj
 0001:00010cf0       ?getWakeCounter@?$NpArticulationTemplate@VPxArticulation@physx@@@physx@@UEBAMXZ 0000000180011cf0 f i NpArticulation.obj
 0001:00010d00       ?getWorldBounds@?$NpArticulationTemplate@VPxArticulation@physx@@@physx@@UEBA?AVPxBounds3@2@M@Z 0000000180011d00 f i NpArticulation.obj
 0001:00010ee0       ?importExtraData@?$NpArticulationTemplate@VPxArticulation@physx@@@physx@@QEAAXAEAVPxDeserializationContext@2@@Z 0000000180011ee0 f i NpArticulation.obj
 0001:00010f50       ?isKindOf@NpArticulation@physx@@UEBA_NPEBD@Z 0000000180011f50 f i NpArticulation.obj
 0001:00010fa0       ?isSleeping@?$NpArticulationTemplate@VPxArticulation@physx@@@physx@@UEBA_NXZ 0000000180011fa0 f i NpArticulation.obj
 0001:00010fb0       ?putToSleep@?$NpArticulationTemplate@VPxArticulation@physx@@@physx@@UEAAXXZ 0000000180011fb0 f i NpArticulation.obj
 0001:00010fc0       ?release@?$NpArticulationTemplate@VPxArticulation@physx@@@physx@@UEAAXXZ 0000000180011fc0 f i NpArticulation.obj
 0001:000110c0       ?requiresObjects@?$NpArticulationTemplate@VPxArticulation@physx@@@physx@@UEAAXAEAVPxProcessPxBaseCallback@2@@Z 00000001800120c0 f i NpArticulation.obj
 0001:00011130       ?resolveReferences@?$NpArticulationTemplate@VPxArticulation@physx@@@physx@@QEAAXAEAVPxDeserializationContext@2@@Z 0000000180012130 f i NpArticulation.obj
 0001:00011200       ?setName@?$NpArticulationTemplate@VPxArticulation@physx@@@physx@@UEAAXPEBD@Z 0000000180012200 f i NpArticulation.obj
 0001:00011210       ?setSleepThreshold@?$NpArticulationTemplate@VPxArticulation@physx@@@physx@@UEAAXM@Z 0000000180012210 f i NpArticulation.obj
 0001:000112a0       ?setSolverIterationCounts@?$NpArticulationTemplate@VPxArticulation@physx@@@physx@@UEAAXII@Z 00000001800122a0 f i NpArticulation.obj
 0001:00011340       ?setStabilizationThreshold@?$NpArticulationTemplate@VPxArticulation@physx@@@physx@@UEAAXM@Z 0000000180012340 f i NpArticulation.obj
 0001:000113d0       ?setWakeCounter@?$NpArticulationTemplate@VPxArticulation@physx@@@physx@@UEAAXM@Z 00000001800123d0 f i NpArticulation.obj
 0001:000113e0       ?wakeUp@?$NpArticulationTemplate@VPxArticulation@physx@@@physx@@UEAAXXZ 00000001800123e0 f i NpArticulation.obj
 0001:000113f0       ?wakeUp@PxArticulationImpl@physx@@QEAAXXZ 00000001800123f0 f i NpArticulation.obj
 0001:00011550       ?NpArticulationJointGetBodiesFromScb@physx@@YAXAEAVArticulationJoint@Scb@1@AEAPEAVBody@31@1@Z 0000000180012550 f   NpArticulationJoint.obj
 0001:00011580       ?resolveReferences@NpArticulationJoint@physx@@UEAAXAEAVPxDeserializationContext@2@@Z 0000000180012580 f   NpArticulationJoint.obj
 0001:000115f0       ?createObject@NpArticulationJoint@physx@@SAPEAV12@AEAPEAEAEAVPxDeserializationContext@2@@Z 00000001800125f0 f   NpArticulationJoint.obj
 0001:00011680       ??0NpArticulationJoint@physx@@QEAA@AEAVNpArticulationLink@1@AEBVPxTransform@1@01@Z 0000000180012680 f   NpArticulationJoint.obj
 0001:00011730       ??1NpArticulationJoint@physx@@UEAA@XZ 0000000180012730 f   NpArticulationJoint.obj
 0001:00011770       ?setTargetOrientation@NpArticulationJoint@physx@@UEAAXAEBVPxQuat@2@@Z 0000000180012770 f   NpArticulationJoint.obj
 0001:00011820       ?getTargetOrientation@NpArticulationJoint@physx@@UEBA?AVPxQuat@2@XZ 0000000180012820 f   NpArticulationJoint.obj
 0001:00011860       ?setTargetVelocity@NpArticulationJoint@physx@@UEAAXAEBVPxVec3@2@@Z 0000000180012860 f   NpArticulationJoint.obj
 0001:00011910       ?getTargetVelocity@NpArticulationJoint@physx@@UEBA?AVPxVec3@2@XZ 0000000180012910 f   NpArticulationJoint.obj
 0001:00011960       ?setDriveType@NpArticulationJoint@physx@@UEAAXW4Enum@PxArticulationJointDriveType@2@@Z 0000000180012960 f   NpArticulationJoint.obj
 0001:00011a00       ?getDriveType@NpArticulationJoint@physx@@UEBA?AW4Enum@PxArticulationJointDriveType@2@XZ 0000000180012a00 f   NpArticulationJoint.obj
 0001:00011a30       ?setStiffness@NpArticulationJoint@physx@@UEAAXM@Z 0000000180012a30 f   NpArticulationJoint.obj
 0001:00011ad0       ?getStiffness@NpArticulationJoint@physx@@UEBAMXZ 0000000180012ad0 f   NpArticulationJoint.obj
 0001:00011af0       ?setDamping@NpArticulationJoint@physx@@UEAAXM@Z 0000000180012af0 f   NpArticulationJoint.obj
 0001:00011b90       ?getDamping@NpArticulationJoint@physx@@UEBAMXZ 0000000180012b90 f   NpArticulationJoint.obj
 0001:00011bb0       ?setInternalCompliance@NpArticulationJoint@physx@@UEAAXM@Z 0000000180012bb0 f   NpArticulationJoint.obj
 0001:00011c50       ?getInternalCompliance@NpArticulationJoint@physx@@UEBAMXZ 0000000180012c50 f   NpArticulationJoint.obj
 0001:00011c80       ?setExternalCompliance@NpArticulationJoint@physx@@UEAAXM@Z 0000000180012c80 f   NpArticulationJoint.obj
 0001:00011d20       ?getExternalCompliance@NpArticulationJoint@physx@@UEBAMXZ 0000000180012d20 f   NpArticulationJoint.obj
 0001:00011d50       ?setSwingLimit@NpArticulationJoint@physx@@UEAAXMM@Z 0000000180012d50 f   NpArticulationJoint.obj
 0001:00011e10       ?getSwingLimit@NpArticulationJoint@physx@@UEBAXAEAM0@Z 0000000180012e10 f   NpArticulationJoint.obj
 0001:00011e50       ?setTangentialStiffness@NpArticulationJoint@physx@@UEAAXM@Z 0000000180012e50 f   NpArticulationJoint.obj
 0001:00011ef0       ?getTangentialStiffness@NpArticulationJoint@physx@@UEBAMXZ 0000000180012ef0 f   NpArticulationJoint.obj
 0001:00011f20       ?setTangentialDamping@NpArticulationJoint@physx@@UEAAXM@Z 0000000180012f20 f   NpArticulationJoint.obj
 0001:00011fc0       ?getTangentialDamping@NpArticulationJoint@physx@@UEBAMXZ 0000000180012fc0 f   NpArticulationJoint.obj
 0001:00011ff0       ?setSwingLimitEnabled@NpArticulationJoint@physx@@UEAAX_N@Z 0000000180012ff0 f   NpArticulationJoint.obj
 0001:00012090       ?getSwingLimitEnabled@NpArticulationJoint@physx@@UEBA_NXZ 0000000180013090 f   NpArticulationJoint.obj
 0001:000120b0       ?setSwingLimitContactDistance@NpArticulationJoint@physx@@UEAAXM@Z 00000001800130b0 f   NpArticulationJoint.obj
 0001:00012150       ?getSwingLimitContactDistance@NpArticulationJoint@physx@@UEBAMXZ 0000000180013150 f   NpArticulationJoint.obj
 0001:00012180       ?setTwistLimit@NpArticulationJoint@physx@@UEAAXMM@Z 0000000180013180 f   NpArticulationJoint.obj
 0001:00012240       ?getTwistLimit@NpArticulationJoint@physx@@UEBAXAEAM0@Z 0000000180013240 f   NpArticulationJoint.obj
 0001:00012280       ?setTwistLimitEnabled@NpArticulationJoint@physx@@UEAAX_N@Z 0000000180013280 f   NpArticulationJoint.obj
 0001:00012320       ?getTwistLimitEnabled@NpArticulationJoint@physx@@UEBA_NXZ 0000000180013320 f   NpArticulationJoint.obj
 0001:00012350       ?setTwistLimitContactDistance@NpArticulationJoint@physx@@UEAAXM@Z 0000000180013350 f   NpArticulationJoint.obj
 0001:000123f0       ?getTwistLimitContactDistance@NpArticulationJoint@physx@@UEBAMXZ 00000001800133f0 f   NpArticulationJoint.obj
 0001:00012420       ?setJointType@NpArticulationJoint@physx@@UEAAXW4Enum@PxArticulationJointType@2@@Z 0000000180013420 f   NpArticulationJoint.obj
 0001:000124c0       ?getJointType@NpArticulationJoint@physx@@UEBA?AW4Enum@PxArticulationJointType@2@XZ 00000001800134c0 f   NpArticulationJoint.obj
 0001:000124f0       ?setMotion@NpArticulationJoint@physx@@UEAAXW4Enum@PxArticulationAxis@2@W43PxArticulationMotion@2@@Z 00000001800134f0 f   NpArticulationJoint.obj
 0001:00012610       ?getMotion@NpArticulationJoint@physx@@UEBA?AW4Enum@PxArticulationMotion@2@W43PxArticulationAxis@2@@Z 0000000180013610 f   NpArticulationJoint.obj
 0001:00012640       ?setFrictionCoefficient@NpArticulationJoint@physx@@UEAAXM@Z 0000000180013640 f   NpArticulationJoint.obj
 0001:000126e0       ?getFrictionCoefficient@NpArticulationJoint@physx@@UEBAMXZ 00000001800136e0 f   NpArticulationJoint.obj
 0001:00012700       ??0?$NpArticulationJointTemplate@VPxArticulationJoint@physx@@@physx@@QEAA@GAEAVNpArticulationLink@1@AEBVPxTransform@1@01@Z 0000000180013700 f i NpArticulationJoint.obj
 0001:000127b0       ??1?$NpArticulationJointTemplate@VPxArticulationJoint@physx@@@physx@@UEAA@XZ 00000001800137b0 f i NpArticulationJoint.obj
 0001:000127e0       ??1PxArticulationJoint@physx@@MEAA@XZ 00000001800137e0 f i NpArticulationJoint.obj
 0001:000127f0       ??1PxArticulationJointBase@physx@@UEAA@XZ 00000001800137f0 f i NpArticulationJoint.obj
 0001:00012800       ??DPxQuat@physx@@QEBA?AV01@AEBV01@@Z 0000000180013800 f i NpArticulationJoint.obj
 0001:00012940       ??_G?$NpArticulationJointTemplate@VPxArticulationJoint@physx@@@physx@@UEAAPEAXI@Z 0000000180013940 f i NpArticulationJoint.obj
 0001:00012940       ??_E?$NpArticulationJointTemplate@VPxArticulationJoint@physx@@@physx@@UEAAPEAXI@Z 0000000180013940 f i NpArticulationJoint.obj
 0001:000129c0       ??_ENpArticulationJoint@physx@@UEAAPEAXI@Z 00000001800139c0 f i NpArticulationJoint.obj
 0001:000129c0       ??_GNpArticulationJoint@physx@@UEAAPEAXI@Z 00000001800139c0 f i NpArticulationJoint.obj
 0001:00012a40       ??_GPxArticulationJoint@physx@@MEAAPEAXI@Z 0000000180013a40 f i NpArticulationJoint.obj
 0001:00012a40       ??_EPxArticulationJoint@physx@@MEAAPEAXI@Z 0000000180013a40 f i NpArticulationJoint.obj
 0001:00012a70       ??_EPxArticulationJointBase@physx@@UEAAPEAXI@Z 0000000180013a70 f i NpArticulationJoint.obj
 0001:00012a70       ??_GPxArticulationJointBase@physx@@UEAAPEAXI@Z 0000000180013a70 f i NpArticulationJoint.obj
 0001:00012aa0       ?getChildArticulationLink@?$NpArticulationJointTemplate@VPxArticulationJoint@physx@@@physx@@UEBAAEAVPxArticulationLink@2@XZ 0000000180013aa0 f i NpArticulationJoint.obj
 0001:00012ab0       ?getChildPose@?$NpArticulationJointTemplate@VPxArticulationJoint@physx@@@physx@@UEBA?AVPxTransform@2@XZ 0000000180013ab0 f i NpArticulationJoint.obj
 0001:00012ad0       ?getChildPose@PxArticulationJointImpl@physx@@QEBA?AVPxTransform@2@XZ 0000000180013ad0 f i NpArticulationJoint.obj
 0001:00012cc0       ?getConcreteTypeName@PxArticulationJoint@physx@@UEBAPEBDXZ 0000000180013cc0 f i NpArticulationJoint.obj
 0001:00012cd0       ?getImpl@?$NpArticulationJointTemplate@VPxArticulationJoint@physx@@@physx@@UEAAPEAVPxArticulationJointImpl@2@XZ 0000000180013cd0 f i NpArticulationJoint.obj
 0001:00012ce0       ?getImpl@?$NpArticulationJointTemplate@VPxArticulationJoint@physx@@@physx@@UEBAPEBVPxArticulationJointImpl@2@XZ 0000000180013ce0 f i NpArticulationJoint.obj
 0001:00012cf0       ?getParentArticulationLink@?$NpArticulationJointTemplate@VPxArticulationJoint@physx@@@physx@@UEBAAEAVPxArticulationLink@2@XZ 0000000180013cf0 f i NpArticulationJoint.obj
 0001:00012d00       ?getParentPose@?$NpArticulationJointTemplate@VPxArticulationJoint@physx@@@physx@@UEBA?AVPxTransform@2@XZ 0000000180013d00 f i NpArticulationJoint.obj
 0001:00012d20       ?getParentPose@PxArticulationJointImpl@physx@@QEBA?AVPxTransform@2@XZ 0000000180013d20 f i NpArticulationJoint.obj
 0001:00012f00       ?isKindOf@PxArticulationJoint@physx@@MEBA_NPEBD@Z 0000000180013f00 f i NpArticulationJoint.obj
 0001:00012f70       ?isKindOf@PxArticulationJointBase@physx@@MEBA_NPEBD@Z 0000000180013f70 f i NpArticulationJoint.obj
 0001:00012fc0       ?isSubordinate@NpArticulationJoint@physx@@UEBA_NXZ 0000000180013fc0 f i NpArticulationJoint.obj
 0001:00012fd0       ?release@?$NpArticulationJointTemplate@VPxArticulationJoint@physx@@@physx@@UEAAXXZ 0000000180013fd0 f i NpArticulationJoint.obj
 0001:00013030       ?requiresObjects@NpArticulationJoint@physx@@UEAAXAEAVPxProcessPxBaseCallback@2@@Z 0000000180014030 f i NpArticulationJoint.obj
 0001:00013040       ?resolveReferences@PxArticulationJointImpl@physx@@QEAAXAEAVPxDeserializationContext@2@AEAVPxArticulationJointBase@2@@Z 0000000180014040 f i NpArticulationJoint.obj
 0001:000130b0       ?setChildPose@?$NpArticulationJointTemplate@VPxArticulationJoint@physx@@@physx@@UEAAXAEBVPxTransform@2@@Z 00000001800140b0 f i NpArticulationJoint.obj
 0001:000130c0       ?setChildPose@PxArticulationJointImpl@physx@@QEAAXAEBVPxTransform@2@@Z 00000001800140c0 f i NpArticulationJoint.obj
 0001:00013420       ?setParentPose@?$NpArticulationJointTemplate@VPxArticulationJoint@physx@@@physx@@UEAAXAEBVPxTransform@2@@Z 0000000180014420 f i NpArticulationJoint.obj
 0001:00013430       ?setParentPose@PxArticulationJointImpl@physx@@QEAAXAEBVPxTransform@2@@Z 0000000180014430 f i NpArticulationJoint.obj
 0001:000137d0       ?resolveReferences@NpArticulationJointReducedCoordinate@physx@@UEAAXAEAVPxDeserializationContext@2@@Z 00000001800147d0 f   NpArticulationJointReducedCoordinate.obj
 0001:00013840       ?createObject@NpArticulationJointReducedCoordinate@physx@@SAPEAV12@AEAPEAEAEAVPxDeserializationContext@2@@Z 0000000180014840 f   NpArticulationJointReducedCoordinate.obj
 0001:000138d0       ??0NpArticulationJointReducedCoordinate@physx@@QEAA@AEAVNpArticulationLink@1@AEBVPxTransform@1@01@Z 00000001800148d0 f   NpArticulationJointReducedCoordinate.obj
 0001:00013980       ??1NpArticulationJointReducedCoordinate@physx@@UEAA@XZ 0000000180014980 f   NpArticulationJointReducedCoordinate.obj
 0001:000139c0       ?setJointType@NpArticulationJointReducedCoordinate@physx@@UEAAXW4Enum@PxArticulationJointType@2@@Z 00000001800149c0 f   NpArticulationJointReducedCoordinate.obj
 0001:00013a60       ?getJointType@NpArticulationJointReducedCoordinate@physx@@UEBA?AW4Enum@PxArticulationJointType@2@XZ 0000000180014a60 f   NpArticulationJointReducedCoordinate.obj
 0001:00013a90       ?setMotion@NpArticulationJointReducedCoordinate@physx@@UEAAXW4Enum@PxArticulationAxis@2@W43PxArticulationMotion@2@@Z 0000000180014a90 f   NpArticulationJointReducedCoordinate.obj
 0001:00013bb0       ?getMotion@NpArticulationJointReducedCoordinate@physx@@UEBA?AW4Enum@PxArticulationMotion@2@W43PxArticulationAxis@2@@Z 0000000180014bb0 f   NpArticulationJointReducedCoordinate.obj
 0001:00013be0       ?setFrictionCoefficient@NpArticulationJointReducedCoordinate@physx@@UEAAXM@Z 0000000180014be0 f   NpArticulationJointReducedCoordinate.obj
 0001:00013c80       ?getFrictionCoefficient@NpArticulationJointReducedCoordinate@physx@@UEBAMXZ 0000000180014c80 f   NpArticulationJointReducedCoordinate.obj
 0001:00013ca0       ?setMaxJointVelocity@NpArticulationJointReducedCoordinate@physx@@UEAAXM@Z 0000000180014ca0 f   NpArticulationJointReducedCoordinate.obj
 0001:00013d40       ?getMaxJointVelocity@NpArticulationJointReducedCoordinate@physx@@UEBAMXZ 0000000180014d40 f   NpArticulationJointReducedCoordinate.obj
 0001:00013d60       ?setLimit@NpArticulationJointReducedCoordinate@physx@@UEAAXW4Enum@PxArticulationAxis@2@MM@Z 0000000180014d60 f   NpArticulationJointReducedCoordinate.obj
 0001:00013ef0       ?getLimit@NpArticulationJointReducedCoordinate@physx@@UEAAXW4Enum@PxArticulationAxis@2@AEAM1@Z 0000000180014ef0 f   NpArticulationJointReducedCoordinate.obj
 0001:00013f40       ?setDrive@NpArticulationJointReducedCoordinate@physx@@UEAAXW4Enum@PxArticulationAxis@2@MMMW43PxArticulationDriveType@2@@Z 0000000180014f40 f   NpArticulationJointReducedCoordinate.obj
 0001:00013f50       ?getDrive@NpArticulationJointReducedCoordinate@physx@@UEAAXW4Enum@PxArticulationAxis@2@AEAM11AEAW43PxArticulationDriveType@2@@Z 0000000180014f50 f   NpArticulationJointReducedCoordinate.obj
 0001:00013ff0       ?setDriveTarget@NpArticulationJointReducedCoordinate@physx@@UEAAXW4Enum@PxArticulationAxis@2@M@Z 0000000180014ff0 f   NpArticulationJointReducedCoordinate.obj
 0001:00014170       ?getDriveTarget@NpArticulationJointReducedCoordinate@physx@@UEAAMW4Enum@PxArticulationAxis@2@@Z 0000000180015170 f   NpArticulationJointReducedCoordinate.obj
 0001:000141a0       ?setDriveVelocity@NpArticulationJointReducedCoordinate@physx@@UEAAXW4Enum@PxArticulationAxis@2@M@Z 00000001800151a0 f   NpArticulationJointReducedCoordinate.obj
 0001:00014320       ?getDriveVelocity@NpArticulationJointReducedCoordinate@physx@@UEAAMW4Enum@PxArticulationAxis@2@@Z 0000000180015320 f   NpArticulationJointReducedCoordinate.obj
 0001:00014350       ??0?$NpArticulationJointTemplate@VPxArticulationJointReducedCoordinate@physx@@@physx@@QEAA@GAEAVNpArticulationLink@1@AEBVPxTransform@1@01@Z 0000000180015350 f i NpArticulationJointReducedCoordinate.obj
 0001:00014400       ??1?$NpArticulationJointTemplate@VPxArticulationJointReducedCoordinate@physx@@@physx@@UEAA@XZ 0000000180015400 f i NpArticulationJointReducedCoordinate.obj
 0001:00014430       ??1PxArticulationJointReducedCoordinate@physx@@MEAA@XZ 0000000180015430 f i NpArticulationJointReducedCoordinate.obj
 0001:00014440       ??_G?$NpArticulationJointTemplate@VPxArticulationJointReducedCoordinate@physx@@@physx@@UEAAPEAXI@Z 0000000180015440 f i NpArticulationJointReducedCoordinate.obj
 0001:00014440       ??_E?$NpArticulationJointTemplate@VPxArticulationJointReducedCoordinate@physx@@@physx@@UEAAPEAXI@Z 0000000180015440 f i NpArticulationJointReducedCoordinate.obj
 0001:000144c0       ??_GNpArticulationJointReducedCoordinate@physx@@UEAAPEAXI@Z 00000001800154c0 f i NpArticulationJointReducedCoordinate.obj
 0001:000144c0       ??_ENpArticulationJointReducedCoordinate@physx@@UEAAPEAXI@Z 00000001800154c0 f i NpArticulationJointReducedCoordinate.obj
 0001:00014540       ??_EPxArticulationJointReducedCoordinate@physx@@MEAAPEAXI@Z 0000000180015540 f i NpArticulationJointReducedCoordinate.obj
 0001:00014540       ??_GPxArticulationJointReducedCoordinate@physx@@MEAAPEAXI@Z 0000000180015540 f i NpArticulationJointReducedCoordinate.obj
 0001:00014570       ?getChildArticulationLink@?$NpArticulationJointTemplate@VPxArticulationJointReducedCoordinate@physx@@@physx@@UEBAAEAVPxArticulationLink@2@XZ 0000000180015570 f i NpArticulationJointReducedCoordinate.obj
 0001:00014580       ?getChildPose@?$NpArticulationJointTemplate@VPxArticulationJointReducedCoordinate@physx@@@physx@@UEBA?AVPxTransform@2@XZ 0000000180015580 f i NpArticulationJointReducedCoordinate.obj
 0001:000145a0       ?getConcreteTypeName@PxArticulationJointReducedCoordinate@physx@@UEBAPEBDXZ 00000001800155a0 f i NpArticulationJointReducedCoordinate.obj
 0001:000145b0       ?getImpl@?$NpArticulationJointTemplate@VPxArticulationJointReducedCoordinate@physx@@@physx@@UEAAPEAVPxArticulationJointImpl@2@XZ 00000001800155b0 f i NpArticulationJointReducedCoordinate.obj
 0001:000145c0       ?getImpl@?$NpArticulationJointTemplate@VPxArticulationJointReducedCoordinate@physx@@@physx@@UEBAPEBVPxArticulationJointImpl@2@XZ 00000001800155c0 f i NpArticulationJointReducedCoordinate.obj
 0001:000145d0       ?getParentArticulationLink@?$NpArticulationJointTemplate@VPxArticulationJointReducedCoordinate@physx@@@physx@@UEBAAEAVPxArticulationLink@2@XZ 00000001800155d0 f i NpArticulationJointReducedCoordinate.obj
 0001:000145e0       ?getParentPose@?$NpArticulationJointTemplate@VPxArticulationJointReducedCoordinate@physx@@@physx@@UEBA?AVPxTransform@2@XZ 00000001800155e0 f i NpArticulationJointReducedCoordinate.obj
 0001:00014600       ?isKindOf@PxArticulationJointReducedCoordinate@physx@@MEBA_NPEBD@Z 0000000180015600 f i NpArticulationJointReducedCoordinate.obj
 0001:00014650       ?isSubordinate@NpArticulationJointReducedCoordinate@physx@@UEBA_NXZ 0000000180015650 f i NpArticulationJointReducedCoordinate.obj
 0001:00014660       ?release@?$NpArticulationJointTemplate@VPxArticulationJointReducedCoordinate@physx@@@physx@@UEAAXXZ 0000000180015660 f i NpArticulationJointReducedCoordinate.obj
 0001:000146c0       ?requiresObjects@NpArticulationJointReducedCoordinate@physx@@UEAAXAEAVPxProcessPxBaseCallback@2@@Z 00000001800156c0 f i NpArticulationJointReducedCoordinate.obj
 0001:000146d0       ?setChildPose@?$NpArticulationJointTemplate@VPxArticulationJointReducedCoordinate@physx@@@physx@@UEAAXAEBVPxTransform@2@@Z 00000001800156d0 f i NpArticulationJointReducedCoordinate.obj
 0001:000146e0       ?setDrive@ArticulationJoint@Scb@physx@@QEAAXW4Enum@PxArticulationAxis@3@MMMW44PxArticulationDriveType@3@@Z 00000001800156e0 f i NpArticulationJointReducedCoordinate.obj
 0001:00014990       ?setParentPose@?$NpArticulationJointTemplate@VPxArticulationJointReducedCoordinate@physx@@@physx@@UEAAXAEBVPxTransform@2@@Z 0000000180015990 f i NpArticulationJointReducedCoordinate.obj
 0001:000149a0       ?exportExtraData@NpArticulationLink@physx@@UEAAXAEAVPxSerializationContext@2@@Z 00000001800159a0 f   NpArticulationLink.obj
 0001:00014a20       ?importExtraData@NpArticulationLink@physx@@UEAAXAEAVPxDeserializationContext@2@@Z 0000000180015a20 f   NpArticulationLink.obj
 0001:00014aa0       ?resolveReferences@NpArticulationLink@physx@@UEAAXAEAVPxDeserializationContext@2@@Z 0000000180015aa0 f   NpArticulationLink.obj
 0001:00014be0       ?requiresObjects@NpArticulationLink@physx@@UEAAXAEAVPxProcessPxBaseCallback@2@@Z 0000000180015be0 f   NpArticulationLink.obj
 0001:00014c80       ?createObject@NpArticulationLink@physx@@SAPEAV12@AEAPEAEAEAVPxDeserializationContext@2@@Z 0000000180015c80 f   NpArticulationLink.obj
 0001:00014da0       ??1NpArticulationLink@physx@@UEAA@XZ 0000000180015da0 f   NpArticulationLink.obj
 0001:00014e60       ?release@NpArticulationLink@physx@@UEAAXXZ 0000000180015e60 f   NpArticulationLink.obj
 0001:00014f10       ?setGlobalPose@NpArticulationLink@physx@@UEAAXAEBVPxTransform@2@@Z 0000000180015f10 f   NpArticulationLink.obj
 0001:00014f30       ?setGlobalPose@NpArticulationLink@physx@@UEAAXAEBVPxTransform@2@_N@Z 0000000180015f30 f   NpArticulationLink.obj
 0001:00014f40       ?getGlobalPose@NpArticulationLink@physx@@UEBA?AVPxTransform@2@XZ 0000000180015f40 f   NpArticulationLink.obj
 0001:00015250       ?setLinearDamping@NpArticulationLink@physx@@UEAAXM@Z 0000000180016250 f   NpArticulationLink.obj
 0001:000152e0       ?getLinearDamping@NpArticulationLink@physx@@UEBAMXZ 00000001800162e0 f   NpArticulationLink.obj
 0001:00015310       ?setAngularDamping@NpArticulationLink@physx@@UEAAXM@Z 0000000180016310 f   NpArticulationLink.obj
 0001:000153a0       ?getAngularDamping@NpArticulationLink@physx@@UEBAMXZ 00000001800163a0 f   NpArticulationLink.obj
 0001:000153d0       ?setLinearVelocity@NpArticulationLink@physx@@UEAAXAEBVPxVec3@2@_N@Z 00000001800163d0 f   NpArticulationLink.obj
 0001:00015460       ?setAngularVelocity@NpArticulationLink@physx@@UEAAXAEBVPxVec3@2@_N@Z 0000000180016460 f   NpArticulationLink.obj
 0001:000154f0       ?setMaxAngularVelocity@NpArticulationLink@physx@@UEAAXM@Z 00000001800164f0 f   NpArticulationLink.obj
 0001:00015580       ?getMaxAngularVelocity@NpArticulationLink@physx@@UEBAMXZ 0000000180016580 f   NpArticulationLink.obj
 0001:000155c0       ?setMaxLinearVelocity@NpArticulationLink@physx@@UEAAXM@Z 00000001800165c0 f   NpArticulationLink.obj
 0001:00015650       ?getMaxLinearVelocity@NpArticulationLink@physx@@UEBAMXZ 0000000180016650 f   NpArticulationLink.obj
 0001:00015690       ?getArticulation@NpArticulationLink@physx@@UEBAAEAVPxArticulationBase@2@XZ 0000000180016690 f   NpArticulationLink.obj
 0001:000156a0       ?getInboundJoint@NpArticulationLink@physx@@UEBAPEAVPxArticulationJointBase@2@XZ 00000001800166a0 f   NpArticulationLink.obj
 0001:000156b0       ?getInboundJointDof@NpArticulationLink@physx@@UEBAIXZ 00000001800166b0 f   NpArticulationLink.obj
 0001:000156c0       ?getNbChildren@NpArticulationLink@physx@@UEBAIXZ 00000001800166c0 f   NpArticulationLink.obj
 0001:000156d0       ?getChildren@NpArticulationLink@physx@@UEBAIPEAPEAVPxArticulationLink@2@II@Z 00000001800166d0 f   NpArticulationLink.obj
 0001:00015730       ?getLinkIndex@NpArticulationLink@physx@@UEBAIXZ 0000000180016730 f   NpArticulationLink.obj
 0001:00015740       ?setCMassLocalPose@NpArticulationLink@physx@@UEAAXAEBVPxTransform@2@@Z 0000000180016740 f   NpArticulationLink.obj
 0001:00015ea0       ?addForce@NpArticulationLink@physx@@UEAAXAEBVPxVec3@2@W4Enum@PxForceMode@2@_N@Z 0000000180016ea0 f   NpArticulationLink.obj
 0001:00015f30       ?addTorque@NpArticulationLink@physx@@UEAAXAEBVPxVec3@2@W4Enum@PxForceMode@2@_N@Z 0000000180016f30 f   NpArticulationLink.obj
 0001:00015fc0       ?setForceAndTorque@NpArticulationLink@physx@@UEAAXAEBVPxVec3@2@0W4Enum@PxForceMode@2@@Z 0000000180016fc0 f   NpArticulationLink.obj
 0001:00016050       ?clearForce@NpArticulationLink@physx@@UEAAXW4Enum@PxForceMode@2@@Z 0000000180017050 f   NpArticulationLink.obj
 0001:00016090       ?clearTorque@NpArticulationLink@physx@@UEAAXW4Enum@PxForceMode@2@@Z 0000000180017090 f   NpArticulationLink.obj
 0001:000160d0       ??0NpArticulationLink@physx@@QEAA@AEBVPxTransform@1@AEAVPxArticulationBase@1@PEAV01@@Z 00000001800170d0 f   NpArticulationLink.obj
 0001:000162d0       ?releaseInternal@NpArticulationLink@physx@@QEAAXXZ 00000001800172d0 f   NpArticulationLink.obj
 0001:00016470       ?setGlobalPoseInternal@NpArticulationLink@physx@@QEAAXAEBVPxTransform@2@_N@Z 0000000180017470 f   NpArticulationLink.obj
 0001:000168d0       ?setKinematicLink@NpArticulationLink@physx@@QEAAX_N@Z 00000001800178d0 f   NpArticulationLink.obj
 0001:000168e0       ?visualize@NpArticulationLink@physx@@QEAAXAEAVRenderOutput@Cm@2@PEAVNpScene@2@@Z 00000001800178e0 f   NpArticulationLink.obj
 0001:00016c00       ?visualizeJoint@NpArticulationLink@physx@@QEAAXAEAVPxConstraintVisualizer@2@@Z 0000000180017c00 f   NpArticulationLink.obj
 0001:00017d30       ??0?$NpActorTemplate@VPxArticulationLink@physx@@@physx@@QEAA@GV?$PxFlags@W4Enum@PxBaseFlag@physx@@G@1@PEBDPEAX@Z 0000000180018d30 f i NpArticulationLink.obj
 0001:00017d80       ??0?$NpRigidActorTemplate@VPxArticulationLink@physx@@@physx@@QEAA@GV?$PxFlags@W4Enum@PxBaseFlag@physx@@G@1@@Z 0000000180018d80 f i NpArticulationLink.obj
 0001:00017de0       ??0?$NpRigidBodyTemplate@VPxArticulationLink@physx@@@physx@@QEAA@GV?$PxFlags@W4Enum@PxBaseFlag@physx@@G@1@W4Enum@PxActorType@1@AEBVPxTransform@1@@Z 0000000180018de0 f i NpArticulationLink.obj
 0001:00017f40       ??1?$NpActorTemplate@VPxArticulationLink@physx@@@physx@@UEAA@XZ 0000000180018f40 f i NpArticulationLink.obj
 0001:00017f80       ??1?$NpRigidActorTemplate@VPxArticulationLink@physx@@@physx@@UEAA@XZ 0000000180018f80 f i NpArticulationLink.obj
 0001:00017fd0       ??1?$NpRigidBodyTemplate@VPxArticulationLink@physx@@@physx@@UEAA@XZ 0000000180018fd0 f i NpArticulationLink.obj
 0001:00018030       ??1PxActor@physx@@MEAA@XZ  0000000180019030 f i NpArticulationLink.obj
 0001:00018040       ??1PxArticulationLink@physx@@MEAA@XZ 0000000180019040 f i NpArticulationLink.obj
 0001:00018050       ??1PxConstraintVisualizer@physx@@MEAA@XZ 0000000180019050 f i NpArticulationLink.obj
 0001:00018060       ??1PxRigidActor@physx@@MEAA@XZ 0000000180019060 f i NpArticulationLink.obj
 0001:00018070       ??1PxRigidBody@physx@@MEAA@XZ 0000000180019070 f i NpArticulationLink.obj
 0001:00018080       ??_G?$NpActorTemplate@VPxArticulationLink@physx@@@physx@@UEAAPEAXI@Z 0000000180019080 f i NpArticulationLink.obj
 0001:00018080       ??_E?$NpActorTemplate@VPxArticulationLink@physx@@@physx@@UEAAPEAXI@Z 0000000180019080 f i NpArticulationLink.obj
 0001:00018100       ??_G?$NpRigidActorTemplate@VPxArticulationLink@physx@@@physx@@UEAAPEAXI@Z 0000000180019100 f i NpArticulationLink.obj
 0001:00018100       ??_E?$NpRigidActorTemplate@VPxArticulationLink@physx@@@physx@@UEAAPEAXI@Z 0000000180019100 f i NpArticulationLink.obj
 0001:00018190       ??_E?$NpRigidBodyTemplate@VPxArticulationLink@physx@@@physx@@UEAAPEAXI@Z 0000000180019190 f i NpArticulationLink.obj
 0001:00018190       ??_G?$NpRigidBodyTemplate@VPxArticulationLink@physx@@@physx@@UEAAPEAXI@Z 0000000180019190 f i NpArticulationLink.obj
 0001:00018240       ??_GConstraintImmediateVisualizer@Cm@physx@@UEAAPEAXI@Z 0000000180019240 f i NpArticulationLink.obj
 0001:00018240       ??_EConstraintImmediateVisualizer@Cm@physx@@UEAAPEAXI@Z 0000000180019240 f i NpArticulationLink.obj
 0001:00018270       ??_ENpArticulationLink@physx@@UEAAPEAXI@Z 0000000180019270 f i NpArticulationLink.obj
 0001:00018270       ??_GNpArticulationLink@physx@@UEAAPEAXI@Z 0000000180019270 f i NpArticulationLink.obj
 0001:00018370       ??_GPxActor@physx@@MEAAPEAXI@Z 0000000180019370 f i NpArticulationLink.obj
 0001:00018370       ??_EPxActor@physx@@MEAAPEAXI@Z 0000000180019370 f i NpArticulationLink.obj
 0001:000183a0       ??_GPxArticulationLink@physx@@MEAAPEAXI@Z 00000001800193a0 f i NpArticulationLink.obj
 0001:000183a0       ??_EPxArticulationLink@physx@@MEAAPEAXI@Z 00000001800193a0 f i NpArticulationLink.obj
 0001:000183d0       ??_GPxConstraintVisualizer@physx@@MEAAPEAXI@Z 00000001800193d0 f i NpArticulationLink.obj
 0001:000183d0       ??_EPxConstraintVisualizer@physx@@MEAAPEAXI@Z 00000001800193d0 f i NpArticulationLink.obj
 0001:00018400       ??_GPxRigidActor@physx@@MEAAPEAXI@Z 0000000180019400 f i NpArticulationLink.obj
 0001:00018400       ??_EPxRigidActor@physx@@MEAAPEAXI@Z 0000000180019400 f i NpArticulationLink.obj
 0001:00018430       ??_GPxRigidBody@physx@@MEAAPEAXI@Z 0000000180019430 f i NpArticulationLink.obj
 0001:00018430       ??_EPxRigidBody@physx@@MEAAPEAXI@Z 0000000180019430 f i NpArticulationLink.obj
 0001:00018460       ?addSpatialAcceleration@Body@Scb@physx@@QEAAXPEBVPxVec3@3@0@Z 0000000180019460 f i NpArticulationLink.obj
 0001:000185a0       ?addSpatialForce@?$NpRigidBodyTemplate@VPxArticulationLink@physx@@@physx@@IEAAXPEBVPxVec3@2@0W4Enum@PxForceMode@2@@Z 00000001800195a0 f i NpArticulationLink.obj
 0001:00018800       ?addSpatialVelocity@Body@Scb@physx@@QEAAXPEBVPxVec3@3@0@Z 0000000180019800 f i NpArticulationLink.obj
 0001:00018940       ?allocate@?$Array@UPxDebugLine@physx@@V?$ReflectionAllocator@UPxDebugLine@physx@@@shdfnd@2@@shdfnd@physx@@IEAAPEAUPxDebugLine@3@I@Z 0000000180019940 f i NpArticulationLink.obj
 0001:000189e0       ?attachShape@?$NpRigidActorTemplate@VPxArticulationLink@physx@@@physx@@UEAA_NAEAVPxShape@2@@Z 00000001800199e0 f i NpArticulationLink.obj
 0001:00018a80       ?attachShape@?$NpRigidBodyTemplate@VPxArticulationLink@physx@@@physx@@UEAA_NAEAVPxShape@2@@Z 0000000180019a80 f i NpArticulationLink.obj
 0001:00018b20       ?clearSpatialForce@?$NpRigidBodyTemplate@VPxArticulationLink@physx@@@physx@@IEAAXW4Enum@PxForceMode@2@_N1@Z 0000000180019b20 f i NpArticulationLink.obj
 0001:00018cc0       ?copy@?$Array@UPxDebugLine@physx@@V?$ReflectionAllocator@UPxDebugLine@physx@@@shdfnd@2@@shdfnd@physx@@KAXPEAUPxDebugLine@3@0PEBU43@@Z 0000000180019cc0 f i NpArticulationLink.obj
 0001:00018e70       ?detachShape@?$NpRigidActorTemplate@VPxArticulationLink@physx@@@physx@@UEAAXAEAVPxShape@2@_N@Z 0000000180019e70 f i NpArticulationLink.obj
 0001:00018f20       ?exportExtraData@?$NpActorTemplate@VPxArticulationLink@physx@@@physx@@UEAAXAEAVPxSerializationContext@2@@Z 0000000180019f20 f i NpArticulationLink.obj
 0001:00018f30       ?exportExtraData@?$NpRigidActorTemplate@VPxArticulationLink@physx@@@physx@@UEAAXAEAVPxSerializationContext@2@@Z 0000000180019f30 f i NpArticulationLink.obj
 0001:00018f60       ?getActorFlags@?$NpActorTemplate@VPxArticulationLink@physx@@@physx@@UEBA?AV?$PxFlags@W4Enum@PxActorFlag@physx@@E@2@XZ 0000000180019f60 f i NpArticulationLink.obj
 0001:00018fb0       ?getAggregate@?$NpActorTemplate@VPxArticulationLink@physx@@@physx@@UEBAPEAVPxAggregate@2@XZ 0000000180019fb0 f i NpArticulationLink.obj
 0001:00018fc0       ?getAngularVelocity@?$NpRigidBodyTemplate@VPxArticulationLink@physx@@@physx@@UEBA?AVPxVec3@2@XZ 0000000180019fc0 f i NpArticulationLink.obj
 0001:00018fe0       ?getCMassLocalPose@?$NpRigidBodyTemplate@VPxArticulationLink@physx@@@physx@@UEBA?AVPxTransform@2@XZ 0000000180019fe0 f i NpArticulationLink.obj
 0001:00019030       ?getConcreteTypeName@PxArticulationLink@physx@@UEBAPEBDXZ 000000018001a030 f i NpArticulationLink.obj
 0001:00019040       ?getConstraints@?$NpRigidActorTemplate@VPxArticulationLink@physx@@@physx@@UEBAIPEAPEAVPxConstraint@2@II@Z 000000018001a040 f i NpArticulationLink.obj
 0001:000190f0       ?getDominanceGroup@?$NpActorTemplate@VPxArticulationLink@physx@@@physx@@UEBAEXZ 000000018001a0f0 f i NpArticulationLink.obj
 0001:00019130       ?getGlobalInertiaTensorInverse@Body@Scb@physx@@QEBA?AVPxMat33@3@XZ 000000018001a130 f i NpArticulationLink.obj
 0001:000193c0       ?getInternalIslandNodeIndex@?$NpRigidBodyTemplate@VPxArticulationLink@physx@@@physx@@UEBAIXZ 000000018001a3c0 f i NpArticulationLink.obj
 0001:000193d0       ?getInvMass@?$NpRigidBodyTemplate@VPxArticulationLink@physx@@@physx@@UEBAMXZ 000000018001a3d0 f i NpArticulationLink.obj
 0001:000193f0       ?getLinearVelocity@?$NpRigidBodyTemplate@VPxArticulationLink@physx@@@physx@@UEBA?AVPxVec3@2@XZ 000000018001a3f0 f i NpArticulationLink.obj
 0001:00019410       ?getMass@?$NpRigidBodyTemplate@VPxArticulationLink@physx@@@physx@@UEBAMXZ 000000018001a410 f i NpArticulationLink.obj
 0001:00019450       ?getMassSpaceInertiaTensor@?$NpRigidBodyTemplate@VPxArticulationLink@physx@@@physx@@UEBA?AVPxVec3@2@XZ 000000018001a450 f i NpArticulationLink.obj
 0001:000194e0       ?getMassSpaceInvInertiaTensor@?$NpRigidBodyTemplate@VPxArticulationLink@physx@@@physx@@UEBA?AVPxVec3@2@XZ 000000018001a4e0 f i NpArticulationLink.obj
 0001:00019520       ?getMaxContactImpulse@?$NpRigidBodyTemplate@VPxArticulationLink@physx@@@physx@@UEBAMXZ 000000018001a520 f i NpArticulationLink.obj
 0001:00019550       ?getMaxDepenetrationVelocity@?$NpRigidBodyTemplate@VPxArticulationLink@physx@@@physx@@UEBAMXZ 000000018001a550 f i NpArticulationLink.obj
 0001:00019580       ?getMinCCDAdvanceCoefficient@?$NpRigidBodyTemplate@VPxArticulationLink@physx@@@physx@@UEBAMXZ 000000018001a580 f i NpArticulationLink.obj
 0001:000195a0       ?getName@?$NpActorTemplate@VPxArticulationLink@physx@@@physx@@UEBAPEBDXZ 000000018001a5a0 f i NpArticulationLink.obj
 0001:000195b0       ?getNbConstraints@?$NpRigidActorTemplate@VPxArticulationLink@physx@@@physx@@UEBAIXZ 000000018001a5b0 f i NpArticulationLink.obj
 0001:000195c0       ?getNbShapes@?$NpRigidActorTemplate@VPxArticulationLink@physx@@@physx@@UEBAIXZ 000000018001a5c0 f i NpArticulationLink.obj
 0001:000195d0       ?getOwnerClient@?$NpActorTemplate@VPxArticulationLink@physx@@@physx@@UEBAEXZ 000000018001a5d0 f i NpArticulationLink.obj
 0001:00019600       ?getRigidBodyFlags@?$NpRigidBodyTemplate@VPxArticulationLink@physx@@@physx@@UEBA?AV?$PxFlags@W4Enum@PxRigidBodyFlag@physx@@E@2@XZ 000000018001a600 f i NpArticulationLink.obj
 0001:00019630       ?getScene@?$NpActorTemplate@VPxArticulationLink@physx@@@physx@@UEBAPEAVPxScene@2@XZ 000000018001a630 f i NpArticulationLink.obj
 0001:00019640       ?getShapes@?$NpRigidActorTemplate@VPxArticulationLink@physx@@@physx@@UEBAIPEAPEAVPxShape@2@II@Z 000000018001a640 f i NpArticulationLink.obj
 0001:00019650       ?getType@NpArticulationLink@physx@@UEBA?AW4Enum@PxActorType@2@XZ 000000018001a650 f i NpArticulationLink.obj
 0001:00019660       ?getWorldBounds@?$NpRigidActorTemplate@VPxArticulationLink@physx@@@physx@@UEBA?AVPxBounds3@2@M@Z 000000018001a660 f i NpArticulationLink.obj
 0001:00019840       ?importExtraData@?$NpActorTemplate@VPxArticulationLink@physx@@@physx@@UEAAXAEAVPxDeserializationContext@2@@Z 000000018001a840 f i NpArticulationLink.obj
 0001:00019850       ?importExtraData@?$NpRigidActorTemplate@VPxArticulationLink@physx@@@physx@@UEAAXAEAVPxDeserializationContext@2@@Z 000000018001a850 f i NpArticulationLink.obj
 0001:00019880       ?isKindOf@PxActor@physx@@MEBA_NPEBD@Z 000000018001a880 f i NpArticulationLink.obj
 0001:000198d0       ?isKindOf@PxArticulationLink@physx@@MEBA_NPEBD@Z 000000018001a8d0 f i NpArticulationLink.obj
 0001:00019920       ?isKindOf@PxRigidActor@physx@@MEBA_NPEBD@Z 000000018001a920 f i NpArticulationLink.obj
 0001:000199b0       ?isKindOf@PxRigidBody@physx@@MEBA_NPEBD@Z 000000018001a9b0 f i NpArticulationLink.obj
 0001:00019a40       ?isSubordinate@NpArticulationLink@physx@@UEBA_NXZ 000000018001aa40 f i NpArticulationLink.obj
 0001:00019a50       ?putToSleepInternal@Body@Scb@physx@@QEAAXXZ 000000018001aa50 f i NpArticulationLink.obj
 0001:00019bc0       ?recreate@?$Array@UPxDebugLine@physx@@V?$ReflectionAllocator@UPxDebugLine@physx@@@shdfnd@2@@shdfnd@physx@@IEAAXI@Z 000000018001abc0 f i NpArticulationLink.obj
 0001:00019c50       ?release@?$NpActorTemplate@VPxArticulationLink@physx@@@physx@@UEAAXXZ 000000018001ac50 f i NpArticulationLink.obj
 0001:00019c60       ?release@?$NpRigidActorTemplate@VPxArticulationLink@physx@@@physx@@UEAAXXZ 000000018001ac60 f i NpArticulationLink.obj
 0001:00019d00       ?requiresObjects@?$NpRigidActorTemplate@VPxArticulationLink@physx@@@physx@@UEAAXAEAVPxProcessPxBaseCallback@2@@Z 000000018001ad00 f i NpArticulationLink.obj
 0001:00019d70       ?resolveReferences@?$NpActorTemplate@VPxArticulationLink@physx@@@physx@@UEAAXAEAVPxDeserializationContext@2@@Z 000000018001ad70 f i NpArticulationLink.obj
 0001:00019d80       ?resolveReferences@?$NpRigidActorTemplate@VPxArticulationLink@physx@@@physx@@UEAAXAEAVPxDeserializationContext@2@@Z 000000018001ad80 f i NpArticulationLink.obj
 0001:00019e10       ?setActorFlag@?$NpActorTemplate@VPxArticulationLink@physx@@@physx@@UEAAXW4Enum@PxActorFlag@2@_N@Z 000000018001ae10 f i NpArticulationLink.obj
 0001:00019ed0       ?setActorFlag@?$NpRigidActorTemplate@VPxArticulationLink@physx@@@physx@@UEAAXW4Enum@PxActorFlag@2@_N@Z 000000018001aed0 f i NpArticulationLink.obj
 0001:0001a090       ?setActorFlags@?$NpActorTemplate@VPxArticulationLink@physx@@@physx@@UEAAXV?$PxFlags@W4Enum@PxActorFlag@physx@@E@2@@Z 000000018001b090 f i NpArticulationLink.obj
 0001:0001a0c0       ?setActorFlags@?$NpRigidActorTemplate@VPxArticulationLink@physx@@@physx@@UEAAXV?$PxFlags@W4Enum@PxActorFlag@physx@@E@2@@Z 000000018001b0c0 f i NpArticulationLink.obj
 0001:0001a200       ?setActorFlags@Actor@Scb@physx@@QEAAXV?$PxFlags@W4Enum@PxActorFlag@physx@@E@3@@Z 000000018001b200 f i NpArticulationLink.obj
 0001:0001a2a0       ?setAngularVelocity@Body@Scb@physx@@QEAAXAEBVPxVec3@3@@Z 000000018001b2a0 f i NpArticulationLink.obj
 0001:0001a310       ?setCMassLocalPoseInternal@?$NpRigidBodyTemplate@VPxArticulationLink@physx@@@physx@@IEAAXAEBVPxTransform@2@@Z 000000018001b310 f i NpArticulationLink.obj
 0001:0001a690       ?setChildPose@ArticulationJoint@Scb@physx@@QEAAXAEBVPxTransform@3@@Z 000000018001b690 f i NpArticulationLink.obj
 0001:0001a740       ?setDominanceGroup@?$NpActorTemplate@VPxArticulationLink@physx@@@physx@@UEAAXE@Z 000000018001b740 f i NpArticulationLink.obj
 0001:0001a7e0       ?setFlags@Body@Scb@physx@@QEAAXV?$PxFlags@W4Enum@PxRigidBodyFlag@physx@@E@3@@Z 000000018001b7e0 f i NpArticulationLink.obj
 0001:0001a920       ?setLinearVelocity@Body@Scb@physx@@QEAAXAEBVPxVec3@3@@Z 000000018001b920 f i NpArticulationLink.obj
 0001:0001a990       ?setMass@?$NpRigidBodyTemplate@VPxArticulationLink@physx@@@physx@@UEAAXM@Z 000000018001b990 f i NpArticulationLink.obj
 0001:0001aa30       ?setMassSpaceInertiaTensor@?$NpRigidBodyTemplate@VPxArticulationLink@physx@@@physx@@UEAAXAEBVPxVec3@2@@Z 000000018001ba30 f i NpArticulationLink.obj
 0001:0001ab30       ?setMaxContactImpulse@?$NpRigidBodyTemplate@VPxArticulationLink@physx@@@physx@@UEAAXM@Z 000000018001bb30 f i NpArticulationLink.obj
 0001:0001abc0       ?setMaxDepenetrationVelocity@?$NpRigidBodyTemplate@VPxArticulationLink@physx@@@physx@@UEAAXM@Z 000000018001bbc0 f i NpArticulationLink.obj
 0001:0001ac50       ?setMinCCDAdvanceCoefficient@?$NpRigidBodyTemplate@VPxArticulationLink@physx@@@physx@@UEAAXM@Z 000000018001bc50 f i NpArticulationLink.obj
 0001:0001ace0       ?setName@?$NpActorTemplate@VPxArticulationLink@physx@@@physx@@UEAAXPEBD@Z 000000018001bce0 f i NpArticulationLink.obj
 0001:0001acf0       ?setOwnerClient@?$NpActorTemplate@VPxArticulationLink@physx@@@physx@@UEAAXE@Z 000000018001bcf0 f i NpArticulationLink.obj
 0001:0001adc0       ?setRigidBodyFlag@?$NpRigidBodyTemplate@VPxArticulationLink@physx@@@physx@@UEAAXW4Enum@PxRigidBodyFlag@2@_N@Z 000000018001bdc0 f i NpArticulationLink.obj
 0001:0001b2a0       ?setRigidBodyFlags@?$NpRigidBodyTemplate@VPxArticulationLink@physx@@@physx@@UEAAXV?$PxFlags@W4Enum@PxRigidBodyFlag@physx@@E@2@@Z 000000018001c2a0 f i NpArticulationLink.obj
 0001:0001b770       ?setSpatialAcceleration@Body@Scb@physx@@QEAAXPEBVPxVec3@3@0@Z 000000018001c770 f i NpArticulationLink.obj
 0001:0001b890       ?setSpatialForce@?$NpRigidBodyTemplate@VPxArticulationLink@physx@@@physx@@IEAAXPEBVPxVec3@2@0W4Enum@PxForceMode@2@@Z 000000018001c890 f i NpArticulationLink.obj
 0001:0001baf0       ?switchFromNoSim@?$NpRigidActorTemplate@VPxArticulationLink@physx@@@physx@@UEAAXXZ 000000018001caf0 f i NpArticulationLink.obj
 0001:0001bb00       ?switchToNoSim@?$NpRigidActorTemplate@VPxArticulationLink@physx@@@physx@@UEAAXXZ 000000018001cb00 f i NpArticulationLink.obj
 0001:0001bb10       ?updateShaderComs@?$NpRigidActorTemplate@VPxArticulationLink@physx@@@physx@@QEAAXXZ 000000018001cb10 f i NpArticulationLink.obj
 0001:0001bb90       ?visualize@?$NpRigidActorTemplate@VPxArticulationLink@physx@@@physx@@QEAAXAEAVRenderOutput@Cm@2@PEAVNpScene@2@@Z 000000018001cb90 f i NpArticulationLink.obj
 0001:0001bba0       ?visualize@?$NpRigidBodyTemplate@VPxArticulationLink@physx@@@physx@@QEAAXAEAVRenderOutput@Cm@2@PEAVNpScene@2@@Z 000000018001cba0 f i NpArticulationLink.obj
 0001:0001bf60       ?visualizeAngularLimit@ConstraintImmediateVisualizer@Cm@physx@@UEAAXAEBVPxTransform@3@MM_N@Z 000000018001cf60 f i NpArticulationLink.obj
 0001:0001bf90       ?visualizeDoubleCone@ConstraintImmediateVisualizer@Cm@physx@@UEAAXAEBVPxTransform@3@M_N@Z 000000018001cf90 f i NpArticulationLink.obj
 0001:0001bfc0       ?visualizeJointFrames@ConstraintImmediateVisualizer@Cm@physx@@UEAAXAEBVPxTransform@3@0@Z 000000018001cfc0 f i NpArticulationLink.obj
 0001:0001bfe0       ?visualizeLimitCone@ConstraintImmediateVisualizer@Cm@physx@@UEAAXAEBVPxTransform@3@MM_N@Z 000000018001cfe0 f i NpArticulationLink.obj
 0001:0001c010       ?visualizeLine@ConstraintImmediateVisualizer@Cm@physx@@UEAAXAEBVPxVec3@3@0I@Z 000000018001d010 f i NpArticulationLink.obj
 0001:0001c090       ?visualizeLinearLimit@ConstraintImmediateVisualizer@Cm@physx@@UEAAXAEBVPxTransform@3@0M_N@Z 000000018001d090 f i NpArticulationLink.obj
 0001:0001c0c0       ??0NpBatchQuery@physx@@QEAA@AEAVNpScene@1@AEBVPxBatchQueryDesc@1@@Z 000000018001d0c0 f   NpBatchQuery.obj
 0001:0001c1f0       ??1NpBatchQuery@physx@@UEAA@XZ 000000018001d1f0 f   NpBatchQuery.obj
 0001:0001c270       ?execute@NpBatchQuery@physx@@UEAAXXZ 000000018001d270 f   NpBatchQuery.obj
 0001:0001cb30       ?release@NpBatchQuery@physx@@UEAAXXZ 000000018001db30 f   NpBatchQuery.obj
 0001:0001cba0       ?getPreFilterShader@NpBatchQuery@physx@@UEBAP6A?AW4Enum@PxQueryHitType@2@UPxFilterData@2@0PEBXIAEAV?$PxFlags@W4Enum@PxHitFlag@physx@@G@2@@ZXZ 000000018001dba0 f   NpBatchQuery.obj
 0001:0001cbb0       ?getPostFilterShader@NpBatchQuery@physx@@UEBAP6A?AW4Enum@PxQueryHitType@2@UPxFilterData@2@0PEBXIAEBUPxQueryHit@2@@ZXZ 000000018001dbb0 f   NpBatchQuery.obj
 0001:0001cbc0       ?getFilterShaderData@NpBatchQuery@physx@@UEBAPEBXXZ 000000018001dbc0 f   NpBatchQuery.obj
 0001:0001cbd0       ?getFilterShaderDataSize@NpBatchQuery@physx@@UEBAIXZ 000000018001dbd0 f   NpBatchQuery.obj
 0001:0001cbe0       ?setUserMemory@NpBatchQuery@physx@@UEAAXAEBUPxBatchQueryMemory@2@@Z 000000018001dbe0 f   NpBatchQuery.obj
 0001:0001cc80       ?getUserMemory@NpBatchQuery@physx@@UEAAAEBUPxBatchQueryMemory@2@XZ 000000018001dc80 f   NpBatchQuery.obj
 0001:0001cc90       ?raycast@NpBatchQuery@physx@@UEAAXAEBVPxVec3@2@0MGV?$PxFlags@W4Enum@PxHitFlag@physx@@G@2@AEBUPxQueryFilterData@2@PEAXPEBUPxQueryCache@2@@Z 000000018001dc90 f   NpBatchQuery.obj
 0001:0001ce00       ?overlap@NpBatchQuery@physx@@UEAAXAEBVPxGeometry@2@AEBVPxTransform@2@GAEBUPxQueryFilterData@2@PEAXPEBUPxQueryCache@2@@Z 000000018001de00 f   NpBatchQuery.obj
 0001:0001d010       ?sweep@NpBatchQuery@physx@@UEAAXAEBVPxGeometry@2@AEBVPxTransform@2@AEBVPxVec3@2@MGV?$PxFlags@W4Enum@PxHitFlag@physx@@G@2@AEBUPxQueryFilterData@2@PEAXPEBUPxQueryCache@2@M@Z 000000018001e010 f   NpBatchQuery.obj
 0001:0001d280       ?resetResultBuffers@NpBatchQuery@physx@@AEAAXXZ 000000018001e280 f   NpBatchQuery.obj
 0001:0001d390       ?finalizeExecute@NpBatchQuery@physx@@AEAAXXZ 000000018001e390 f   NpBatchQuery.obj
 0001:0001d3c0       ?writeBatchHeader@NpBatchQuery@physx@@AEAAXAEBUBatchStreamHeader@2@@Z 000000018001e3c0 f   NpBatchQuery.obj
 0001:0001d4a0       ??$writeStatus@U?$PxBatchQueryResult@UPxOverlapHit@physx@@@physx@@UPxOverlapHit@2@@@YAXPEAU?$PxBatchQueryResult@UPxOverlapHit@physx@@@physx@@AEBU?$PxHitBuffer@UPxOverlapHit@physx@@@1@PEAX_N@Z 000000018001e4a0 f i NpBatchQuery.obj
 0001:0001d4f0       ??$writeStatus@U?$PxBatchQueryResult@UPxRaycastHit@physx@@@physx@@UPxRaycastHit@2@@@YAXPEAU?$PxBatchQueryResult@UPxRaycastHit@physx@@@physx@@AEBU?$PxHitBuffer@UPxRaycastHit@physx@@@1@PEAX_N@Z 000000018001e4f0 f i NpBatchQuery.obj
 0001:0001d580       ??$writeStatus@U?$PxBatchQueryResult@UPxSweepHit@physx@@@physx@@UPxSweepHit@2@@@YAXPEAU?$PxBatchQueryResult@UPxSweepHit@physx@@@physx@@AEBU?$PxHitBuffer@UPxSweepHit@physx@@@1@PEAX_N@Z 000000018001e580 f i NpBatchQuery.obj
 0001:0001d600       ??1?$PxHitBuffer@UPxOverlapHit@physx@@@physx@@UEAA@XZ 000000018001e600 f i NpBatchQuery.obj
 0001:0001d610       ??1?$PxHitBuffer@UPxRaycastHit@physx@@@physx@@UEAA@XZ 000000018001e610 f i NpBatchQuery.obj
 0001:0001d620       ??1?$PxHitBuffer@UPxSweepHit@physx@@@physx@@UEAA@XZ 000000018001e620 f i NpBatchQuery.obj
 0001:0001d630       ??1?$PxHitCallback@UPxOverlapHit@physx@@@physx@@UEAA@XZ 000000018001e630 f i NpBatchQuery.obj
 0001:0001d640       ??1?$PxHitCallback@UPxRaycastHit@physx@@@physx@@UEAA@XZ 000000018001e640 f i NpBatchQuery.obj
 0001:0001d650       ??1?$PxHitCallback@UPxSweepHit@physx@@@physx@@UEAA@XZ 000000018001e650 f i NpBatchQuery.obj
 0001:0001d660       ??1PxBatchQuery@physx@@MEAA@XZ 000000018001e660 f i NpBatchQuery.obj
 0001:0001d670       ??_G?$PxHitBuffer@UPxOverlapHit@physx@@@physx@@UEAAPEAXI@Z 000000018001e670 f i NpBatchQuery.obj
 0001:0001d670       ??_E?$PxHitBuffer@UPxOverlapHit@physx@@@physx@@UEAAPEAXI@Z 000000018001e670 f i NpBatchQuery.obj
 0001:0001d6a0       ??_E?$PxHitBuffer@UPxRaycastHit@physx@@@physx@@UEAAPEAXI@Z 000000018001e6a0 f i NpBatchQuery.obj
 0001:0001d6a0       ??_G?$PxHitBuffer@UPxRaycastHit@physx@@@physx@@UEAAPEAXI@Z 000000018001e6a0 f i NpBatchQuery.obj
 0001:0001d6d0       ??_E?$PxHitBuffer@UPxSweepHit@physx@@@physx@@UEAAPEAXI@Z 000000018001e6d0 f i NpBatchQuery.obj
 0001:0001d6d0       ??_G?$PxHitBuffer@UPxSweepHit@physx@@@physx@@UEAAPEAXI@Z 000000018001e6d0 f i NpBatchQuery.obj
 0001:0001d700       ??_G?$PxHitCallback@UPxOverlapHit@physx@@@physx@@UEAAPEAXI@Z 000000018001e700 f i NpBatchQuery.obj
 0001:0001d700       ??_E?$PxHitCallback@UPxOverlapHit@physx@@@physx@@UEAAPEAXI@Z 000000018001e700 f i NpBatchQuery.obj
 0001:0001d730       ??_G?$PxHitCallback@UPxRaycastHit@physx@@@physx@@UEAAPEAXI@Z 000000018001e730 f i NpBatchQuery.obj
 0001:0001d730       ??_E?$PxHitCallback@UPxRaycastHit@physx@@@physx@@UEAAPEAXI@Z 000000018001e730 f i NpBatchQuery.obj
 0001:0001d760       ??_G?$PxHitCallback@UPxSweepHit@physx@@@physx@@UEAAPEAXI@Z 000000018001e760 f i NpBatchQuery.obj
 0001:0001d760       ??_E?$PxHitCallback@UPxSweepHit@physx@@@physx@@UEAAPEAXI@Z 000000018001e760 f i NpBatchQuery.obj
 0001:0001d790       ??_G?$PxOverflowBuffer@UPxOverlapHit@physx@@@@UEAAPEAXI@Z 000000018001e790 f i NpBatchQuery.obj
 0001:0001d790       ??_E?$PxOverflowBuffer@UPxOverlapHit@physx@@@@UEAAPEAXI@Z 000000018001e790 f i NpBatchQuery.obj
 0001:0001d7c0       ??_G?$PxOverflowBuffer@UPxRaycastHit@physx@@@@UEAAPEAXI@Z 000000018001e7c0 f i NpBatchQuery.obj
 0001:0001d7c0       ??_E?$PxOverflowBuffer@UPxRaycastHit@physx@@@@UEAAPEAXI@Z 000000018001e7c0 f i NpBatchQuery.obj
 0001:0001d7f0       ??_E?$PxOverflowBuffer@UPxSweepHit@physx@@@@UEAAPEAXI@Z 000000018001e7f0 f i NpBatchQuery.obj
 0001:0001d7f0       ??_G?$PxOverflowBuffer@UPxSweepHit@physx@@@@UEAAPEAXI@Z 000000018001e7f0 f i NpBatchQuery.obj
 0001:0001d820       ??_GNpBatchQuery@physx@@UEAAPEAXI@Z 000000018001e820 f i NpBatchQuery.obj
 0001:0001d820       ??_ENpBatchQuery@physx@@UEAAPEAXI@Z 000000018001e820 f i NpBatchQuery.obj
 0001:0001d8f0       ??_EPxBatchQuery@physx@@MEAAPEAXI@Z 000000018001e8f0 f i NpBatchQuery.obj
 0001:0001d8f0       ??_GPxBatchQuery@physx@@MEAAPEAXI@Z 000000018001e8f0 f i NpBatchQuery.obj
 0001:0001d920       ?finalizeQuery@?$PxHitCallback@UPxOverlapHit@physx@@@physx@@UEAAXXZ 000000018001e920 f i NpBatchQuery.obj
 0001:0001d930       ?finalizeQuery@?$PxHitCallback@UPxRaycastHit@physx@@@physx@@UEAAXXZ 000000018001e930 f i NpBatchQuery.obj
 0001:0001d940       ?finalizeQuery@?$PxHitCallback@UPxSweepHit@physx@@@physx@@UEAAXXZ 000000018001e940 f i NpBatchQuery.obj
 0001:0001d950       ?finalizeQuery@?$PxOverflowBuffer@UPxOverlapHit@physx@@@@UEAAXXZ 000000018001e950 f i NpBatchQuery.obj
 0001:0001d970       ?finalizeQuery@?$PxOverflowBuffer@UPxRaycastHit@physx@@@@UEAAXXZ 000000018001e970 f i NpBatchQuery.obj
 0001:0001d9a0       ?finalizeQuery@?$PxOverflowBuffer@UPxSweepHit@physx@@@@UEAAXXZ 000000018001e9a0 f i NpBatchQuery.obj
 0001:0001d9d0       ?getDesc@NpBatchQuery@physx@@UEBAAEBVPxBatchQueryDesc@2@XZ 000000018001e9d0 f i NpBatchQuery.obj
 0001:0001d9e0       ?processTouches@?$PxHitBuffer@UPxOverlapHit@physx@@@physx@@MEAA_NPEBUPxOverlapHit@2@I@Z 000000018001e9e0 f i NpBatchQuery.obj
 0001:0001d9f0       ?processTouches@?$PxHitBuffer@UPxRaycastHit@physx@@@physx@@MEAA_NPEBUPxRaycastHit@2@I@Z 000000018001e9f0 f i NpBatchQuery.obj
 0001:0001da00       ?processTouches@?$PxHitBuffer@UPxSweepHit@physx@@@physx@@MEAA_NPEBUPxSweepHit@2@I@Z 000000018001ea00 f i NpBatchQuery.obj
 0001:0001da10       ?processTouches@?$PxOverflowBuffer@UPxOverlapHit@physx@@@@UEAA_NPEBUPxOverlapHit@physx@@I@Z 000000018001ea10 f i NpBatchQuery.obj
 0001:0001da40       ?processTouches@?$PxOverflowBuffer@UPxRaycastHit@physx@@@@UEAA_NPEBUPxRaycastHit@physx@@I@Z 000000018001ea40 f i NpBatchQuery.obj
 0001:0001da80       ?processTouches@?$PxOverflowBuffer@UPxSweepHit@physx@@@@UEAA_NPEBUPxSweepHit@physx@@I@Z 000000018001ea80 f i NpBatchQuery.obj
 0001:0001dac0       ?recreate@?$Array@DV?$ReflectionAllocator@D@shdfnd@physx@@@shdfnd@physx@@IEAAXI@Z 000000018001eac0 f i NpBatchQuery.obj
 0001:0001dbc0       ?resizeUninitialized@?$Array@DV?$ReflectionAllocator@D@shdfnd@physx@@@shdfnd@physx@@QEAAXI@Z 000000018001ebc0 f i NpBatchQuery.obj
 0001:0001df60       ?NpConstraintGetRigidObjectsFromScb@physx@@YAXAEBVConstraint@Scb@1@AEAPEAVRigidObject@31@1@Z 000000018001ef60 f   NpConstraint.obj
 0001:0001dfd0       ?setConstraintFunctions@NpConstraint@physx@@UEAAXAEAVPxConstraintConnector@2@AEBUPxConstraintShaderTable@2@@Z 000000018001efd0 f   NpConstraint.obj
 0001:0001e1b0       ?createObject@NpConstraint@physx@@SAPEAV12@AEAPEAEAEAVPxDeserializationContext@2@@Z 000000018001f1b0 f   NpConstraint.obj
 0001:0001e250       ?resolveReferences@NpConstraint@physx@@QEAAXAEAVPxDeserializationContext@2@@Z 000000018001f250 f   NpConstraint.obj
 0001:0001e2b0       ??0NpConstraint@physx@@QEAA@PEAVPxRigidActor@1@0AEAVPxConstraintConnector@1@AEBUPxConstraintShaderTable@1@I@Z 000000018001f2b0 f   NpConstraint.obj
 0001:0001e4c0       ??1NpConstraint@physx@@UEAA@XZ 000000018001f4c0 f   NpConstraint.obj
 0001:0001e520       ?release@NpConstraint@physx@@UEAAXXZ 000000018001f520 f   NpConstraint.obj
 0001:0001e630       ?getScene@NpConstraint@physx@@UEBAPEAVPxScene@2@XZ 000000018001f630 f   NpConstraint.obj
 0001:0001e670       ?getActors@NpConstraint@physx@@UEBAXAEAPEAVPxRigidActor@2@0@Z 000000018001f670 f   NpConstraint.obj
 0001:0001e690       ?setActors@NpConstraint@physx@@UEAAXPEAVPxRigidActor@2@0@Z 000000018001f690 f   NpConstraint.obj
 0001:0001e910       ?getFlags@NpConstraint@physx@@UEBA?AV?$PxFlags@W4Enum@PxConstraintFlag@physx@@G@2@XZ 000000018001f910 f   NpConstraint.obj
 0001:0001e950       ?setFlags@NpConstraint@physx@@UEAAXV?$PxFlags@W4Enum@PxConstraintFlag@physx@@G@2@@Z 000000018001f950 f   NpConstraint.obj
 0001:0001e9a0       ?setFlag@NpConstraint@physx@@UEAAXW4Enum@PxConstraintFlag@2@_N@Z 000000018001f9a0 f   NpConstraint.obj
 0001:0001ea50       ?getForce@NpConstraint@physx@@UEBAXAEAVPxVec3@2@0@Z 000000018001fa50 f   NpConstraint.obj
 0001:0001ea90       ?markDirty@NpConstraint@physx@@UEAAXXZ 000000018001fa90 f   NpConstraint.obj
 0001:0001eaa0       ?setBreakForce@NpConstraint@physx@@UEAAXMM@Z 000000018001faa0 f   NpConstraint.obj
 0001:0001eb70       ?getBreakForce@NpConstraint@physx@@UEBAXAEAM0@Z 000000018001fb70 f   NpConstraint.obj
 0001:0001ebe0       ?setMinResponseThreshold@NpConstraint@physx@@UEAAXM@Z 000000018001fbe0 f   NpConstraint.obj
 0001:0001eca0       ?getMinResponseThreshold@NpConstraint@physx@@UEBAMXZ 000000018001fca0 f   NpConstraint.obj
 0001:0001ecf0       ?isValid@NpConstraint@physx@@UEBA_NXZ 000000018001fcf0 f   NpConstraint.obj
 0001:0001ed50       ?getExternalReference@NpConstraint@physx@@UEAAPEAXAEAI@Z 000000018001fd50 f   NpConstraint.obj
 0001:0001ed70       ?updateConstants@NpConstraint@physx@@QEAAXXZ 000000018001fd70 f   NpConstraint.obj
 0001:0001edb0       ?comShift@NpConstraint@physx@@QEAAXPEAVPxRigidActor@2@@Z 000000018001fdb0 f   NpConstraint.obj
 0001:0001ee10       ?actorDeleted@NpConstraint@physx@@QEAAXPEAVPxRigidActor@2@@Z 000000018001fe10 f   NpConstraint.obj
 0001:0001ee30       ?getNpScene@NpConstraint@physx@@QEBAPEAVNpScene@2@XZ 000000018001fe30 f   NpConstraint.obj
 0001:0001ee70       ?getSceneFromActors@NpConstraint@physx@@QEBAPEAVNpScene@2@XZ 000000018001fe70 f   NpConstraint.obj
 0001:0001ef20       ?getScbRigidObject@NpConstraint@physx@@SAPEAVRigidObject@Scb@2@PEAVPxRigidActor@2@@Z 000000018001ff20 f   NpConstraint.obj
 0001:0001ef30       ??1PxConstraint@physx@@MEAA@XZ 000000018001ff30 f i NpConstraint.obj
 0001:0001ef40       ??_GNpConstraint@physx@@UEAAPEAXI@Z 000000018001ff40 f i NpConstraint.obj
 0001:0001ef40       ??_ENpConstraint@physx@@UEAAPEAXI@Z 000000018001ff40 f i NpConstraint.obj
 0001:0001efe0       ??_EPxConstraint@physx@@MEAAPEAXI@Z 000000018001ffe0 f i NpConstraint.obj
 0001:0001efe0       ??_GPxConstraint@physx@@MEAAPEAXI@Z 000000018001ffe0 f i NpConstraint.obj
 0001:0001f010       ?getConcreteTypeName@PxConstraint@physx@@UEBAPEBDXZ 0000000180020010 f i NpConstraint.obj
 0001:0001f020       ?isKindOf@PxConstraint@physx@@MEBA_NPEBD@Z 0000000180020020 f i NpConstraint.obj
 0001:0001f070       ?isSubordinate@NpConstraint@physx@@UEBA_NXZ 0000000180020070 f i NpConstraint.obj
 0001:0001f080       ?requiresObjects@NpConstraint@physx@@UEAAXAEAVPxProcessPxBaseCallback@2@@Z 0000000180020080 f i NpConstraint.obj
 0001:0001f090       ?setBodies@Constraint@Scb@physx@@QEAAXPEAVRigidObject@23@0@Z 0000000180020090 f i NpConstraint.obj
 0001:0001f180       ?setFlags@Constraint@Scb@physx@@QEAAXV?$PxFlags@W4Enum@PxConstraintFlag@physx@@G@3@@Z 0000000180020180 f i NpConstraint.obj
 0001:0001f210       ??0NpFactory@physx@@QEAA@XZ 0000000180020210 f   NpFactory.obj
 0001:0001fd60       ??1NpFactory@physx@@EEAA@XZ 0000000180020d60 f   NpFactory.obj
 0001:000200d0       ?createInstance@NpFactory@physx@@SAXXZ 00000001800210d0 f   NpFactory.obj
 0001:00020160       ?destroyInstance@NpFactory@physx@@SAXXZ 0000000180021160 f   NpFactory.obj
 0001:000201f0       ?registerArticulations@NpFactory@physx@@SAXXZ 00000001800211f0 f   NpFactory.obj
 0001:00020220       ?registerArticulationRCs@NpFactory@physx@@SAXXZ 0000000180021220 f   NpFactory.obj
 0001:00020250       ?release@NpFactory@physx@@QEAAXXZ 0000000180021250 f   NpFactory.obj
 0001:000202d0       ?addCollection@NpFactory@physx@@QEAAXAEBVCollection@Cm@2@@Z 00000001800212d0 f   NpFactory.obj
 0001:00020570       ?createRigidDynamic@NpFactory@physx@@QEAAPEAVPxRigidDynamic@2@AEBVPxTransform@2@@Z 0000000180021570 f   NpFactory.obj
 0001:00020720       ?addRigidDynamic@NpFactory@physx@@QEAAXPEAVPxRigidDynamic@2@_N@Z 0000000180021720 f   NpFactory.obj
 0001:000207a0       ?releaseRigidDynamicToPool@NpFactory@physx@@QEAAXAEAVNpRigidDynamic@2@@Z 00000001800217a0 f   NpFactory.obj
 0001:00020800       ?createRigidStatic@NpFactory@physx@@QEAAPEAVPxRigidStatic@2@AEBVPxTransform@2@@Z 0000000180021800 f   NpFactory.obj
 0001:000209b0       ?addRigidStatic@NpFactory@physx@@QEAAXPEAVPxRigidStatic@2@_N@Z 00000001800219b0 f   NpFactory.obj
 0001:00020a30       ?releaseRigidStaticToPool@NpFactory@physx@@QEAAXAEAVNpRigidStatic@2@@Z 0000000180021a30 f   NpFactory.obj
 0001:00020a90       ?createShape@NpFactory@physx@@QEAAPEAVNpShape@2@AEBVPxGeometry@2@V?$PxFlags@W4Enum@PxShapeFlag@physx@@E@2@PEBQEAVPxMaterial@2@G_N@Z 0000000180021a90 f   NpFactory.obj
 0001:00020de0       ?addShape@NpFactory@physx@@QEAAXPEAVPxShape@2@_N@Z 0000000180021de0 f   NpFactory.obj
 0001:00020e60       ?releaseShapeToPool@NpFactory@physx@@QEAAXAEAVNpShape@2@@Z 0000000180021e60 f   NpFactory.obj
 0001:00020ec0       ?getNbShapes@NpFactory@physx@@QEBAIXZ 0000000180021ec0 f   NpFactory.obj
 0001:00020ed0       ?getShapes@NpFactory@physx@@QEBAIPEAPEAVPxShape@2@II@Z 0000000180021ed0 f   NpFactory.obj
 0001:00020f30       ?createConstraint@NpFactory@physx@@QEAAPEAVPxConstraint@2@PEAVPxRigidActor@2@0AEAVPxConstraintConnector@2@AEBUPxConstraintShaderTable@2@I@Z 0000000180021f30 f   NpFactory.obj
 0001:00021110       ?addConstraint@NpFactory@physx@@QEAAXPEAVPxConstraint@2@_N@Z 0000000180022110 f   NpFactory.obj
 0001:00021190       ?releaseConstraintToPool@NpFactory@physx@@QEAAXAEAVNpConstraint@2@@Z 0000000180022190 f   NpFactory.obj
 0001:000211f0       ?createArticulation@NpFactory@physx@@QEAAPEAVPxArticulation@2@XZ 00000001800221f0 f   NpFactory.obj
 0001:000212a0       ?addArticulation@NpFactory@physx@@QEAAXPEAVPxArticulationBase@2@_N@Z 00000001800222a0 f   NpFactory.obj
 0001:00021320       ?releaseArticulationToPool@NpFactory@physx@@QEAAXAEAVPxArticulationBase@2@@Z 0000000180022320 f   NpFactory.obj
 0001:000213d0       ?createArticulationRC@NpFactory@physx@@QEAAPEAVPxArticulationReducedCoordinate@2@XZ 00000001800223d0 f   NpFactory.obj
 0001:00021480       ?createNpArticulation@NpFactory@physx@@QEAAPEAVNpArticulation@2@XZ 0000000180022480 f   NpFactory.obj
 0001:000215f0       ?createNpArticulationRC@NpFactory@physx@@QEAAPEAVNpArticulationReducedCoordinate@2@XZ 00000001800225f0 f   NpFactory.obj
 0001:00021760       ?createNpArticulationLink@NpFactory@physx@@QEAAPEAVNpArticulationLink@2@AEAVPxArticulationBase@2@PEAV32@AEBVPxTransform@2@@Z 0000000180022760 f   NpFactory.obj
 0001:000218e0       ?releaseArticulationLinkToPool@NpFactory@physx@@QEAAXAEAVNpArticulationLink@2@@Z 00000001800228e0 f   NpFactory.obj
 0001:00021940       ?createArticulationLink@NpFactory@physx@@QEAAPEAVPxArticulationLink@2@AEAVPxArticulationBase@2@PEAVNpArticulationLink@2@AEBVPxTransform@2@@Z 0000000180022940 f   NpFactory.obj
 0001:000219a0       ?createNpArticulationJoint@NpFactory@physx@@QEAAPEAVNpArticulationJoint@2@AEAVNpArticulationLink@2@AEBVPxTransform@2@01@Z 00000001800229a0 f   NpFactory.obj
 0001:00021b30       ?releaseArticulationJointToPool@NpFactory@physx@@QEAAXAEAVNpArticulationJoint@2@@Z 0000000180022b30 f   NpFactory.obj
 0001:00021b90       ?createNpArticulationJointRC@NpFactory@physx@@QEAAPEAVNpArticulationJointReducedCoordinate@2@AEAVNpArticulationLink@2@AEBVPxTransform@2@01@Z 0000000180022b90 f   NpFactory.obj
 0001:00021d20       ?releaseArticulationJointRCToPool@NpFactory@physx@@QEAAXAEAVNpArticulationJointReducedCoordinate@2@@Z 0000000180022d20 f   NpFactory.obj
 0001:00021d80       ?createAggregate@NpFactory@physx@@QEAAPEAVPxAggregate@2@I_N@Z 0000000180022d80 f   NpFactory.obj
 0001:00021f40       ?addAggregate@NpFactory@physx@@QEAAXPEAVPxAggregate@2@_N@Z 0000000180022f40 f   NpFactory.obj
 0001:00021fc0       ?releaseAggregateToPool@NpFactory@physx@@QEAAXAEAVNpAggregate@2@@Z 0000000180022fc0 f   NpFactory.obj
 0001:00022020       ?createMaterial@NpFactory@physx@@QEAAPEAVPxMaterial@2@MMM@Z 0000000180023020 f   NpFactory.obj
 0001:00022200       ?releaseMaterialToPool@NpFactory@physx@@QEAAXAEAVNpMaterial@2@@Z 0000000180023200 f   NpFactory.obj
 0001:00022260       ?onActorRelease@NpFactory@physx@@QEAAXPEAVPxActor@2@@Z 0000000180023260 f   NpFactory.obj
 0001:00022390       ?onConstraintRelease@NpFactory@physx@@QEAAXPEAVPxConstraint@2@@Z 0000000180023390 f   NpFactory.obj
 0001:000224c0       ?onAggregateRelease@NpFactory@physx@@QEAAXPEAVPxAggregate@2@@Z 00000001800234c0 f   NpFactory.obj
 0001:000225f0       ?onArticulationRelease@NpFactory@physx@@QEAAXPEAVPxArticulationBase@2@@Z 00000001800235f0 f   NpFactory.obj
 0001:00022720       ?onShapeRelease@NpFactory@physx@@QEAAXPEAVPxShape@2@@Z 0000000180023720 f   NpFactory.obj
 0001:00022760       ?acquireConnectorArray@NpFactory@physx@@QEAAPEAVNpConnectorArray@2@XZ 0000000180023760 f   NpFactory.obj
 0001:000228c0       ?releaseConnectorArray@NpFactory@physx@@QEAAXPEAVNpConnectorArray@2@@Z 00000001800238c0 f   NpFactory.obj
 0001:00022960       ?NpDestroy@physx@@YAXAEAVBase@Scb@1@@Z 0000000180023960 f   NpFactory.obj
 0001:00023b00       ??$sort@PEAXU?$Less@PEAX@shdfnd@physx@@V?$ReflectionAllocator@V?$PtrBlock@$03@NpPtrTableStorageManager@physx@@@23@@shdfnd@physx@@YAXPEAPEAXIAEBU?$Less@PEAX@01@AEBV?$ReflectionAllocator@V?$PtrBlock@$03@NpPtrTableStorageManager@physx@@@01@I@Z 0000000180024b00 f i NpFactory.obj
 0001:00023f60       ??$sort@PEAXU?$Less@PEAX@shdfnd@physx@@V?$ReflectionAllocator@V?$PtrBlock@$0BA@@NpPtrTableStorageManager@physx@@@23@@shdfnd@physx@@YAXPEAPEAXIAEBU?$Less@PEAX@01@AEBV?$ReflectionAllocator@V?$PtrBlock@$0BA@@NpPtrTableStorageManager@physx@@@01@I@Z 0000000180024f60 f i NpFactory.obj
 0001:000243c0       ??$sort@PEAXU?$Less@PEAX@shdfnd@physx@@V?$ReflectionAllocator@V?$PtrBlock@$0EA@@NpPtrTableStorageManager@physx@@@23@@shdfnd@physx@@YAXPEAPEAXIAEBU?$Less@PEAX@01@AEBV?$ReflectionAllocator@V?$PtrBlock@$0EA@@NpPtrTableStorageManager@physx@@@01@I@Z 00000001800253c0 f i NpFactory.obj
 0001:00024820       ??$sort@PEAXU?$Less@PEAX@shdfnd@physx@@V?$ReflectionAllocator@VNpAggregate@physx@@@23@@shdfnd@physx@@YAXPEAPEAXIAEBU?$Less@PEAX@01@AEBV?$ReflectionAllocator@VNpAggregate@physx@@@01@I@Z 0000000180025820 f i NpFactory.obj
 0001:00024c80       ??$sort@PEAXU?$Less@PEAX@shdfnd@physx@@V?$ReflectionAllocator@VNpArticulation@physx@@@23@@shdfnd@physx@@YAXPEAPEAXIAEBU?$Less@PEAX@01@AEBV?$ReflectionAllocator@VNpArticulation@physx@@@01@I@Z 0000000180025c80 f i NpFactory.obj
 0001:000250e0       ??$sort@PEAXU?$Less@PEAX@shdfnd@physx@@V?$ReflectionAllocator@VNpArticulationJoint@physx@@@23@@shdfnd@physx@@YAXPEAPEAXIAEBU?$Less@PEAX@01@AEBV?$ReflectionAllocator@VNpArticulationJoint@physx@@@01@I@Z 00000001800260e0 f i NpFactory.obj
 0001:00025540       ??$sort@PEAXU?$Less@PEAX@shdfnd@physx@@V?$ReflectionAllocator@VNpArticulationJointReducedCoordinate@physx@@@23@@shdfnd@physx@@YAXPEAPEAXIAEBU?$Less@PEAX@01@AEBV?$ReflectionAllocator@VNpArticulationJointReducedCoordinate@physx@@@01@I@Z 0000000180026540 f i NpFactory.obj
 0001:000259a0       ??$sort@PEAXU?$Less@PEAX@shdfnd@physx@@V?$ReflectionAllocator@VNpArticulationLink@physx@@@23@@shdfnd@physx@@YAXPEAPEAXIAEBU?$Less@PEAX@01@AEBV?$ReflectionAllocator@VNpArticulationLink@physx@@@01@I@Z 00000001800269a0 f i NpFactory.obj
 0001:00025e00       ??$sort@PEAXU?$Less@PEAX@shdfnd@physx@@V?$ReflectionAllocator@VNpArticulationReducedCoordinate@physx@@@23@@shdfnd@physx@@YAXPEAPEAXIAEBU?$Less@PEAX@01@AEBV?$ReflectionAllocator@VNpArticulationReducedCoordinate@physx@@@01@I@Z 0000000180026e00 f i NpFactory.obj
 0001:00026260       ??$sort@PEAXU?$Less@PEAX@shdfnd@physx@@V?$ReflectionAllocator@VNpConnectorArray@physx@@@23@@shdfnd@physx@@YAXPEAPEAXIAEBU?$Less@PEAX@01@AEBV?$ReflectionAllocator@VNpConnectorArray@physx@@@01@I@Z 0000000180027260 f i NpFactory.obj
 0001:000266c0       ??$sort@PEAXU?$Less@PEAX@shdfnd@physx@@V?$ReflectionAllocator@VNpConstraint@physx@@@23@@shdfnd@physx@@YAXPEAPEAXIAEBU?$Less@PEAX@01@AEBV?$ReflectionAllocator@VNpConstraint@physx@@@01@I@Z 00000001800276c0 f i NpFactory.obj
 0001:00026b20       ??$sort@PEAXU?$Less@PEAX@shdfnd@physx@@V?$ReflectionAllocator@VNpMaterial@physx@@@23@@shdfnd@physx@@YAXPEAPEAXIAEBU?$Less@PEAX@01@AEBV?$ReflectionAllocator@VNpMaterial@physx@@@01@I@Z 0000000180027b20 f i NpFactory.obj
 0001:00026f80       ??$sort@PEAXU?$Less@PEAX@shdfnd@physx@@V?$ReflectionAllocator@VNpRigidDynamic@physx@@@23@@shdfnd@physx@@YAXPEAPEAXIAEBU?$Less@PEAX@01@AEBV?$ReflectionAllocator@VNpRigidDynamic@physx@@@01@I@Z 0000000180027f80 f i NpFactory.obj
 0001:000273e0       ??$sort@PEAXU?$Less@PEAX@shdfnd@physx@@V?$ReflectionAllocator@VNpRigidStatic@physx@@@23@@shdfnd@physx@@YAXPEAPEAXIAEBU?$Less@PEAX@01@AEBV?$ReflectionAllocator@VNpRigidStatic@physx@@@01@I@Z 00000001800283e0 f i NpFactory.obj
 0001:00027840       ??$sort@PEAXU?$Less@PEAX@shdfnd@physx@@V?$ReflectionAllocator@VNpShape@physx@@@23@@shdfnd@physx@@YAXPEAPEAXIAEBU?$Less@PEAX@01@AEBV?$ReflectionAllocator@VNpShape@physx@@@01@I@Z 0000000180028840 f i NpFactory.obj
 0001:00027ca0       ??1?$Array@PEAXV?$InlineAllocator@$0CAA@V?$ReflectionAllocator@V?$PtrBlock@$03@NpPtrTableStorageManager@physx@@@shdfnd@physx@@@shdfnd@physx@@@shdfnd@physx@@QEAA@XZ 0000000180028ca0 f i NpFactory.obj
 0001:00027d10       ??1?$Array@PEAXV?$InlineAllocator@$0CAA@V?$ReflectionAllocator@V?$PtrBlock@$0BA@@NpPtrTableStorageManager@physx@@@shdfnd@physx@@@shdfnd@physx@@@shdfnd@physx@@QEAA@XZ 0000000180028d10 f i NpFactory.obj
 0001:00027d80       ??1?$Array@PEAXV?$InlineAllocator@$0CAA@V?$ReflectionAllocator@V?$PtrBlock@$0EA@@NpPtrTableStorageManager@physx@@@shdfnd@physx@@@shdfnd@physx@@@shdfnd@physx@@QEAA@XZ 0000000180028d80 f i NpFactory.obj
 0001:00027df0       ??1?$Array@PEAXV?$InlineAllocator@$0CAA@V?$ReflectionAllocator@VNpAggregate@physx@@@shdfnd@physx@@@shdfnd@physx@@@shdfnd@physx@@QEAA@XZ 0000000180028df0 f i NpFactory.obj
 0001:00027e60       ??1?$Array@PEAXV?$InlineAllocator@$0CAA@V?$ReflectionAllocator@VNpArticulation@physx@@@shdfnd@physx@@@shdfnd@physx@@@shdfnd@physx@@QEAA@XZ 0000000180028e60 f i NpFactory.obj
 0001:00027ed0       ??1?$Array@PEAXV?$InlineAllocator@$0CAA@V?$ReflectionAllocator@VNpArticulationJoint@physx@@@shdfnd@physx@@@shdfnd@physx@@@shdfnd@physx@@QEAA@XZ 0000000180028ed0 f i NpFactory.obj
 0001:00027f40       ??1?$Array@PEAXV?$InlineAllocator@$0CAA@V?$ReflectionAllocator@VNpArticulationJointReducedCoordinate@physx@@@shdfnd@physx@@@shdfnd@physx@@@shdfnd@physx@@QEAA@XZ 0000000180028f40 f i NpFactory.obj
 0001:00027fb0       ??1?$Array@PEAXV?$InlineAllocator@$0CAA@V?$ReflectionAllocator@VNpArticulationLink@physx@@@shdfnd@physx@@@shdfnd@physx@@@shdfnd@physx@@QEAA@XZ 0000000180028fb0 f i NpFactory.obj
 0001:00028020       ??1?$Array@PEAXV?$InlineAllocator@$0CAA@V?$ReflectionAllocator@VNpArticulationReducedCoordinate@physx@@@shdfnd@physx@@@shdfnd@physx@@@shdfnd@physx@@QEAA@XZ 0000000180029020 f i NpFactory.obj
 0001:00028090       ??1?$Array@PEAXV?$InlineAllocator@$0CAA@V?$ReflectionAllocator@VNpConnectorArray@physx@@@shdfnd@physx@@@shdfnd@physx@@@shdfnd@physx@@QEAA@XZ 0000000180029090 f i NpFactory.obj
 0001:00028100       ??1?$Array@PEAXV?$InlineAllocator@$0CAA@V?$ReflectionAllocator@VNpConstraint@physx@@@shdfnd@physx@@@shdfnd@physx@@@shdfnd@physx@@QEAA@XZ 0000000180029100 f i NpFactory.obj
 0001:00028170       ??1?$Array@PEAXV?$InlineAllocator@$0CAA@V?$ReflectionAllocator@VNpMaterial@physx@@@shdfnd@physx@@@shdfnd@physx@@@shdfnd@physx@@QEAA@XZ 0000000180029170 f i NpFactory.obj
 0001:000281e0       ??1?$Array@PEAXV?$InlineAllocator@$0CAA@V?$ReflectionAllocator@VNpRigidDynamic@physx@@@shdfnd@physx@@@shdfnd@physx@@@shdfnd@physx@@QEAA@XZ 00000001800291e0 f i NpFactory.obj
 0001:00028250       ??1?$Array@PEAXV?$InlineAllocator@$0CAA@V?$ReflectionAllocator@VNpRigidStatic@physx@@@shdfnd@physx@@@shdfnd@physx@@@shdfnd@physx@@QEAA@XZ 0000000180029250 f i NpFactory.obj
 0001:000282c0       ??1?$Array@PEAXV?$InlineAllocator@$0CAA@V?$ReflectionAllocator@VNpShape@physx@@@shdfnd@physx@@@shdfnd@physx@@@shdfnd@physx@@QEAA@XZ 00000001800292c0 f i NpFactory.obj
 0001:00028330       ??1?$PoolBase@V?$PtrBlock@$03@NpPtrTableStorageManager@physx@@V?$ReflectionAllocator@V?$PtrBlock@$03@NpPtrTableStorageManager@physx@@@shdfnd@3@@shdfnd@physx@@QEAA@XZ 0000000180029330 f i NpFactory.obj
 0001:00028490       ??1?$PoolBase@V?$PtrBlock@$0BA@@NpPtrTableStorageManager@physx@@V?$ReflectionAllocator@V?$PtrBlock@$0BA@@NpPtrTableStorageManager@physx@@@shdfnd@3@@shdfnd@physx@@QEAA@XZ 0000000180029490 f i NpFactory.obj
 0001:000285f0       ??1?$PoolBase@V?$PtrBlock@$0EA@@NpPtrTableStorageManager@physx@@V?$ReflectionAllocator@V?$PtrBlock@$0EA@@NpPtrTableStorageManager@physx@@@shdfnd@3@@shdfnd@physx@@QEAA@XZ 00000001800295f0 f i NpFactory.obj
 0001:00028750       ??1?$PoolBase@VNpAggregate@physx@@V?$ReflectionAllocator@VNpAggregate@physx@@@shdfnd@2@@shdfnd@physx@@QEAA@XZ 0000000180029750 f i NpFactory.obj
 0001:00028950       ??1?$PoolBase@VNpArticulation@physx@@V?$ReflectionAllocator@VNpArticulation@physx@@@shdfnd@2@@shdfnd@physx@@QEAA@XZ 0000000180029950 f i NpFactory.obj
 0001:00028b50       ??1?$PoolBase@VNpArticulationJoint@physx@@V?$ReflectionAllocator@VNpArticulationJoint@physx@@@shdfnd@2@@shdfnd@physx@@QEAA@XZ 0000000180029b50 f i NpFactory.obj
 0001:00028d50       ??1?$PoolBase@VNpArticulationJointReducedCoordinate@physx@@V?$ReflectionAllocator@VNpArticulationJointReducedCoordinate@physx@@@shdfnd@2@@shdfnd@physx@@QEAA@XZ 0000000180029d50 f i NpFactory.obj
 0001:00028f50       ??1?$PoolBase@VNpArticulationLink@physx@@V?$ReflectionAllocator@VNpArticulationLink@physx@@@shdfnd@2@@shdfnd@physx@@QEAA@XZ 0000000180029f50 f i NpFactory.obj
 0001:00029150       ??1?$PoolBase@VNpArticulationReducedCoordinate@physx@@V?$ReflectionAllocator@VNpArticulationReducedCoordinate@physx@@@shdfnd@2@@shdfnd@physx@@QEAA@XZ 000000018002a150 f i NpFactory.obj
 0001:00029350       ??1?$PoolBase@VNpConnectorArray@physx@@V?$ReflectionAllocator@VNpConnectorArray@physx@@@shdfnd@2@@shdfnd@physx@@QEAA@XZ 000000018002a350 f i NpFactory.obj
 0001:000293d0       ??1?$PoolBase@VNpConstraint@physx@@V?$ReflectionAllocator@VNpConstraint@physx@@@shdfnd@2@@shdfnd@physx@@QEAA@XZ 000000018002a3d0 f i NpFactory.obj
 0001:000295d0       ??1?$PoolBase@VNpMaterial@physx@@V?$ReflectionAllocator@VNpMaterial@physx@@@shdfnd@2@@shdfnd@physx@@QEAA@XZ 000000018002a5d0 f i NpFactory.obj
 0001:000297d0       ??1?$PoolBase@VNpRigidDynamic@physx@@V?$ReflectionAllocator@VNpRigidDynamic@physx@@@shdfnd@2@@shdfnd@physx@@QEAA@XZ 000000018002a7d0 f i NpFactory.obj
 0001:000299d0       ??1?$PoolBase@VNpRigidStatic@physx@@V?$ReflectionAllocator@VNpRigidStatic@physx@@@shdfnd@2@@shdfnd@physx@@QEAA@XZ 000000018002a9d0 f i NpFactory.obj
 0001:00029bd0       ??1?$PoolBase@VNpShape@physx@@V?$ReflectionAllocator@VNpShape@physx@@@shdfnd@2@@shdfnd@physx@@QEAA@XZ 000000018002abd0 f i NpFactory.obj
 0001:00029dd0       ??1PtrTableStorageManager@Cm@physx@@MEAA@XZ 000000018002add0 f i NpFactory.obj
 0001:00029de0       ??_ENpFactory@physx@@EEAAPEAXI@Z 000000018002ade0 f i NpFactory.obj
 0001:00029de0       ??_GNpFactory@physx@@EEAAPEAXI@Z 000000018002ade0 f i NpFactory.obj
 0001:00029e40       ??_GNpPtrTableStorageManager@physx@@UEAAPEAXI@Z 000000018002ae40 f i NpFactory.obj
 0001:00029e40       ??_ENpPtrTableStorageManager@physx@@UEAAPEAXI@Z 000000018002ae40 f i NpFactory.obj
 0001:00029f00       ??_EPtrTableStorageManager@Cm@physx@@MEAAPEAXI@Z 000000018002af00 f i NpFactory.obj
 0001:00029f00       ??_GPtrTableStorageManager@Cm@physx@@MEAAPEAXI@Z 000000018002af00 f i NpFactory.obj
 0001:00029f30       ?allocate@?$Array@PEAVPxActor@physx@@V?$ReflectionAllocator@PEAVPxActor@physx@@@shdfnd@2@@shdfnd@physx@@IEAAPEAPEAVPxActor@3@I@Z 000000018002af30 f i NpFactory.obj
 0001:00029fd0       ?allocate@?$Array@PEAVPxAggregate@physx@@V?$ReflectionAllocator@PEAVPxAggregate@physx@@@shdfnd@2@@shdfnd@physx@@IEAAPEAPEAVPxAggregate@3@I@Z 000000018002afd0 f i NpFactory.obj
 0001:0002a070       ?allocate@?$Array@PEAVPxArticulationBase@physx@@V?$ReflectionAllocator@PEAVPxArticulationBase@physx@@@shdfnd@2@@shdfnd@physx@@IEAAPEAPEAVPxArticulationBase@3@I@Z 000000018002b070 f i NpFactory.obj
 0001:0002a110       ?allocate@?$Array@PEAVPxConstraint@physx@@V?$ReflectionAllocator@PEAVPxConstraint@physx@@@shdfnd@2@@shdfnd@physx@@IEAAPEAPEAVPxConstraint@3@I@Z 000000018002b110 f i NpFactory.obj
 0001:0002a1b0       ?allocate@?$ReflectionAllocator@G@shdfnd@physx@@QEAAPEAX_KPEBDH@Z 000000018002b1b0 f i NpFactory.obj
 0001:0002a250       ?allocate@?$ReflectionAllocator@V?$PtrBlock@$03@NpPtrTableStorageManager@physx@@@shdfnd@physx@@QEAAPEAX_KPEBDH@Z 000000018002b250 f i NpFactory.obj
 0001:0002a2f0       ?allocate@?$ReflectionAllocator@V?$PtrBlock@$0BA@@NpPtrTableStorageManager@physx@@@shdfnd@physx@@QEAAPEAX_KPEBDH@Z 000000018002b2f0 f i NpFactory.obj
 0001:0002a390       ?allocate@?$ReflectionAllocator@V?$PtrBlock@$0EA@@NpPtrTableStorageManager@physx@@@shdfnd@physx@@QEAAPEAX_KPEBDH@Z 000000018002b390 f i NpFactory.obj
 0001:0002a430       ?allocate@?$ReflectionAllocator@VNpAggregate@physx@@@shdfnd@physx@@QEAAPEAX_KPEBDH@Z 000000018002b430 f i NpFactory.obj
 0001:0002a4d0       ?allocate@?$ReflectionAllocator@VNpArticulation@physx@@@shdfnd@physx@@QEAAPEAX_KPEBDH@Z 000000018002b4d0 f i NpFactory.obj
 0001:0002a570       ?allocate@?$ReflectionAllocator@VNpArticulationJoint@physx@@@shdfnd@physx@@QEAAPEAX_KPEBDH@Z 000000018002b570 f i NpFactory.obj
 0001:0002a610       ?allocate@?$ReflectionAllocator@VNpArticulationJointReducedCoordinate@physx@@@shdfnd@physx@@QEAAPEAX_KPEBDH@Z 000000018002b610 f i NpFactory.obj
 0001:0002a6b0       ?allocate@?$ReflectionAllocator@VNpArticulationLink@physx@@@shdfnd@physx@@QEAAPEAX_KPEBDH@Z 000000018002b6b0 f i NpFactory.obj
 0001:0002a750       ?allocate@?$ReflectionAllocator@VNpArticulationReducedCoordinate@physx@@@shdfnd@physx@@QEAAPEAX_KPEBDH@Z 000000018002b750 f i NpFactory.obj
 0001:0002a7f0       ?allocate@?$ReflectionAllocator@VNpConnectorArray@physx@@@shdfnd@physx@@QEAAPEAX_KPEBDH@Z 000000018002b7f0 f i NpFactory.obj
 0001:0002a890       ?allocate@?$ReflectionAllocator@VNpConstraint@physx@@@shdfnd@physx@@QEAAPEAX_KPEBDH@Z 000000018002b890 f i NpFactory.obj
 0001:0002a930       ?allocate@?$ReflectionAllocator@VNpMaterial@physx@@@shdfnd@physx@@QEAAPEAX_KPEBDH@Z 000000018002b930 f i NpFactory.obj
 0001:0002a9d0       ?allocate@?$ReflectionAllocator@VNpRigidDynamic@physx@@@shdfnd@physx@@QEAAPEAX_KPEBDH@Z 000000018002b9d0 f i NpFactory.obj
 0001:0002aa70       ?allocate@?$ReflectionAllocator@VNpRigidStatic@physx@@@shdfnd@physx@@QEAAPEAX_KPEBDH@Z 000000018002ba70 f i NpFactory.obj
 0001:0002ab10       ?allocate@?$ReflectionAllocator@VNpShape@physx@@@shdfnd@physx@@QEAAPEAX_KPEBDH@Z 000000018002bb10 f i NpFactory.obj
 0001:0002abb0       ?allocate@NpPtrTableStorageManager@physx@@UEAAPEAPEAXI@Z 000000018002bbb0 f i NpFactory.obj
 0001:0002af90       ?canReuse@NpPtrTableStorageManager@physx@@UEAA_NII@Z 000000018002bf90 f i NpFactory.obj
 0001:0002afe0       ?create@?$HashBase@PEAVPxActor@physx@@PEAV12@U?$Hash@PEAVPxActor@physx@@@shdfnd@2@UGetKey@?$HashSetBase@PEAVPxActor@physx@@U?$Hash@PEAVPxActor@physx@@@shdfnd@2@VNonTrackingAllocator@42@$0A@@internal@42@VNonTrackingAllocator@42@$0A@@internal@shdfnd@physx@@QEAAPEAPEAVPxActor@4@AEBQEAV54@AEA_N@Z 000000018002bfe0 f i NpFactory.obj
 0001:0002b190       ?create@?$HashBase@PEAVPxAggregate@physx@@PEAV12@U?$Hash@PEAVPxAggregate@physx@@@shdfnd@2@UGetKey@?$HashSetBase@PEAVPxAggregate@physx@@U?$Hash@PEAVPxAggregate@physx@@@shdfnd@2@VNonTrackingAllocator@42@$0A@@internal@42@VNonTrackingAllocator@42@$0A@@internal@shdfnd@physx@@QEAAPEAPEAVPxAggregate@4@AEBQEAV54@AEA_N@Z 000000018002c190 f i NpFactory.obj
 0001:0002b340       ?create@?$HashBase@PEAVPxArticulationBase@physx@@PEAV12@U?$Hash@PEAVPxArticulationBase@physx@@@shdfnd@2@UGetKey@?$HashSetBase@PEAVPxArticulationBase@physx@@U?$Hash@PEAVPxArticulationBase@physx@@@shdfnd@2@VNonTrackingAllocator@42@$0A@@internal@42@VNonTrackingAllocator@42@$0A@@internal@shdfnd@physx@@QEAAPEAPEAVPxArticulationBase@4@AEBQEAV54@AEA_N@Z 000000018002c340 f i NpFactory.obj
 0001:0002b4f0       ?create@?$HashBase@PEAVPxConstraint@physx@@PEAV12@U?$Hash@PEAVPxConstraint@physx@@@shdfnd@2@UGetKey@?$HashSetBase@PEAVPxConstraint@physx@@U?$Hash@PEAVPxConstraint@physx@@@shdfnd@2@VNonTrackingAllocator@42@$0A@@internal@42@VNonTrackingAllocator@42@$0A@@internal@shdfnd@physx@@QEAAPEAPEAVPxConstraint@4@AEBQEAV54@AEA_N@Z 000000018002c4f0 f i NpFactory.obj
 0001:0002b6a0       ?create@?$HashBase@PEAVPxShape@physx@@PEAV12@U?$Hash@PEAVPxShape@physx@@@shdfnd@2@UGetKey@?$HashSetBase@PEAVPxShape@physx@@U?$Hash@PEAVPxShape@physx@@@shdfnd@2@VNonTrackingAllocator@42@$00@internal@42@VNonTrackingAllocator@42@$00@internal@shdfnd@physx@@QEAAPEAPEAVPxShape@4@AEBQEAV54@AEA_N@Z 000000018002c6a0 f i NpFactory.obj
 0001:0002b840       ?deallocate@NpPtrTableStorageManager@physx@@UEAAXPEAPEAXI@Z 000000018002c840 f i NpFactory.obj
 0001:0002b8f0       ?disposeElements@?$PoolBase@VNpConnectorArray@physx@@V?$ReflectionAllocator@VNpConnectorArray@physx@@@shdfnd@2@@shdfnd@physx@@IEAAXXZ 000000018002c8f0 f i NpFactory.obj
 0001:0002baf0       ?erase@?$HashBase@PEAVPxShape@physx@@PEAV12@U?$Hash@PEAVPxShape@physx@@@shdfnd@2@UGetKey@?$HashSetBase@PEAVPxShape@physx@@U?$Hash@PEAVPxShape@physx@@@shdfnd@2@VNonTrackingAllocator@42@$00@internal@42@VNonTrackingAllocator@42@$00@internal@shdfnd@physx@@QEAA_NAEBQEAVPxShape@4@@Z 000000018002caf0 f i NpFactory.obj
 0001:0002bc60       ?growAndPushBack@?$Array@PEAVPxActor@physx@@V?$ReflectionAllocator@PEAVPxActor@physx@@@shdfnd@2@@shdfnd@physx@@IEAAAEAPEAVPxActor@3@AEBQEAV43@@Z 000000018002cc60 f i NpFactory.obj
 0001:0002bd20       ?growAndPushBack@?$Array@PEAVPxAggregate@physx@@V?$ReflectionAllocator@PEAVPxAggregate@physx@@@shdfnd@2@@shdfnd@physx@@IEAAAEAPEAVPxAggregate@3@AEBQEAV43@@Z 000000018002cd20 f i NpFactory.obj
 0001:0002bde0       ?growAndPushBack@?$Array@PEAVPxArticulationBase@physx@@V?$ReflectionAllocator@PEAVPxArticulationBase@physx@@@shdfnd@2@@shdfnd@physx@@IEAAAEAPEAVPxArticulationBase@3@AEBQEAV43@@Z 000000018002cde0 f i NpFactory.obj
 0001:0002bea0       ?growAndPushBack@?$Array@PEAVPxConstraint@physx@@V?$ReflectionAllocator@PEAVPxConstraint@physx@@@shdfnd@2@@shdfnd@physx@@IEAAAEAPEAVPxConstraint@3@AEBQEAV43@@Z 000000018002cea0 f i NpFactory.obj
 0001:0002bf60       ?growAndPushBack@?$Array@PEAXV?$InlineAllocator@$0CAA@V?$ReflectionAllocator@V?$PtrBlock@$03@NpPtrTableStorageManager@physx@@@shdfnd@physx@@@shdfnd@physx@@@shdfnd@physx@@IEAAAEAPEAXAEBQEAX@Z 000000018002cf60 f i NpFactory.obj
 0001:0002c080       ?growAndPushBack@?$Array@PEAXV?$InlineAllocator@$0CAA@V?$ReflectionAllocator@V?$PtrBlock@$0BA@@NpPtrTableStorageManager@physx@@@shdfnd@physx@@@shdfnd@physx@@@shdfnd@physx@@IEAAAEAPEAXAEBQEAX@Z 000000018002d080 f i NpFactory.obj
 0001:0002c1a0       ?growAndPushBack@?$Array@PEAXV?$InlineAllocator@$0CAA@V?$ReflectionAllocator@V?$PtrBlock@$0EA@@NpPtrTableStorageManager@physx@@@shdfnd@physx@@@shdfnd@physx@@@shdfnd@physx@@IEAAAEAPEAXAEBQEAX@Z 000000018002d1a0 f i NpFactory.obj
 0001:0002c2c0       ?growAndPushBack@?$Array@PEAXV?$InlineAllocator@$0CAA@V?$ReflectionAllocator@VNpAggregate@physx@@@shdfnd@physx@@@shdfnd@physx@@@shdfnd@physx@@IEAAAEAPEAXAEBQEAX@Z 000000018002d2c0 f i NpFactory.obj
 0001:0002c3e0       ?growAndPushBack@?$Array@PEAXV?$InlineAllocator@$0CAA@V?$ReflectionAllocator@VNpArticulation@physx@@@shdfnd@physx@@@shdfnd@physx@@@shdfnd@physx@@IEAAAEAPEAXAEBQEAX@Z 000000018002d3e0 f i NpFactory.obj
 0001:0002c500       ?growAndPushBack@?$Array@PEAXV?$InlineAllocator@$0CAA@V?$ReflectionAllocator@VNpArticulationJoint@physx@@@shdfnd@physx@@@shdfnd@physx@@@shdfnd@physx@@IEAAAEAPEAXAEBQEAX@Z 000000018002d500 f i NpFactory.obj
 0001:0002c620       ?growAndPushBack@?$Array@PEAXV?$InlineAllocator@$0CAA@V?$ReflectionAllocator@VNpArticulationJointReducedCoordinate@physx@@@shdfnd@physx@@@shdfnd@physx@@@shdfnd@physx@@IEAAAEAPEAXAEBQEAX@Z 000000018002d620 f i NpFactory.obj
 0001:0002c740       ?growAndPushBack@?$Array@PEAXV?$InlineAllocator@$0CAA@V?$ReflectionAllocator@VNpArticulationLink@physx@@@shdfnd@physx@@@shdfnd@physx@@@shdfnd@physx@@IEAAAEAPEAXAEBQEAX@Z 000000018002d740 f i NpFactory.obj
 0001:0002c860       ?growAndPushBack@?$Array@PEAXV?$InlineAllocator@$0CAA@V?$ReflectionAllocator@VNpArticulationReducedCoordinate@physx@@@shdfnd@physx@@@shdfnd@physx@@@shdfnd@physx@@IEAAAEAPEAXAEBQEAX@Z 000000018002d860 f i NpFactory.obj
 0001:0002c980       ?growAndPushBack@?$Array@PEAXV?$InlineAllocator@$0CAA@V?$ReflectionAllocator@VNpConnectorArray@physx@@@shdfnd@physx@@@shdfnd@physx@@@shdfnd@physx@@IEAAAEAPEAXAEBQEAX@Z 000000018002d980 f i NpFactory.obj
 0001:0002caa0       ?growAndPushBack@?$Array@PEAXV?$InlineAllocator@$0CAA@V?$ReflectionAllocator@VNpConstraint@physx@@@shdfnd@physx@@@shdfnd@physx@@@shdfnd@physx@@IEAAAEAPEAXAEBQEAX@Z 000000018002daa0 f i NpFactory.obj
 0001:0002cbc0       ?growAndPushBack@?$Array@PEAXV?$InlineAllocator@$0CAA@V?$ReflectionAllocator@VNpMaterial@physx@@@shdfnd@physx@@@shdfnd@physx@@@shdfnd@physx@@IEAAAEAPEAXAEBQEAX@Z 000000018002dbc0 f i NpFactory.obj
 0001:0002cce0       ?growAndPushBack@?$Array@PEAXV?$InlineAllocator@$0CAA@V?$ReflectionAllocator@VNpRigidDynamic@physx@@@shdfnd@physx@@@shdfnd@physx@@@shdfnd@physx@@IEAAAEAPEAXAEBQEAX@Z 000000018002dce0 f i NpFactory.obj
 0001:0002ce00       ?growAndPushBack@?$Array@PEAXV?$InlineAllocator@$0CAA@V?$ReflectionAllocator@VNpRigidStatic@physx@@@shdfnd@physx@@@shdfnd@physx@@@shdfnd@physx@@IEAAAEAPEAXAEBQEAX@Z 000000018002de00 f i NpFactory.obj
 0001:0002cf20       ?growAndPushBack@?$Array@PEAXV?$InlineAllocator@$0CAA@V?$ReflectionAllocator@VNpShape@physx@@@shdfnd@physx@@@shdfnd@physx@@@shdfnd@physx@@IEAAAEAPEAXAEBQEAX@Z 000000018002df20 f i NpFactory.obj
 0001:0002d040       ?growAndPushBack@?$Array@PEAXV?$ReflectionAllocator@V?$PtrBlock@$03@NpPtrTableStorageManager@physx@@@shdfnd@physx@@@shdfnd@physx@@IEAAAEAPEAXAEBQEAX@Z 000000018002e040 f i NpFactory.obj
 0001:0002d120       ?growAndPushBack@?$Array@PEAXV?$ReflectionAllocator@V?$PtrBlock@$0BA@@NpPtrTableStorageManager@physx@@@shdfnd@physx@@@shdfnd@physx@@IEAAAEAPEAXAEBQEAX@Z 000000018002e120 f i NpFactory.obj
 0001:0002d200       ?growAndPushBack@?$Array@PEAXV?$ReflectionAllocator@V?$PtrBlock@$0EA@@NpPtrTableStorageManager@physx@@@shdfnd@physx@@@shdfnd@physx@@IEAAAEAPEAXAEBQEAX@Z 000000018002e200 f i NpFactory.obj
 0001:0002d2e0       ?growAndPushBack@?$Array@PEAXV?$ReflectionAllocator@VNpAggregate@physx@@@shdfnd@physx@@@shdfnd@physx@@IEAAAEAPEAXAEBQEAX@Z 000000018002e2e0 f i NpFactory.obj
 0001:0002d3c0       ?growAndPushBack@?$Array@PEAXV?$ReflectionAllocator@VNpArticulation@physx@@@shdfnd@physx@@@shdfnd@physx@@IEAAAEAPEAXAEBQEAX@Z 000000018002e3c0 f i NpFactory.obj
 0001:0002d4a0       ?growAndPushBack@?$Array@PEAXV?$ReflectionAllocator@VNpArticulationJoint@physx@@@shdfnd@physx@@@shdfnd@physx@@IEAAAEAPEAXAEBQEAX@Z 000000018002e4a0 f i NpFactory.obj
 0001:0002d580       ?growAndPushBack@?$Array@PEAXV?$ReflectionAllocator@VNpArticulationJointReducedCoordinate@physx@@@shdfnd@physx@@@shdfnd@physx@@IEAAAEAPEAXAEBQEAX@Z 000000018002e580 f i NpFactory.obj
 0001:0002d660       ?growAndPushBack@?$Array@PEAXV?$ReflectionAllocator@VNpArticulationLink@physx@@@shdfnd@physx@@@shdfnd@physx@@IEAAAEAPEAXAEBQEAX@Z 000000018002e660 f i NpFactory.obj
 0001:0002d740       ?growAndPushBack@?$Array@PEAXV?$ReflectionAllocator@VNpArticulationReducedCoordinate@physx@@@shdfnd@physx@@@shdfnd@physx@@IEAAAEAPEAXAEBQEAX@Z 000000018002e740 f i NpFactory.obj
 0001:0002d820       ?growAndPushBack@?$Array@PEAXV?$ReflectionAllocator@VNpConnectorArray@physx@@@shdfnd@physx@@@shdfnd@physx@@IEAAAEAPEAXAEBQEAX@Z 000000018002e820 f i NpFactory.obj
 0001:0002d900       ?growAndPushBack@?$Array@PEAXV?$ReflectionAllocator@VNpConstraint@physx@@@shdfnd@physx@@@shdfnd@physx@@IEAAAEAPEAXAEBQEAX@Z 000000018002e900 f i NpFactory.obj
 0001:0002d9e0       ?growAndPushBack@?$Array@PEAXV?$ReflectionAllocator@VNpMaterial@physx@@@shdfnd@physx@@@shdfnd@physx@@IEAAAEAPEAXAEBQEAX@Z 000000018002e9e0 f i NpFactory.obj
 0001:0002dac0       ?growAndPushBack@?$Array@PEAXV?$ReflectionAllocator@VNpRigidDynamic@physx@@@shdfnd@physx@@@shdfnd@physx@@IEAAAEAPEAXAEBQEAX@Z 000000018002eac0 f i NpFactory.obj
 0001:0002dba0       ?growAndPushBack@?$Array@PEAXV?$ReflectionAllocator@VNpRigidStatic@physx@@@shdfnd@physx@@@shdfnd@physx@@IEAAAEAPEAXAEBQEAX@Z 000000018002eba0 f i NpFactory.obj
 0001:0002dc80       ?growAndPushBack@?$Array@PEAXV?$ReflectionAllocator@VNpShape@physx@@@shdfnd@physx@@@shdfnd@physx@@IEAAAEAPEAXAEBQEAX@Z 000000018002ec80 f i NpFactory.obj
 0001:0002dd60       ?recreate@?$Array@GV?$InlineAllocator@$07V?$ReflectionAllocator@G@shdfnd@physx@@@shdfnd@physx@@@shdfnd@physx@@IEAAXI@Z 000000018002ed60 f i NpFactory.obj
 0001:0002de20       ?recreate@?$Array@PEAVPxActor@physx@@V?$ReflectionAllocator@PEAVPxActor@physx@@@shdfnd@2@@shdfnd@physx@@IEAAXI@Z 000000018002ee20 f i NpFactory.obj
 0001:0002dec0       ?recreate@?$Array@PEAVPxAggregate@physx@@V?$ReflectionAllocator@PEAVPxAggregate@physx@@@shdfnd@2@@shdfnd@physx@@IEAAXI@Z 000000018002eec0 f i NpFactory.obj
 0001:0002df60       ?recreate@?$Array@PEAVPxArticulationBase@physx@@V?$ReflectionAllocator@PEAVPxArticulationBase@physx@@@shdfnd@2@@shdfnd@physx@@IEAAXI@Z 000000018002ef60 f i NpFactory.obj
 0001:0002e000       ?recreate@?$Array@PEAVPxConstraint@physx@@V?$ReflectionAllocator@PEAVPxConstraint@physx@@@shdfnd@2@@shdfnd@physx@@IEAAXI@Z 000000018002f000 f i NpFactory.obj
 0001:0002e0a0       ?reserveInternal@?$HashBase@PEAVPxActor@physx@@PEAV12@U?$Hash@PEAVPxActor@physx@@@shdfnd@2@UGetKey@?$HashSetBase@PEAVPxActor@physx@@U?$Hash@PEAVPxActor@physx@@@shdfnd@2@VNonTrackingAllocator@42@$0A@@internal@42@VNonTrackingAllocator@42@$0A@@internal@shdfnd@physx@@AEAAXI@Z 000000018002f0a0 f i NpFactory.obj
 0001:0002e490       ?reserveInternal@?$HashBase@PEAVPxAggregate@physx@@PEAV12@U?$Hash@PEAVPxAggregate@physx@@@shdfnd@2@UGetKey@?$HashSetBase@PEAVPxAggregate@physx@@U?$Hash@PEAVPxAggregate@physx@@@shdfnd@2@VNonTrackingAllocator@42@$0A@@internal@42@VNonTrackingAllocator@42@$0A@@internal@shdfnd@physx@@AEAAXI@Z 000000018002f490 f i NpFactory.obj
 0001:0002e880       ?reserveInternal@?$HashBase@PEAVPxArticulationBase@physx@@PEAV12@U?$Hash@PEAVPxArticulationBase@physx@@@shdfnd@2@UGetKey@?$HashSetBase@PEAVPxArticulationBase@physx@@U?$Hash@PEAVPxArticulationBase@physx@@@shdfnd@2@VNonTrackingAllocator@42@$0A@@internal@42@VNonTrackingAllocator@42@$0A@@internal@shdfnd@physx@@AEAAXI@Z 000000018002f880 f i NpFactory.obj
 0001:0002ec70       ?reserveInternal@?$HashBase@PEAVPxConstraint@physx@@PEAV12@U?$Hash@PEAVPxConstraint@physx@@@shdfnd@2@UGetKey@?$HashSetBase@PEAVPxConstraint@physx@@U?$Hash@PEAVPxConstraint@physx@@@shdfnd@2@VNonTrackingAllocator@42@$0A@@internal@42@VNonTrackingAllocator@42@$0A@@internal@shdfnd@physx@@AEAAXI@Z 000000018002fc70 f i NpFactory.obj
 0001:0002f060       ?reserveInternal@?$HashBase@PEAVPxShape@physx@@PEAV12@U?$Hash@PEAVPxShape@physx@@@shdfnd@2@UGetKey@?$HashSetBase@PEAVPxShape@physx@@U?$Hash@PEAVPxShape@physx@@@shdfnd@2@VNonTrackingAllocator@42@$00@internal@42@VNonTrackingAllocator@42@$00@internal@shdfnd@physx@@AEAAXI@Z 0000000180030060 f i NpFactory.obj
 0001:0002f230       ?resize@?$Array@GV?$InlineAllocator@$07V?$ReflectionAllocator@G@shdfnd@physx@@@shdfnd@physx@@@shdfnd@physx@@QEAAXIAEBG@Z 0000000180030230 f i NpFactory.obj
 0001:0002f2f0       ?onRefCountZero@NpMaterial@physx@@UEAAXXZ 00000001800302f0 f   NpMaterial.obj
 0001:0002f350       ?resolveReferences@NpMaterial@physx@@UEAAXAEAVPxDeserializationContext@2@@Z 0000000180030350 f   NpMaterial.obj
 0001:0002f370       ?createObject@NpMaterial@physx@@SAPEAV12@AEAPEAEAEAVPxDeserializationContext@2@@Z 0000000180030370 f   NpMaterial.obj
 0001:0002f400       ??0NpMaterial@physx@@QEAA@AEBVMaterialCore@Sc@1@@Z 0000000180030400 f   NpMaterial.obj
 0001:0002f490       ??1NpMaterial@physx@@UEAA@XZ 0000000180030490 f   NpMaterial.obj
 0001:0002f4e0       ?release@NpMaterial@physx@@UEAAXXZ 00000001800304e0 f   NpMaterial.obj
 0001:0002f520       ?acquireReference@NpMaterial@physx@@UEAAXXZ 0000000180030520 f   NpMaterial.obj
 0001:0002f530       ?getReferenceCount@NpMaterial@physx@@UEBAIXZ 0000000180030530 f   NpMaterial.obj
 0001:0002f540       ?setDynamicFriction@NpMaterial@physx@@UEAAXM@Z 0000000180030540 f   NpMaterial.obj
 0001:0002f560       ?getDynamicFriction@NpMaterial@physx@@UEBAMXZ 0000000180030560 f   NpMaterial.obj
 0001:0002f570       ?setStaticFriction@NpMaterial@physx@@UEAAXM@Z 0000000180030570 f   NpMaterial.obj
 0001:0002f590       ?getStaticFriction@NpMaterial@physx@@UEBAMXZ 0000000180030590 f   NpMaterial.obj
 0001:0002f5a0       ?setRestitution@NpMaterial@physx@@UEAAXM@Z 00000001800305a0 f   NpMaterial.obj
 0001:0002f630       ?getRestitution@NpMaterial@physx@@UEBAMXZ 0000000180030630 f   NpMaterial.obj
 0001:0002f640       ?setFlag@NpMaterial@physx@@UEAAXW4Enum@PxMaterialFlag@2@_N@Z 0000000180030640 f   NpMaterial.obj
 0001:0002f680       ?setFlags@NpMaterial@physx@@UEAAXV?$PxFlags@W4Enum@PxMaterialFlag@physx@@G@2@@Z 0000000180030680 f   NpMaterial.obj
 0001:0002f6a0       ?getFlags@NpMaterial@physx@@UEBA?AV?$PxFlags@W4Enum@PxMaterialFlag@physx@@G@2@XZ 00000001800306a0 f   NpMaterial.obj
 0001:0002f6c0       ?setFrictionCombineMode@NpMaterial@physx@@UEAAXW4Enum@PxCombineMode@2@@Z 00000001800306c0 f   NpMaterial.obj
 0001:0002f6e0       ?getFrictionCombineMode@NpMaterial@physx@@UEBA?AW4Enum@PxCombineMode@2@XZ 00000001800306e0 f   NpMaterial.obj
 0001:0002f6f0       ?setRestitutionCombineMode@NpMaterial@physx@@UEAAXW4Enum@PxCombineMode@2@@Z 00000001800306f0 f   NpMaterial.obj
 0001:0002f710       ?getRestitutionCombineMode@NpMaterial@physx@@UEBA?AW4Enum@PxCombineMode@2@XZ 0000000180030710 f   NpMaterial.obj
 0001:0002f720       ??1PxMaterial@physx@@MEAA@XZ 0000000180030720 f i NpMaterial.obj
 0001:0002f730       ??1RefCountable@Cm@physx@@UEAA@XZ 0000000180030730 f i NpMaterial.obj
 0001:0002f73c       ??_ENpMaterial@physx@@WBI@EAAPEAXI@Z 000000018003073c f i NpMaterial.obj
 0001:0002f750       ??_ENpMaterial@physx@@UEAAPEAXI@Z 0000000180030750 f i NpMaterial.obj
 0001:0002f750       ??_GNpMaterial@physx@@UEAAPEAXI@Z 0000000180030750 f i NpMaterial.obj
 0001:0002f7e0       ??_EPxMaterial@physx@@MEAAPEAXI@Z 00000001800307e0 f i NpMaterial.obj
 0001:0002f7e0       ??_GPxMaterial@physx@@MEAAPEAXI@Z 00000001800307e0 f i NpMaterial.obj
 0001:0002f810       ??_ERefCountable@Cm@physx@@UEAAPEAXI@Z 0000000180030810 f i NpMaterial.obj
 0001:0002f810       ??_GRefCountable@Cm@physx@@UEAAPEAXI@Z 0000000180030810 f i NpMaterial.obj
 0001:0002f840       ?getConcreteTypeName@PxMaterial@physx@@UEBAPEBDXZ 0000000180030840 f i NpMaterial.obj
 0001:0002f850       ?isKindOf@PxMaterial@physx@@MEBA_NPEBD@Z 0000000180030850 f i NpMaterial.obj
 0001:0002f8a0       ?onRefCountZero@RefCountable@Cm@physx@@UEAAXXZ 00000001800308a0 f i NpMaterial.obj
 0001:0002f8c0       ?requiresObjects@NpMaterial@physx@@UEAAXAEAVPxProcessPxBaseCallback@2@@Z 00000001800308c0 f i NpMaterial.obj
 0001:0002f8d0       PxGetPhysicsBinaryMetaData 00000001800308d0 f   NpMetaData.obj
 0001:000306c0       ?getBinaryMetaData_PxBase@physx@@YAXAEAVPxOutputStream@1@@Z 00000001800316c0 f   NpMetaData.obj
 0001:00030810       ?getBinaryMetaData@RefCountable@Cm@physx@@SAXAEAVPxOutputStream@3@@Z 0000000180031810 f   NpMetaData.obj
 0001:000308b0       ?getBinaryMetaData@NpMaterial@physx@@SAXAEAVPxOutputStream@2@@Z 00000001800318b0 f   NpMetaData.obj
 0001:00030a10       ?getBinaryMetaData@NpShape@physx@@SAXAEAVPxOutputStream@2@@Z 0000000180031a10 f   NpMetaData.obj
 0001:00030ca0       ?getBinaryMetaData@NpShapeManager@physx@@SAXAEAVPxOutputStream@2@@Z 0000000180031ca0 f   NpMetaData.obj
 0001:00030e10       ?getBinaryMetaData@NpConstraint@physx@@SAXAEAVPxOutputStream@2@@Z 0000000180031e10 f   NpMetaData.obj
 0001:00030ff0       ?getBinaryMetaData@NpConnector@physx@@SAXAEAVPxOutputStream@2@@Z 0000000180031ff0 f   NpMetaData.obj
 0001:00031120       ?getBinaryMetaData@NpConnectorArray@physx@@SAXAEAVPxOutputStream@2@@Z 0000000180032120 f   NpMetaData.obj
 0001:00031350       ?getBinaryMetaData@NpActor@physx@@SAXAEAVPxOutputStream@2@@Z 0000000180032350 f   NpMetaData.obj
 0001:00031440       ?getBinaryMetaData@NpRigidStatic@physx@@SAXAEAVPxOutputStream@2@@Z 0000000180032440 f   NpMetaData.obj
 0001:000316a0       ?getBinaryMetaData@NpRigidDynamic@physx@@SAXAEAVPxOutputStream@2@@Z 00000001800326a0 f   NpMetaData.obj
 0001:00031900       ?getBinaryMetaData@NpArticulationLinkArray@physx@@SAXAEAVPxOutputStream@2@@Z 0000000180032900 f   NpMetaData.obj
 0001:00031b30       ?getBinaryMetaData@NpArticulationLink@physx@@SAXAEAVPxOutputStream@2@@Z 0000000180032b30 f   NpMetaData.obj
 0001:00031f10       ?getBinaryMetaData@NpAggregate@physx@@SAXAEAVPxOutputStream@2@@Z 0000000180032f10 f   NpMetaData.obj
 0001:000320c0       ?getBinaryMetaData@PxArticulationImpl@physx@@SAXAEAVPxOutputStream@2@@Z 00000001800330c0 f   NpMetaData.obj
 0001:000322a0       ?getBinaryMetaData@PxArticulationJointImpl@physx@@SAXAEAVPxOutputStream@2@@Z 00000001800332a0 f   NpMetaData.obj
 0001:000323d0       ?getBinaryMetaData@NpArticulationJoint@physx@@SAXAEAVPxOutputStream@2@@Z 00000001800333d0 f   NpMetaData.obj
 0001:000324b0       ?getBinaryMetaData@NpArticulation@physx@@SAXAEAVPxOutputStream@2@@Z 00000001800334b0 f   NpMetaData.obj
 0001:000325e0       ?getBinaryMetaData@NpArticulationJointReducedCoordinate@physx@@SAXAEAVPxOutputStream@2@@Z 00000001800335e0 f   NpMetaData.obj
 0001:000326c0       ?getBinaryMetaData@NpArticulationReducedCoordinate@physx@@SAXAEAVPxOutputStream@2@@Z 00000001800336c0 f   NpMetaData.obj
 0001:00033680       PxRegisterArticulations    0000000180034680 f   NpPhysics.obj
 0001:000336a0       PxRegisterArticulationsReducedCoordinate 00000001800346a0 f   NpPhysics.obj
 0001:000336c0       PxRegisterHeightFields     00000001800346c0 f   NpPhysics.obj
 0001:000336e0       PxCreateBasePhysics        00000001800346e0 f   NpPhysics.obj
 0001:000336f0       PxGetPhysics               00000001800346f0 f   NpPhysics.obj
 0001:00033700       ??0NpPhysics@physx@@AEAA@AEBVPxTolerancesScale@1@AEBUPxvOffsetTable@1@_NPEAVPsPvd@pvdsdk@1@@Z 0000000180034700 f   NpPhysics.obj
 0001:00033970       ??1NpPhysics@physx@@EEAA@XZ 0000000180034970 f   NpPhysics.obj
 0001:00033c80       ?createInstance@NpPhysics@physx@@SAPEAV12@IAEAVPxFoundation@2@AEBVPxTolerancesScale@2@_NPEAVPsPvd@pvdsdk@2@@Z 0000000180034c80 f   NpPhysics.obj
 0001:00033ea0       ?releaseInstance@NpPhysics@physx@@SAIXZ 0000000180034ea0 f   NpPhysics.obj
 0001:00033f00       ?release@NpPhysics@physx@@UEAAXXZ 0000000180034f00 f   NpPhysics.obj
 0001:00033f50       ?createScene@NpPhysics@physx@@UEAAPEAVPxScene@2@AEBVPxSceneDesc@2@@Z 0000000180034f50 f   NpPhysics.obj
 0001:00034120       ?releaseSceneInternal@NpPhysics@physx@@QEAAXAEAVPxScene@2@@Z 0000000180035120 f   NpPhysics.obj
 0001:000341a0       ?getNbScenes@NpPhysics@physx@@UEBAIXZ 00000001800351a0 f   NpPhysics.obj
 0001:000341e0       ?getScenes@NpPhysics@physx@@UEBAIPEAPEAVPxScene@2@II@Z 00000001800351e0 f   NpPhysics.obj
 0001:00034270       ?createRigidStatic@NpPhysics@physx@@UEAAPEAVPxRigidStatic@2@AEBVPxTransform@2@@Z 0000000180035270 f   NpPhysics.obj
 0001:00034340       ?createRigidDynamic@NpPhysics@physx@@UEAAPEAVPxRigidDynamic@2@AEBVPxTransform@2@@Z 0000000180035340 f   NpPhysics.obj
 0001:00034410       ?createArticulation@NpPhysics@physx@@UEAAPEAVPxArticulation@2@XZ 0000000180035410 f   NpPhysics.obj
 0001:00034430       ?createArticulationReducedCoordinate@NpPhysics@physx@@UEAAPEAVPxArticulationReducedCoordinate@2@XZ 0000000180035430 f   NpPhysics.obj
 0001:00034450       ?createConstraint@NpPhysics@physx@@UEAAPEAVPxConstraint@2@PEAVPxRigidActor@2@0AEAVPxConstraintConnector@2@AEBUPxConstraintShaderTable@2@I@Z 0000000180035450 f   NpPhysics.obj
 0001:00034470       ?createAggregate@NpPhysics@physx@@UEAAPEAVPxAggregate@2@I_N@Z 0000000180035470 f   NpPhysics.obj
 0001:00034490       ?createShape@NpPhysics@physx@@UEAAPEAVPxShape@2@AEBVPxGeometry@2@PEBQEAVPxMaterial@2@G_NV?$PxFlags@W4Enum@PxShapeFlag@physx@@E@2@@Z 0000000180035490 f   NpPhysics.obj
 0001:000344d0       ?getNbShapes@NpPhysics@physx@@UEBAIXZ 00000001800354d0 f   NpPhysics.obj
 0001:000344f0       ?getShapes@NpPhysics@physx@@UEBAIPEAPEAVPxShape@2@II@Z 00000001800354f0 f   NpPhysics.obj
 0001:00034510       ?createMaterial@NpPhysics@physx@@UEAAPEAVPxMaterial@2@MMM@Z 0000000180035510 f   NpPhysics.obj
 0001:00034540       ?getNbMaterials@NpPhysics@physx@@UEBAIXZ 0000000180035540 f   NpPhysics.obj
 0001:00034580       ?getMaterials@NpPhysics@physx@@UEBAIPEAPEAVPxMaterial@2@II@Z 0000000180035580 f   NpPhysics.obj
 0001:00034640       ?createTriangleMesh@NpPhysics@physx@@UEAAPEAVPxTriangleMesh@2@AEAVPxInputStream@2@@Z 0000000180035640 f   NpPhysics.obj
 0001:00034660       ?getNbTriangleMeshes@NpPhysics@physx@@UEBAIXZ 0000000180035660 f   NpPhysics.obj
 0001:00034680       ?getTriangleMeshes@NpPhysics@physx@@UEBAIPEAPEAVPxTriangleMesh@2@II@Z 0000000180035680 f   NpPhysics.obj
 0001:000346a0       ?createHeightField@NpPhysics@physx@@UEAAPEAVPxHeightField@2@AEAVPxInputStream@2@@Z 00000001800356a0 f   NpPhysics.obj
 0001:000346c0       ?getNbHeightFields@NpPhysics@physx@@UEBAIXZ 00000001800356c0 f   NpPhysics.obj
 0001:000346e0       ?getHeightFields@NpPhysics@physx@@UEBAIPEAPEAVPxHeightField@2@II@Z 00000001800356e0 f   NpPhysics.obj
 0001:00034700       ?createConvexMesh@NpPhysics@physx@@UEAAPEAVPxConvexMesh@2@AEAVPxInputStream@2@@Z 0000000180035700 f   NpPhysics.obj
 0001:00034720       ?getNbConvexMeshes@NpPhysics@physx@@UEBAIXZ 0000000180035720 f   NpPhysics.obj
 0001:00034740       ?getConvexMeshes@NpPhysics@physx@@UEBAIPEAPEAVPxConvexMesh@2@II@Z 0000000180035740 f   NpPhysics.obj
 0001:00034760       ?createBVHStructure@NpPhysics@physx@@UEAAPEAVPxBVHStructure@2@AEAVPxInputStream@2@@Z 0000000180035760 f   NpPhysics.obj
 0001:00034780       ?getNbBVHStructures@NpPhysics@physx@@UEBAIXZ 0000000180035780 f   NpPhysics.obj
 0001:000347a0       ?getBVHStructures@NpPhysics@physx@@UEBAIPEAPEAVPxBVHStructure@2@II@Z 00000001800357a0 f   NpPhysics.obj
 0001:000347c0       ?registerPhysXIndicatorGpuClient@NpPhysics@physx@@QEAAXXZ 00000001800357c0 f   NpPhysics.obj
 0001:00034810       ?unregisterPhysXIndicatorGpuClient@NpPhysics@physx@@QEAAXXZ 0000000180035810 f   NpPhysics.obj
 0001:00034860       ?createPruningStructure@NpPhysics@physx@@UEAAPEAVPxPruningStructure@2@PEBQEAVPxRigidActor@2@I@Z 0000000180035860 f   NpPhysics.obj
 0001:00034950       ?getTolerancesScale@NpPhysics@physx@@UEBAAEBVPxTolerancesScale@2@XZ 0000000180035950 f   NpPhysics.obj
 0001:00034960       ?getFoundation@NpPhysics@physx@@UEAAAEAVPxFoundation@2@XZ 0000000180035960 f   NpPhysics.obj
 0001:00034970       ?registerDeletionListener@NpPhysics@physx@@UEAAXAEAVPxDeletionListener@2@AEBV?$PxFlags@W4Enum@PxDeletionEventFlag@physx@@E@2@_N@Z 0000000180035970 f   NpPhysics.obj
 0001:00034b60       ?unregisterDeletionListener@NpPhysics@physx@@UEAAXAEAVPxDeletionListener@2@@Z 0000000180035b60 f   NpPhysics.obj
 0001:00034c90       ?registerDeletionListenerObjects@NpPhysics@physx@@UEAAXAEAVPxDeletionListener@2@PEBQEBVPxBase@2@I@Z 0000000180035c90 f   NpPhysics.obj
 0001:00034dd0       ?unregisterDeletionListenerObjects@NpPhysics@physx@@UEAAXAEAVPxDeletionListener@2@PEBQEBVPxBase@2@I@Z 0000000180035dd0 f   NpPhysics.obj
 0001:00034fd0       ?notifyDeletionListeners@NpPhysics@physx@@QEAAXPEBVPxBase@2@PEAXW4Enum@PxDeletionEventFlag@2@@Z 0000000180035fd0 f   NpPhysics.obj
 0001:00035120       ?removeMaterialFromTable@NpPhysics@physx@@QEAAXAEAVNpMaterial@2@@Z 0000000180036120 f   NpPhysics.obj
 0001:000351e0       ?updateMaterial@NpPhysics@physx@@QEAAXAEAVNpMaterial@2@@Z 00000001800361e0 f   NpPhysics.obj
 0001:00035260       ?sendMaterialTable@NpPhysics@physx@@QEAA_NAEAVNpScene@2@@Z 0000000180036260 f   NpPhysics.obj
 0001:000352e0       ?addMaterial@NpPhysics@physx@@QEAAPEAVNpMaterial@2@PEAV32@@Z 00000001800362e0 f   NpPhysics.obj
 0001:000354b0       ?initOffsetTables@NpPhysics@physx@@SAXAEAUPxvOffsetTable@2@@Z 00000001800364b0 f   NpPhysics.obj
 0001:00035550       PxAddCollectionToPhysics   0000000180036550 f   NpPhysics.obj
 0001:00035560       ??1GuMeshFactoryListener@physx@@MEAA@XZ 0000000180036560 f i NpPhysics.obj
 0001:00035570       ??1PxPhysics@physx@@UEAA@XZ 0000000180036570 f i NpPhysics.obj
 0001:00035580       ??1PxPhysicsInsertionCallback@physx@@MEAA@XZ 0000000180036580 f i NpPhysics.obj
 0001:00035590       ??_EGuMeshFactoryListener@physx@@MEAAPEAXI@Z 0000000180036590 f i NpPhysics.obj
 0001:00035590       ??_GGuMeshFactoryListener@physx@@MEAAPEAXI@Z 0000000180036590 f i NpPhysics.obj
 0001:000355c0       ??_GMeshDeletionListener@NpPhysics@physx@@UEAAPEAXI@Z 00000001800365c0 f i NpPhysics.obj
 0001:000355c0       ??_EMeshDeletionListener@NpPhysics@physx@@UEAAPEAXI@Z 00000001800365c0 f i NpPhysics.obj
 0001:000355f0       ??_ENpPhysics@physx@@EEAAPEAXI@Z 00000001800365f0 f i NpPhysics.obj
 0001:000355f0       ??_GNpPhysics@physx@@EEAAPEAXI@Z 00000001800365f0 f i NpPhysics.obj
 0001:00035650       ??_ENpPhysicsInsertionCallback@physx@@UEAAPEAXI@Z 0000000180036650 f i NpPhysics.obj
 0001:00035650       ??_GNpPhysicsInsertionCallback@physx@@UEAAPEAXI@Z 0000000180036650 f i NpPhysics.obj
 0001:00035680       ??_GPxPhysics@physx@@UEAAPEAXI@Z 0000000180036680 f i NpPhysics.obj
 0001:00035680       ??_EPxPhysics@physx@@UEAAPEAXI@Z 0000000180036680 f i NpPhysics.obj
 0001:000356b0       ??_GPxPhysicsInsertionCallback@physx@@MEAAPEAXI@Z 00000001800366b0 f i NpPhysics.obj
 0001:000356b0       ??_EPxPhysicsInsertionCallback@physx@@MEAAPEAXI@Z 00000001800366b0 f i NpPhysics.obj
 0001:000356e0       ?allocate@?$ReflectionAllocator@I@shdfnd@physx@@QEAAPEAX_KPEBDH@Z 00000001800366e0 f i NpPhysics.obj
 0001:00035780       ?buildObjectFromData@NpPhysicsInsertionCallback@physx@@UEAAPEAVPxBase@2@W4Enum@PxConcreteType@2@PEAX@Z 0000000180036780 f i NpPhysics.obj
 0001:00035820       ?create@?$HashBase@PEBVPxBase@physx@@PEBV12@U?$Hash@PEBVPxBase@physx@@@shdfnd@2@UGetKey@?$HashSetBase@PEBVPxBase@physx@@U?$Hash@PEBVPxBase@physx@@@shdfnd@2@VNonTrackingAllocator@42@$0A@@internal@42@VNonTrackingAllocator@42@$0A@@internal@shdfnd@physx@@QEAAPEAPEBVPxBase@4@AEBQEBV54@AEA_N@Z 0000000180036820 f i NpPhysics.obj
 0001:000359d0       ?create@?$HashBase@V?$Pair@QEAVPxDeletionListener@physx@@PEAUNpDelListenerEntry@NpPhysics@2@@shdfnd@physx@@PEAVPxDeletionListener@3@U?$Hash@PEAVPxDeletionListener@physx@@@23@UGetKey@?$HashMapBase@PEAVPxDeletionListener@physx@@PEAUNpDelListenerEntry@NpPhysics@2@U?$Hash@PEAVPxDeletionListener@physx@@@shdfnd@2@VNonTrackingAllocator@62@@internal@23@VNonTrackingAllocator@23@$00@internal@shdfnd@physx@@QEAAPEAV?$Pair@QEAVPxDeletionListener@physx@@PEAUNpDelListenerEntry@NpPhysics@2@@34@AEBQEAVPxDeletionListener@4@AEA_N@Z 00000001800369d0 f i NpPhysics.obj
 0001:00035b70       ?erase@?$HashBase@V?$Pair@QEAVPxDeletionListener@physx@@PEAUNpDelListenerEntry@NpPhysics@2@@shdfnd@physx@@PEAVPxDeletionListener@3@U?$Hash@PEAVPxDeletionListener@physx@@@23@UGetKey@?$HashMapBase@PEAVPxDeletionListener@physx@@PEAUNpDelListenerEntry@NpPhysics@2@U?$Hash@PEAVPxDeletionListener@physx@@@shdfnd@2@VNonTrackingAllocator@62@@internal@23@VNonTrackingAllocator@23@$00@internal@shdfnd@physx@@QEAA_NAEBQEAVPxDeletionListener@4@@Z 0000000180036b70 f i NpPhysics.obj
 0001:00035d10       ?getPhysicsInsertionCallback@NpPhysics@physx@@UEAAAEAVPxPhysicsInsertionCallback@2@XZ 0000000180036d10 f i NpPhysics.obj
 0001:00035d20       ?growAndPushBack@?$Array@IV?$ReflectionAllocator@I@shdfnd@physx@@@shdfnd@physx@@IEAAAEAIAEBI@Z 0000000180036d20 f i NpPhysics.obj
 0001:00035df0       ?growAndPushBack@?$Array@PEAVNpScene@physx@@V?$ReflectionAllocator@PEAVNpScene@physx@@@shdfnd@2@@shdfnd@physx@@IEAAAEAPEAVNpScene@3@AEBQEAV43@@Z 0000000180036df0 f i NpPhysics.obj
 0001:00035f10       ?onGuMeshFactoryBufferRelease@MeshDeletionListener@NpPhysics@physx@@UEAAXPEBVPxBase@3@G@Z 0000000180036f10 f i NpPhysics.obj
 0001:00035f30       ?reserveInternal@?$HashBase@PEBVPxBase@physx@@PEBV12@U?$Hash@PEBVPxBase@physx@@@shdfnd@2@UGetKey@?$HashSetBase@PEBVPxBase@physx@@U?$Hash@PEBVPxBase@physx@@@shdfnd@2@VNonTrackingAllocator@42@$0A@@internal@42@VNonTrackingAllocator@42@$0A@@internal@shdfnd@physx@@AEAAXI@Z 0000000180036f30 f i NpPhysics.obj
 0001:00036320       ?reserveInternal@?$HashBase@V?$Pair@QEAVPxDeletionListener@physx@@PEAUNpDelListenerEntry@NpPhysics@2@@shdfnd@physx@@PEAVPxDeletionListener@3@U?$Hash@PEAVPxDeletionListener@physx@@@23@UGetKey@?$HashMapBase@PEAVPxDeletionListener@physx@@PEAUNpDelListenerEntry@NpPhysics@2@U?$Hash@PEAVPxDeletionListener@physx@@@shdfnd@2@VNonTrackingAllocator@62@@internal@23@VNonTrackingAllocator@23@$00@internal@shdfnd@physx@@AEAAXI@Z 0000000180037320 f i NpPhysics.obj
 0001:00036500       ??0NpReadCheck@physx@@QEAA@PEBVNpScene@1@PEBD@Z 0000000180037500 f   NpReadCheck.obj
 0001:000365e0       ??1NpReadCheck@physx@@QEAA@XZ 00000001800375e0 f   NpReadCheck.obj
 0001:00036680       ?NpRigidDynamicGetShapes@physx@@YAIAEAVBody@Scb@1@AEAPEBQEAXPEA_N@Z 0000000180037680 f   NpRigidDynamic.obj
 0001:000366e0       ?preExportDataReset@NpRigidDynamic@physx@@QEAAXXZ 00000001800376e0 f   NpRigidDynamic.obj
 0001:00036780       ?requiresObjects@NpRigidDynamic@physx@@UEAAXAEAVPxProcessPxBaseCallback@2@@Z 0000000180037780 f   NpRigidDynamic.obj
 0001:000367f0       ?createObject@NpRigidDynamic@physx@@SAPEAV12@AEAPEAEAEAVPxDeserializationContext@2@@Z 00000001800377f0 f   NpRigidDynamic.obj
 0001:00036900       ??1NpRigidDynamic@physx@@UEAA@XZ 0000000180037900 f   NpRigidDynamic.obj
 0001:00036960       ?release@NpRigidDynamic@physx@@UEAAXXZ 0000000180037960 f   NpRigidDynamic.obj
 0001:00036a50       ?setGlobalPose@NpRigidDynamic@physx@@UEAAXAEBVPxTransform@2@_N@Z 0000000180037a50 f   NpRigidDynamic.obj
 0001:00036e90       ?setKinematicTarget@NpRigidDynamic@physx@@UEAAXAEBVPxTransform@2@@Z 0000000180037e90 f   NpRigidDynamic.obj
 0001:000371a0       ?getKinematicTarget@NpRigidDynamic@physx@@UEBA_NAEAVPxTransform@2@@Z 00000001800381a0 f   NpRigidDynamic.obj
 0001:00037640       ?setCMassLocalPose@NpRigidDynamic@physx@@UEAAXAEBVPxTransform@2@@Z 0000000180038640 f   NpRigidDynamic.obj
 0001:00037d90       ?setLinearDamping@NpRigidDynamic@physx@@UEAAXM@Z 0000000180038d90 f   NpRigidDynamic.obj
 0001:00037e20       ?getLinearDamping@NpRigidDynamic@physx@@UEBAMXZ 0000000180038e20 f   NpRigidDynamic.obj
 0001:00037e50       ?setAngularDamping@NpRigidDynamic@physx@@UEAAXM@Z 0000000180038e50 f   NpRigidDynamic.obj
 0001:00037ee0       ?getAngularDamping@NpRigidDynamic@physx@@UEBAMXZ 0000000180038ee0 f   NpRigidDynamic.obj
 0001:00037f10       ?setLinearVelocity@NpRigidDynamic@physx@@UEAAXAEBVPxVec3@2@_N@Z 0000000180038f10 f   NpRigidDynamic.obj
 0001:00037f90       ?setAngularVelocity@NpRigidDynamic@physx@@UEAAXAEBVPxVec3@2@_N@Z 0000000180038f90 f   NpRigidDynamic.obj
 0001:00038010       ?setMaxAngularVelocity@NpRigidDynamic@physx@@UEAAXM@Z 0000000180039010 f   NpRigidDynamic.obj
 0001:000380a0       ?getMaxAngularVelocity@NpRigidDynamic@physx@@UEBAMXZ 00000001800390a0 f   NpRigidDynamic.obj
 0001:000380e0       ?setMaxLinearVelocity@NpRigidDynamic@physx@@UEAAXM@Z 00000001800390e0 f   NpRigidDynamic.obj
 0001:00038170       ?getMaxLinearVelocity@NpRigidDynamic@physx@@UEBAMXZ 0000000180039170 f   NpRigidDynamic.obj
 0001:000381b0       ?addForce@NpRigidDynamic@physx@@UEAAXAEBVPxVec3@2@W4Enum@PxForceMode@2@_N@Z 00000001800391b0 f   NpRigidDynamic.obj
 0001:00038220       ?clearForce@NpRigidDynamic@physx@@UEAAXW4Enum@PxForceMode@2@@Z 0000000180039220 f   NpRigidDynamic.obj
 0001:00038240       ?addTorque@NpRigidDynamic@physx@@UEAAXAEBVPxVec3@2@W4Enum@PxForceMode@2@_N@Z 0000000180039240 f   NpRigidDynamic.obj
 0001:000382c0       ?clearTorque@NpRigidDynamic@physx@@UEAAXW4Enum@PxForceMode@2@@Z 00000001800392c0 f   NpRigidDynamic.obj
 0001:000382e0       ?setForceAndTorque@NpRigidDynamic@physx@@UEAAXAEBVPxVec3@2@0W4Enum@PxForceMode@2@@Z 00000001800392e0 f   NpRigidDynamic.obj
 0001:00038340       ?isSleeping@NpRigidDynamic@physx@@UEBA_NXZ 0000000180039340 f   NpRigidDynamic.obj
 0001:00038360       ?getSleepThreshold@NpRigidDynamic@physx@@UEBAMXZ 0000000180039360 f   NpRigidDynamic.obj
 0001:00038390       ?setSleepThreshold@NpRigidDynamic@physx@@UEAAXM@Z 0000000180039390 f   NpRigidDynamic.obj
 0001:00038420       ?getStabilizationThreshold@NpRigidDynamic@physx@@UEBAMXZ 0000000180039420 f   NpRigidDynamic.obj
 0001:00038450       ?setStabilizationThreshold@NpRigidDynamic@physx@@UEAAXM@Z 0000000180039450 f   NpRigidDynamic.obj
 0001:000384e0       ?setWakeCounter@NpRigidDynamic@physx@@UEAAXM@Z 00000001800394e0 f   NpRigidDynamic.obj
 0001:000385d0       ?getWakeCounter@NpRigidDynamic@physx@@UEBAMXZ 00000001800395d0 f   NpRigidDynamic.obj
 0001:000385e0       ?wakeUp@NpRigidDynamic@physx@@UEAAXXZ 00000001800395e0 f   NpRigidDynamic.obj
 0001:00038600       ?putToSleep@NpRigidDynamic@physx@@UEAAXXZ 0000000180039600 f   NpRigidDynamic.obj
 0001:00038610       ?setSolverIterationCounts@NpRigidDynamic@physx@@UEAAXII@Z 0000000180039610 f   NpRigidDynamic.obj
 0001:000386b0       ?getSolverIterationCounts@NpRigidDynamic@physx@@UEBAXAEAI0@Z 00000001800396b0 f   NpRigidDynamic.obj
 0001:00038700       ?setContactReportThreshold@NpRigidDynamic@physx@@UEAAXM@Z 0000000180039700 f   NpRigidDynamic.obj
 0001:000387a0       ?getContactReportThreshold@NpRigidDynamic@physx@@UEBAMXZ 00000001800397a0 f   NpRigidDynamic.obj
 0001:000387d0       ?getRigidDynamicLockFlags@NpRigidDynamic@physx@@UEBA?AV?$PxFlags@W4Enum@PxRigidDynamicLockFlag@physx@@E@2@XZ 00000001800397d0 f   NpRigidDynamic.obj
 0001:00038800       ?setRigidDynamicLockFlags@NpRigidDynamic@physx@@UEAAXV?$PxFlags@W4Enum@PxRigidDynamicLockFlag@physx@@E@2@@Z 0000000180039800 f   NpRigidDynamic.obj
 0001:00038830       ?setRigidDynamicLockFlag@NpRigidDynamic@physx@@UEAAXW4Enum@PxRigidDynamicLockFlag@2@_N@Z 0000000180039830 f   NpRigidDynamic.obj
 0001:00038880       ??0NpRigidDynamic@physx@@QEAA@AEBVPxTransform@1@@Z 0000000180039880 f   NpRigidDynamic.obj
 0001:000389e0       ?switchToNoSim@NpRigidDynamic@physx@@UEAAXXZ 00000001800399e0 f   NpRigidDynamic.obj
 0001:00038ae0       ?switchFromNoSim@NpRigidDynamic@physx@@UEAAXXZ 0000000180039ae0 f   NpRigidDynamic.obj
 0001:00038b10       ?wakeUpInternalNoKinematicTest@NpRigidDynamic@physx@@QEAAXAEAVBody@Scb@2@_N1@Z 0000000180039b10 f   NpRigidDynamic.obj
 0001:00038b90       ?visualize@NpRigidDynamic@physx@@QEAAXAEAVRenderOutput@Cm@2@PEAVNpScene@2@@Z 0000000180039b90 f   NpRigidDynamic.obj
 0001:00038e20       ??0?$NpActorTemplate@VPxRigidDynamic@physx@@@physx@@QEAA@GV?$PxFlags@W4Enum@PxBaseFlag@physx@@G@1@PEBDPEAX@Z 0000000180039e20 f i NpRigidDynamic.obj
 0001:00038e70       ??0?$NpRigidActorTemplate@VPxRigidDynamic@physx@@@physx@@QEAA@GV?$PxFlags@W4Enum@PxBaseFlag@physx@@G@1@@Z 0000000180039e70 f i NpRigidDynamic.obj
 0001:00038ed0       ??0?$NpRigidBodyTemplate@VPxRigidDynamic@physx@@@physx@@QEAA@GV?$PxFlags@W4Enum@PxBaseFlag@physx@@G@1@W4Enum@PxActorType@1@AEBVPxTransform@1@@Z 0000000180039ed0 f i NpRigidDynamic.obj
 0001:00039030       ??1?$NpActorTemplate@VPxRigidDynamic@physx@@@physx@@UEAA@XZ 000000018003a030 f i NpRigidDynamic.obj
 0001:00039070       ??1?$NpRigidActorTemplate@VPxRigidDynamic@physx@@@physx@@UEAA@XZ 000000018003a070 f i NpRigidDynamic.obj
 0001:000390c0       ??1?$NpRigidBodyTemplate@VPxRigidDynamic@physx@@@physx@@UEAA@XZ 000000018003a0c0 f i NpRigidDynamic.obj
 0001:00039120       ??1PxRigidDynamic@physx@@MEAA@XZ 000000018003a120 f i NpRigidDynamic.obj
 0001:00039130       ??_G?$NpActorTemplate@VPxRigidDynamic@physx@@@physx@@UEAAPEAXI@Z 000000018003a130 f i NpRigidDynamic.obj
 0001:00039130       ??_E?$NpActorTemplate@VPxRigidDynamic@physx@@@physx@@UEAAPEAXI@Z 000000018003a130 f i NpRigidDynamic.obj
 0001:000391b0       ??_G?$NpRigidActorTemplate@VPxRigidDynamic@physx@@@physx@@UEAAPEAXI@Z 000000018003a1b0 f i NpRigidDynamic.obj
 0001:000391b0       ??_E?$NpRigidActorTemplate@VPxRigidDynamic@physx@@@physx@@UEAAPEAXI@Z 000000018003a1b0 f i NpRigidDynamic.obj
 0001:00039240       ??_E?$NpRigidBodyTemplate@VPxRigidDynamic@physx@@@physx@@UEAAPEAXI@Z 000000018003a240 f i NpRigidDynamic.obj
 0001:00039240       ??_G?$NpRigidBodyTemplate@VPxRigidDynamic@physx@@@physx@@UEAAPEAXI@Z 000000018003a240 f i NpRigidDynamic.obj
 0001:000392f0       ??_ENpRigidDynamic@physx@@UEAAPEAXI@Z 000000018003a2f0 f i NpRigidDynamic.obj
 0001:000392f0       ??_GNpRigidDynamic@physx@@UEAAPEAXI@Z 000000018003a2f0 f i NpRigidDynamic.obj
 0001:000393a0       ??_GPxRigidDynamic@physx@@MEAAPEAXI@Z 000000018003a3a0 f i NpRigidDynamic.obj
 0001:000393a0       ??_EPxRigidDynamic@physx@@MEAAPEAXI@Z 000000018003a3a0 f i NpRigidDynamic.obj
 0001:000393d0       ?addSpatialForce@?$NpRigidBodyTemplate@VPxRigidDynamic@physx@@@physx@@IEAAXPEBVPxVec3@2@0W4Enum@PxForceMode@2@@Z 000000018003a3d0 f i NpRigidDynamic.obj
 0001:00039630       ?attachShape@?$NpRigidActorTemplate@VPxRigidDynamic@physx@@@physx@@UEAA_NAEAVPxShape@2@@Z 000000018003a630 f i NpRigidDynamic.obj
 0001:000396d0       ?attachShape@?$NpRigidBodyTemplate@VPxRigidDynamic@physx@@@physx@@UEAA_NAEAVPxShape@2@@Z 000000018003a6d0 f i NpRigidDynamic.obj
 0001:00039770       ?clearSpatialForce@?$NpRigidBodyTemplate@VPxRigidDynamic@physx@@@physx@@IEAAXW4Enum@PxForceMode@2@_N1@Z 000000018003a770 f i NpRigidDynamic.obj
 0001:00039910       ?detachShape@?$NpRigidActorTemplate@VPxRigidDynamic@physx@@@physx@@UEAAXAEAVPxShape@2@_N@Z 000000018003a910 f i NpRigidDynamic.obj
 0001:000399c0       ?exportExtraData@?$NpActorTemplate@VPxRigidDynamic@physx@@@physx@@UEAAXAEAVPxSerializationContext@2@@Z 000000018003a9c0 f i NpRigidDynamic.obj
 0001:000399d0       ?exportExtraData@?$NpRigidActorTemplate@VPxRigidDynamic@physx@@@physx@@UEAAXAEAVPxSerializationContext@2@@Z 000000018003a9d0 f i NpRigidDynamic.obj
 0001:00039a00       ?getActorFlags@?$NpActorTemplate@VPxRigidDynamic@physx@@@physx@@UEBA?AV?$PxFlags@W4Enum@PxActorFlag@physx@@E@2@XZ 000000018003aa00 f i NpRigidDynamic.obj
 0001:00039a50       ?getAggregate@?$NpActorTemplate@VPxRigidDynamic@physx@@@physx@@UEBAPEAVPxAggregate@2@XZ 000000018003aa50 f i NpRigidDynamic.obj
 0001:00039a60       ?getAngularVelocity@?$NpRigidBodyTemplate@VPxRigidDynamic@physx@@@physx@@UEBA?AVPxVec3@2@XZ 000000018003aa60 f i NpRigidDynamic.obj
 0001:00039a80       ?getCMassLocalPose@?$NpRigidBodyTemplate@VPxRigidDynamic@physx@@@physx@@UEBA?AVPxTransform@2@XZ 000000018003aa80 f i NpRigidDynamic.obj
 0001:00039ad0       ?getConcreteTypeName@PxRigidDynamic@physx@@UEBAPEBDXZ 000000018003aad0 f i NpRigidDynamic.obj
 0001:00039ae0       ?getConstraints@?$NpRigidActorTemplate@VPxRigidDynamic@physx@@@physx@@UEBAIPEAPEAVPxConstraint@2@II@Z 000000018003aae0 f i NpRigidDynamic.obj
 0001:00039b90       ?getDominanceGroup@?$NpActorTemplate@VPxRigidDynamic@physx@@@physx@@UEBAEXZ 000000018003ab90 f i NpRigidDynamic.obj
 0001:00039bd0       ?getGlobalPose@NpRigidDynamic@physx@@UEBA?AVPxTransform@2@XZ 000000018003abd0 f i NpRigidDynamic.obj
 0001:00039ee0       ?getInternalIslandNodeIndex@?$NpRigidBodyTemplate@VPxRigidDynamic@physx@@@physx@@UEBAIXZ 000000018003aee0 f i NpRigidDynamic.obj
 0001:00039ef0       ?getInvMass@?$NpRigidBodyTemplate@VPxRigidDynamic@physx@@@physx@@UEBAMXZ 000000018003aef0 f i NpRigidDynamic.obj
 0001:00039f10       ?getLinearVelocity@?$NpRigidBodyTemplate@VPxRigidDynamic@physx@@@physx@@UEBA?AVPxVec3@2@XZ 000000018003af10 f i NpRigidDynamic.obj
 0001:00039f30       ?getMass@?$NpRigidBodyTemplate@VPxRigidDynamic@physx@@@physx@@UEBAMXZ 000000018003af30 f i NpRigidDynamic.obj
 0001:00039f70       ?getMassSpaceInertiaTensor@?$NpRigidBodyTemplate@VPxRigidDynamic@physx@@@physx@@UEBA?AVPxVec3@2@XZ 000000018003af70 f i NpRigidDynamic.obj
 0001:0003a000       ?getMassSpaceInvInertiaTensor@?$NpRigidBodyTemplate@VPxRigidDynamic@physx@@@physx@@UEBA?AVPxVec3@2@XZ 000000018003b000 f i NpRigidDynamic.obj
 0001:0003a040       ?getMaxContactImpulse@?$NpRigidBodyTemplate@VPxRigidDynamic@physx@@@physx@@UEBAMXZ 000000018003b040 f i NpRigidDynamic.obj
 0001:0003a070       ?getMaxDepenetrationVelocity@?$NpRigidBodyTemplate@VPxRigidDynamic@physx@@@physx@@UEBAMXZ 000000018003b070 f i NpRigidDynamic.obj
 0001:0003a0a0       ?getMinCCDAdvanceCoefficient@?$NpRigidBodyTemplate@VPxRigidDynamic@physx@@@physx@@UEBAMXZ 000000018003b0a0 f i NpRigidDynamic.obj
 0001:0003a0c0       ?getName@?$NpActorTemplate@VPxRigidDynamic@physx@@@physx@@UEBAPEBDXZ 000000018003b0c0 f i NpRigidDynamic.obj
 0001:0003a0d0       ?getNbConstraints@?$NpRigidActorTemplate@VPxRigidDynamic@physx@@@physx@@UEBAIXZ 000000018003b0d0 f i NpRigidDynamic.obj
 0001:0003a0e0       ?getNbShapes@?$NpRigidActorTemplate@VPxRigidDynamic@physx@@@physx@@UEBAIXZ 000000018003b0e0 f i NpRigidDynamic.obj
 0001:0003a0f0       ?getOwnerClient@?$NpActorTemplate@VPxRigidDynamic@physx@@@physx@@UEBAEXZ 000000018003b0f0 f i NpRigidDynamic.obj
 0001:0003a120       ?getRigidBodyFlags@?$NpRigidBodyTemplate@VPxRigidDynamic@physx@@@physx@@UEBA?AV?$PxFlags@W4Enum@PxRigidBodyFlag@physx@@E@2@XZ 000000018003b120 f i NpRigidDynamic.obj
 0001:0003a150       ?getScene@?$NpActorTemplate@VPxRigidDynamic@physx@@@physx@@UEBAPEAVPxScene@2@XZ 000000018003b150 f i NpRigidDynamic.obj
 0001:0003a160       ?getShapes@?$NpRigidActorTemplate@VPxRigidDynamic@physx@@@physx@@UEBAIPEAPEAVPxShape@2@II@Z 000000018003b160 f i NpRigidDynamic.obj
 0001:0003a170       ?getType@NpRigidDynamic@physx@@UEBA?AW4Enum@PxActorType@2@XZ 000000018003b170 f i NpRigidDynamic.obj
 0001:0003a180       ?getWorldBounds@?$NpRigidActorTemplate@VPxRigidDynamic@physx@@@physx@@UEBA?AVPxBounds3@2@M@Z 000000018003b180 f i NpRigidDynamic.obj
 0001:0003a360       ?importExtraData@?$NpActorTemplate@VPxRigidDynamic@physx@@@physx@@UEAAXAEAVPxDeserializationContext@2@@Z 000000018003b360 f i NpRigidDynamic.obj
 0001:0003a370       ?importExtraData@?$NpRigidActorTemplate@VPxRigidDynamic@physx@@@physx@@UEAAXAEAVPxDeserializationContext@2@@Z 000000018003b370 f i NpRigidDynamic.obj
 0001:0003a3a0       ?isKindOf@PxRigidDynamic@physx@@MEBA_NPEBD@Z 000000018003b3a0 f i NpRigidDynamic.obj
 0001:0003a440       ?preExportDataReset@?$NpRigidActorTemplate@VPxRigidDynamic@physx@@@physx@@QEAAXXZ 000000018003b440 f i NpRigidDynamic.obj
 0001:0003a490       ?release@?$NpActorTemplate@VPxRigidDynamic@physx@@@physx@@UEAAXXZ 000000018003b490 f i NpRigidDynamic.obj
 0001:0003a4a0       ?release@?$NpRigidActorTemplate@VPxRigidDynamic@physx@@@physx@@UEAAXXZ 000000018003b4a0 f i NpRigidDynamic.obj
 0001:0003a540       ?requiresObjects@?$NpRigidActorTemplate@VPxRigidDynamic@physx@@@physx@@UEAAXAEAVPxProcessPxBaseCallback@2@@Z 000000018003b540 f i NpRigidDynamic.obj
 0001:0003a5b0       ?resolveReferences@?$NpActorTemplate@VPxRigidDynamic@physx@@@physx@@UEAAXAEAVPxDeserializationContext@2@@Z 000000018003b5b0 f i NpRigidDynamic.obj
 0001:0003a5c0       ?resolveReferences@?$NpRigidActorTemplate@VPxRigidDynamic@physx@@@physx@@UEAAXAEAVPxDeserializationContext@2@@Z 000000018003b5c0 f i NpRigidDynamic.obj
 0001:0003a650       ?setActorFlag@?$NpActorTemplate@VPxRigidDynamic@physx@@@physx@@UEAAXW4Enum@PxActorFlag@2@_N@Z 000000018003b650 f i NpRigidDynamic.obj
 0001:0003a710       ?setActorFlag@?$NpRigidActorTemplate@VPxRigidDynamic@physx@@@physx@@UEAAXW4Enum@PxActorFlag@2@_N@Z 000000018003b710 f i NpRigidDynamic.obj
 0001:0003a8d0       ?setActorFlags@?$NpActorTemplate@VPxRigidDynamic@physx@@@physx@@UEAAXV?$PxFlags@W4Enum@PxActorFlag@physx@@E@2@@Z 000000018003b8d0 f i NpRigidDynamic.obj
 0001:0003a900       ?setActorFlags@?$NpRigidActorTemplate@VPxRigidDynamic@physx@@@physx@@UEAAXV?$PxFlags@W4Enum@PxActorFlag@physx@@E@2@@Z 000000018003b900 f i NpRigidDynamic.obj
 0001:0003aa40       ?setCMassLocalPoseInternal@?$NpRigidBodyTemplate@VPxRigidDynamic@physx@@@physx@@IEAAXAEBVPxTransform@2@@Z 000000018003ba40 f i NpRigidDynamic.obj
 0001:0003adc0       ?setDominanceGroup@?$NpActorTemplate@VPxRigidDynamic@physx@@@physx@@UEAAXE@Z 000000018003bdc0 f i NpRigidDynamic.obj
 0001:0003ae60       ?setKinematicTarget@Body@Scb@physx@@QEAAXAEBVPxTransform@3@@Z 000000018003be60 f i NpRigidDynamic.obj
 0001:0003af70       ?setLockFlags@Body@Scb@physx@@QEAAXV?$PxFlags@W4Enum@PxRigidDynamicLockFlag@physx@@E@3@@Z 000000018003bf70 f i NpRigidDynamic.obj
 0001:0003aff0       ?setMass@?$NpRigidBodyTemplate@VPxRigidDynamic@physx@@@physx@@UEAAXM@Z 000000018003bff0 f i NpRigidDynamic.obj
 0001:0003b090       ?setMassSpaceInertiaTensor@?$NpRigidBodyTemplate@VPxRigidDynamic@physx@@@physx@@UEAAXAEBVPxVec3@2@@Z 000000018003c090 f i NpRigidDynamic.obj
 0001:0003b190       ?setMaxContactImpulse@?$NpRigidBodyTemplate@VPxRigidDynamic@physx@@@physx@@UEAAXM@Z 000000018003c190 f i NpRigidDynamic.obj
 0001:0003b220       ?setMaxDepenetrationVelocity@?$NpRigidBodyTemplate@VPxRigidDynamic@physx@@@physx@@UEAAXM@Z 000000018003c220 f i NpRigidDynamic.obj
 0001:0003b2b0       ?setMinCCDAdvanceCoefficient@?$NpRigidBodyTemplate@VPxRigidDynamic@physx@@@physx@@UEAAXM@Z 000000018003c2b0 f i NpRigidDynamic.obj
 0001:0003b340       ?setName@?$NpActorTemplate@VPxRigidDynamic@physx@@@physx@@UEAAXPEBD@Z 000000018003c340 f i NpRigidDynamic.obj
 0001:0003b350       ?setOwnerClient@?$NpActorTemplate@VPxRigidDynamic@physx@@@physx@@UEAAXE@Z 000000018003c350 f i NpRigidDynamic.obj
 0001:0003b420       ?setRigidBodyFlag@?$NpRigidBodyTemplate@VPxRigidDynamic@physx@@@physx@@UEAAXW4Enum@PxRigidBodyFlag@2@_N@Z 000000018003c420 f i NpRigidDynamic.obj
 0001:0003b900       ?setRigidBodyFlags@?$NpRigidBodyTemplate@VPxRigidDynamic@physx@@@physx@@UEAAXV?$PxFlags@W4Enum@PxRigidBodyFlag@physx@@E@2@@Z 000000018003c900 f i NpRigidDynamic.obj
 0001:0003bdd0       ?setSpatialForce@?$NpRigidBodyTemplate@VPxRigidDynamic@physx@@@physx@@IEAAXPEBVPxVec3@2@0W4Enum@PxForceMode@2@@Z 000000018003cdd0 f i NpRigidDynamic.obj
 0001:0003c030       ?switchFromNoSim@?$NpRigidActorTemplate@VPxRigidDynamic@physx@@@physx@@UEAAXXZ 000000018003d030 f i NpRigidDynamic.obj
 0001:0003c040       ?switchToNoSim@?$NpRigidActorTemplate@VPxRigidDynamic@physx@@@physx@@UEAAXXZ 000000018003d040 f i NpRigidDynamic.obj
 0001:0003c050       ?updateShaderComs@?$NpRigidActorTemplate@VPxRigidDynamic@physx@@@physx@@QEAAXXZ 000000018003d050 f i NpRigidDynamic.obj
 0001:0003c0d0       ?visualize@?$NpRigidActorTemplate@VPxRigidDynamic@physx@@@physx@@QEAAXAEAVRenderOutput@Cm@2@PEAVNpScene@2@@Z 000000018003d0d0 f i NpRigidDynamic.obj
 0001:0003c0e0       ?visualize@?$NpRigidBodyTemplate@VPxRigidDynamic@physx@@@physx@@QEAAXAEAVRenderOutput@Cm@2@PEAVNpScene@2@@Z 000000018003d0e0 f i NpRigidDynamic.obj
 0001:0003c4a0       ?wakeUpInternal@Body@Scb@physx@@QEAAXM@Z 000000018003d4a0 f i NpRigidDynamic.obj
 0001:0003c520       ?NpRigidStaticGetShapes@physx@@YAIAEAVRigidStatic@Scb@1@AEAPEBQEAX@Z 000000018003d520 f   NpRigidStatic.obj
 0001:0003c570       ?requiresObjects@NpRigidStatic@physx@@UEAAXAEAVPxProcessPxBaseCallback@2@@Z 000000018003d570 f   NpRigidStatic.obj
 0001:0003c5e0       ?createObject@NpRigidStatic@physx@@SAPEAV12@AEAPEAEAEAVPxDeserializationContext@2@@Z 000000018003d5e0 f   NpRigidStatic.obj
 0001:0003c6e0       ??1NpRigidStatic@physx@@UEAA@XZ 000000018003d6e0 f   NpRigidStatic.obj
 0001:0003c740       ?release@NpRigidStatic@physx@@UEAAXXZ 000000018003d740 f   NpRigidStatic.obj
 0001:0003c830       ?setGlobalPose@NpRigidStatic@physx@@UEAAXAEBVPxTransform@2@_N@Z 000000018003d830 f   NpRigidStatic.obj
 0001:0003ca90       ?getGlobalPose@NpRigidStatic@physx@@UEBA?AVPxTransform@2@XZ 000000018003da90 f   NpRigidStatic.obj
 0001:0003cae0       ??0NpRigidStatic@physx@@QEAA@AEBVPxTransform@1@@Z 000000018003dae0 f   NpRigidStatic.obj
 0001:0003cbc0       ?switchToNoSim@NpRigidStatic@physx@@UEAAXXZ 000000018003dbc0 f   NpRigidStatic.obj
 0001:0003cbf0       ?switchFromNoSim@NpRigidStatic@physx@@UEAAXXZ 000000018003dbf0 f   NpRigidStatic.obj
 0001:0003cc20       ?visualize@NpRigidStatic@physx@@QEAAXAEAVRenderOutput@Cm@2@PEAVNpScene@2@@Z 000000018003dc20 f   NpRigidStatic.obj
 0001:0003cd50       ??0?$NpActorTemplate@VPxRigidStatic@physx@@@physx@@QEAA@GV?$PxFlags@W4Enum@PxBaseFlag@physx@@G@1@PEBDPEAX@Z 000000018003dd50 f i NpRigidStatic.obj
 0001:0003cda0       ??0?$NpRigidActorTemplate@VPxRigidStatic@physx@@@physx@@QEAA@GV?$PxFlags@W4Enum@PxBaseFlag@physx@@G@1@@Z 000000018003dda0 f i NpRigidStatic.obj
 0001:0003ce00       ??1?$NpActorTemplate@VPxRigidStatic@physx@@@physx@@UEAA@XZ 000000018003de00 f i NpRigidStatic.obj
 0001:0003ce40       ??1?$NpRigidActorTemplate@VPxRigidStatic@physx@@@physx@@UEAA@XZ 000000018003de40 f i NpRigidStatic.obj
 0001:0003ce90       ??1PxRigidStatic@physx@@MEAA@XZ 000000018003de90 f i NpRigidStatic.obj
 0001:0003cea0       ??_G?$NpActorTemplate@VPxRigidStatic@physx@@@physx@@UEAAPEAXI@Z 000000018003dea0 f i NpRigidStatic.obj
 0001:0003cea0       ??_E?$NpActorTemplate@VPxRigidStatic@physx@@@physx@@UEAAPEAXI@Z 000000018003dea0 f i NpRigidStatic.obj
 0001:0003cf20       ??_G?$NpRigidActorTemplate@VPxRigidStatic@physx@@@physx@@UEAAPEAXI@Z 000000018003df20 f i NpRigidStatic.obj
 0001:0003cf20       ??_E?$NpRigidActorTemplate@VPxRigidStatic@physx@@@physx@@UEAAPEAXI@Z 000000018003df20 f i NpRigidStatic.obj
 0001:0003cfb0       ??_GNpRigidStatic@physx@@UEAAPEAXI@Z 000000018003dfb0 f i NpRigidStatic.obj
 0001:0003cfb0       ??_ENpRigidStatic@physx@@UEAAPEAXI@Z 000000018003dfb0 f i NpRigidStatic.obj
 0001:0003d060       ??_EPxRigidStatic@physx@@MEAAPEAXI@Z 000000018003e060 f i NpRigidStatic.obj
 0001:0003d060       ??_GPxRigidStatic@physx@@MEAAPEAXI@Z 000000018003e060 f i NpRigidStatic.obj
 0001:0003d090       ?attachShape@?$NpRigidActorTemplate@VPxRigidStatic@physx@@@physx@@UEAA_NAEAVPxShape@2@@Z 000000018003e090 f i NpRigidStatic.obj
 0001:0003d130       ?detachShape@?$NpRigidActorTemplate@VPxRigidStatic@physx@@@physx@@UEAAXAEAVPxShape@2@_N@Z 000000018003e130 f i NpRigidStatic.obj
 0001:0003d1e0       ?exportExtraData@?$NpActorTemplate@VPxRigidStatic@physx@@@physx@@UEAAXAEAVPxSerializationContext@2@@Z 000000018003e1e0 f i NpRigidStatic.obj
 0001:0003d1f0       ?exportExtraData@?$NpRigidActorTemplate@VPxRigidStatic@physx@@@physx@@UEAAXAEAVPxSerializationContext@2@@Z 000000018003e1f0 f i NpRigidStatic.obj
 0001:0003d220       ?getActorFlags@?$NpActorTemplate@VPxRigidStatic@physx@@@physx@@UEBA?AV?$PxFlags@W4Enum@PxActorFlag@physx@@E@2@XZ 000000018003e220 f i NpRigidStatic.obj
 0001:0003d270       ?getAggregate@?$NpActorTemplate@VPxRigidStatic@physx@@@physx@@UEBAPEAVPxAggregate@2@XZ 000000018003e270 f i NpRigidStatic.obj
 0001:0003d280       ?getConcreteTypeName@PxRigidStatic@physx@@UEBAPEBDXZ 000000018003e280 f i NpRigidStatic.obj
 0001:0003d290       ?getConstraints@?$NpRigidActorTemplate@VPxRigidStatic@physx@@@physx@@UEBAIPEAPEAVPxConstraint@2@II@Z 000000018003e290 f i NpRigidStatic.obj
 0001:0003d340       ?getDominanceGroup@?$NpActorTemplate@VPxRigidStatic@physx@@@physx@@UEBAEXZ 000000018003e340 f i NpRigidStatic.obj
 0001:0003d380       ?getName@?$NpActorTemplate@VPxRigidStatic@physx@@@physx@@UEBAPEBDXZ 000000018003e380 f i NpRigidStatic.obj
 0001:0003d390       ?getNbConstraints@?$NpRigidActorTemplate@VPxRigidStatic@physx@@@physx@@UEBAIXZ 000000018003e390 f i NpRigidStatic.obj
 0001:0003d3a0       ?getNbShapes@?$NpRigidActorTemplate@VPxRigidStatic@physx@@@physx@@UEBAIXZ 000000018003e3a0 f i NpRigidStatic.obj
 0001:0003d3b0       ?getOwnerClient@?$NpActorTemplate@VPxRigidStatic@physx@@@physx@@UEBAEXZ 000000018003e3b0 f i NpRigidStatic.obj
 0001:0003d3e0       ?getScene@?$NpActorTemplate@VPxRigidStatic@physx@@@physx@@UEBAPEAVPxScene@2@XZ 000000018003e3e0 f i NpRigidStatic.obj
 0001:0003d3f0       ?getShapes@?$NpRigidActorTemplate@VPxRigidStatic@physx@@@physx@@UEBAIPEAPEAVPxShape@2@II@Z 000000018003e3f0 f i NpRigidStatic.obj
 0001:0003d400       ?getType@NpRigidStatic@physx@@UEBA?AW4Enum@PxActorType@2@XZ 000000018003e400 f i NpRigidStatic.obj
 0001:0003d410       ?getWorldBounds@?$NpRigidActorTemplate@VPxRigidStatic@physx@@@physx@@UEBA?AVPxBounds3@2@M@Z 000000018003e410 f i NpRigidStatic.obj
 0001:0003d5f0       ?importExtraData@?$NpActorTemplate@VPxRigidStatic@physx@@@physx@@UEAAXAEAVPxDeserializationContext@2@@Z 000000018003e5f0 f i NpRigidStatic.obj
 0001:0003d600       ?importExtraData@?$NpRigidActorTemplate@VPxRigidStatic@physx@@@physx@@UEAAXAEAVPxDeserializationContext@2@@Z 000000018003e600 f i NpRigidStatic.obj
 0001:0003d630       ?isKindOf@PxRigidStatic@physx@@MEBA_NPEBD@Z 000000018003e630 f i NpRigidStatic.obj
 0001:0003d680       ?release@?$NpActorTemplate@VPxRigidStatic@physx@@@physx@@UEAAXXZ 000000018003e680 f i NpRigidStatic.obj
 0001:0003d690       ?release@?$NpRigidActorTemplate@VPxRigidStatic@physx@@@physx@@UEAAXXZ 000000018003e690 f i NpRigidStatic.obj
 0001:0003d730       ?requiresObjects@?$NpRigidActorTemplate@VPxRigidStatic@physx@@@physx@@UEAAXAEAVPxProcessPxBaseCallback@2@@Z 000000018003e730 f i NpRigidStatic.obj
 0001:0003d7a0       ?resolveReferences@?$NpActorTemplate@VPxRigidStatic@physx@@@physx@@UEAAXAEAVPxDeserializationContext@2@@Z 000000018003e7a0 f i NpRigidStatic.obj
 0001:0003d7b0       ?resolveReferences@?$NpRigidActorTemplate@VPxRigidStatic@physx@@@physx@@UEAAXAEAVPxDeserializationContext@2@@Z 000000018003e7b0 f i NpRigidStatic.obj
 0001:0003d840       ?setActorFlag@?$NpActorTemplate@VPxRigidStatic@physx@@@physx@@UEAAXW4Enum@PxActorFlag@2@_N@Z 000000018003e840 f i NpRigidStatic.obj
 0001:0003d900       ?setActorFlag@?$NpRigidActorTemplate@VPxRigidStatic@physx@@@physx@@UEAAXW4Enum@PxActorFlag@2@_N@Z 000000018003e900 f i NpRigidStatic.obj
 0001:0003dac0       ?setActorFlags@?$NpActorTemplate@VPxRigidStatic@physx@@@physx@@UEAAXV?$PxFlags@W4Enum@PxActorFlag@physx@@E@2@@Z 000000018003eac0 f i NpRigidStatic.obj
 0001:0003daf0       ?setActorFlags@?$NpRigidActorTemplate@VPxRigidStatic@physx@@@physx@@UEAAXV?$PxFlags@W4Enum@PxActorFlag@physx@@E@2@@Z 000000018003eaf0 f i NpRigidStatic.obj
 0001:0003dc30       ?setDominanceGroup@?$NpActorTemplate@VPxRigidStatic@physx@@@physx@@UEAAXE@Z 000000018003ec30 f i NpRigidStatic.obj
 0001:0003dcd0       ?setName@?$NpActorTemplate@VPxRigidStatic@physx@@@physx@@UEAAXPEBD@Z 000000018003ecd0 f i NpRigidStatic.obj
 0001:0003dce0       ?setOwnerClient@?$NpActorTemplate@VPxRigidStatic@physx@@@physx@@UEAAXE@Z 000000018003ece0 f i NpRigidStatic.obj
 0001:0003ddb0       ?switchFromNoSim@?$NpRigidActorTemplate@VPxRigidStatic@physx@@@physx@@UEAAXXZ 000000018003edb0 f i NpRigidStatic.obj
 0001:0003ddc0       ?switchToNoSim@?$NpRigidActorTemplate@VPxRigidStatic@physx@@@physx@@UEAAXXZ 000000018003edc0 f i NpRigidStatic.obj
 0001:0003ddd0       ?updateShaderComs@?$NpRigidActorTemplate@VPxRigidStatic@physx@@@physx@@QEAAXXZ 000000018003edd0 f i NpRigidStatic.obj
 0001:0003de50       ?visualize@?$NpRigidActorTemplate@VPxRigidStatic@physx@@@physx@@QEAAXAEAVRenderOutput@Cm@2@PEAVNpScene@2@@Z 000000018003ee50 f i NpRigidStatic.obj
 0001:0003de60       ??0NpSceneQueries@physx@@QEAA@AEBVPxSceneDesc@1@@Z 000000018003ee60 f   NpScene.obj
 0001:0003dfd0       ??1NpSceneQueries@physx@@UEAA@XZ 000000018003efd0 f   NpScene.obj
 0001:0003e040       ?setData@NpContactCallbackTask@physx@@QEAAXPEAVNpScene@2@PEBUPxContactPairHeader@2@I@Z 000000018003f040 f   NpScene.obj
 0001:0003e060       ?run@NpContactCallbackTask@physx@@UEAAXXZ 000000018003f060 f   NpScene.obj
 0001:0003e0f0       ?release@NpScene@physx@@UEAAXXZ 000000018003f0f0 f   NpScene.obj
 0001:0003e1c0       ?setFlag@NpScene@physx@@UEAAXW4Enum@PxSceneFlag@2@_N@Z 000000018003f1c0 f   NpScene.obj
 0001:0003e250       ?getFlags@NpScene@physx@@UEBA?AV?$PxFlags@W4Enum@PxSceneFlag@physx@@I@2@XZ 000000018003f250 f   NpScene.obj
 0001:0003e280       ?setGravity@NpScene@physx@@UEAAXAEBVPxVec3@2@@Z 000000018003f280 f   NpScene.obj
 0001:0003e2e0       ?getGravity@NpScene@physx@@UEBA?AVPxVec3@2@XZ 000000018003f2e0 f   NpScene.obj
 0001:0003e350       ?setBounceThresholdVelocity@NpScene@physx@@UEAAXM@Z 000000018003f350 f   NpScene.obj
 0001:0003e380       ?getBounceThresholdVelocity@NpScene@physx@@UEBAMXZ 000000018003f380 f   NpScene.obj
 0001:0003e3b0       ?getFrictionOffsetThreshold@NpScene@physx@@UEBAMXZ 000000018003f3b0 f   NpScene.obj
 0001:0003e3c0       ?setLimits@NpScene@physx@@UEAAXAEBVPxSceneLimits@2@@Z 000000018003f3c0 f   NpScene.obj
 0001:0003e440       ?getLimits@NpScene@physx@@UEBA?AVPxSceneLimits@2@XZ 000000018003f440 f   NpScene.obj
 0001:0003e460       ?addActor@NpScene@physx@@UEAAXAEAVPxActor@2@PEBVPxBVHStructure@2@@Z 000000018003f460 f   NpScene.obj
 0001:0003e650       ?removeActor@NpScene@physx@@UEAAXAEAVPxActor@2@_N@Z 000000018003f650 f   NpScene.obj
 0001:0003e6f0       ?getNbConstraints@NpScene@physx@@UEBAIXZ 000000018003f6f0 f   NpScene.obj
 0001:0003e700       ?getConstraints@NpScene@physx@@UEBAIPEAPEAVPxConstraint@2@II@Z 000000018003f700 f   NpScene.obj
 0001:0003e760       ?addArticulation@NpScene@physx@@UEAAXAEAVPxArticulationBase@2@@Z 000000018003f760 f   NpScene.obj
 0001:0003e870       ?removeArticulation@NpScene@physx@@UEAAXAEAVPxArticulationBase@2@_N@Z 000000018003f870 f   NpScene.obj
 0001:0003e910       ?getNbArticulations@NpScene@physx@@UEBAIXZ 000000018003f910 f   NpScene.obj
 0001:0003e920       ?getArticulations@NpScene@physx@@UEBAIPEAPEAVPxArticulationBase@2@II@Z 000000018003f920 f   NpScene.obj
 0001:0003e980       ?addAggregate@NpScene@physx@@UEAAXAEAVPxAggregate@2@@Z 000000018003f980 f   NpScene.obj
 0001:0003eb80       ?removeAggregate@NpScene@physx@@UEAAXAEAVPxAggregate@2@_N@Z 000000018003fb80 f   NpScene.obj
 0001:0003ed60       ?getNbAggregates@NpScene@physx@@UEBAIXZ 000000018003fd60 f   NpScene.obj
 0001:0003ed70       ?getAggregates@NpScene@physx@@UEBAIPEAPEAVPxAggregate@2@II@Z 000000018003fd70 f   NpScene.obj
 0001:0003edd0       ?addCollection@NpScene@physx@@UEAAXAEBVPxCollection@2@@Z 000000018003fdd0 f   NpScene.obj
 0001:0003ef70       ?setDominanceGroupPair@NpScene@physx@@UEAAXEEAEBUPxDominanceGroupPair@2@@Z 000000018003ff70 f   NpScene.obj
 0001:0003f040       ?getDominanceGroupPair@NpScene@physx@@UEBA?AUPxDominanceGroupPair@2@EE@Z 0000000180040040 f   NpScene.obj
 0001:0003f110       ?getNbActors@NpScene@physx@@UEBAIV?$PxFlags@W4Enum@PxActorTypeFlag@physx@@G@2@@Z 0000000180040110 f   NpScene.obj
 0001:0003f1b0       ?getActors@NpScene@physx@@UEBAIV?$PxFlags@W4Enum@PxActorTypeFlag@physx@@G@2@PEAPEAVPxActor@2@II@Z 00000001800401b0 f   NpScene.obj
 0001:0003f290       ?getActiveActors@NpScene@physx@@UEAAPEAPEAVPxActor@2@AEAI@Z 0000000180040290 f   NpScene.obj
 0001:0003f2f0       ?getSimulationStatistics@NpScene@physx@@UEBAXAEAVPxSimulationStatistics@2@@Z 00000001800402f0 f   NpScene.obj
 0001:0003f340       ?createClient@NpScene@physx@@UEAAEXZ 0000000180040340 f   NpScene.obj
 0001:0003f380       ?setFrictionType@NpScene@physx@@UEAAXW4Enum@PxFrictionType@2@@Z 0000000180040380 f   NpScene.obj
 0001:0003f390       ?getFrictionType@NpScene@physx@@UEBA?AW4Enum@PxFrictionType@2@XZ 0000000180040390 f   NpScene.obj
 0001:0003f3a0       ?setSimulationEventCallback@NpScene@physx@@UEAAXPEAVPxSimulationEventCallback@2@@Z 00000001800403a0 f   NpScene.obj
 0001:0003f3f0       ?getSimulationEventCallback@NpScene@physx@@UEBAPEAVPxSimulationEventCallback@2@XZ 00000001800403f0 f   NpScene.obj
 0001:0003f400       ?setContactModifyCallback@NpScene@physx@@UEAAXPEAVPxContactModifyCallback@2@@Z 0000000180040400 f   NpScene.obj
 0001:0003f450       ?getContactModifyCallback@NpScene@physx@@UEBAPEAVPxContactModifyCallback@2@XZ 0000000180040450 f   NpScene.obj
 0001:0003f460       ?setCCDContactModifyCallback@NpScene@physx@@UEAAXPEAVPxCCDContactModifyCallback@2@@Z 0000000180040460 f   NpScene.obj
 0001:0003f4b0       ?getCCDContactModifyCallback@NpScene@physx@@UEBAPEAVPxCCDContactModifyCallback@2@XZ 00000001800404b0 f   NpScene.obj
 0001:0003f4c0       ?setBroadPhaseCallback@NpScene@physx@@UEAAXPEAVPxBroadPhaseCallback@2@@Z 00000001800404c0 f   NpScene.obj
 0001:0003f510       ?getBroadPhaseCallback@NpScene@physx@@UEBAPEAVPxBroadPhaseCallback@2@XZ 0000000180040510 f   NpScene.obj
 0001:0003f520       ?setCCDMaxPasses@NpScene@physx@@UEAAXI@Z 0000000180040520 f   NpScene.obj
 0001:0003f570       ?getCCDMaxPasses@NpScene@physx@@UEBAIXZ 0000000180040570 f   NpScene.obj
 0001:0003f580       ?setFilterShaderData@NpScene@physx@@UEAAXPEBXI@Z 0000000180040580 f   NpScene.obj
 0001:0003f5d0       ?getFilterShaderData@NpScene@physx@@UEBAPEBXXZ 00000001800405d0 f   NpScene.obj
 0001:0003f5e0       ?getFilterShaderDataSize@NpScene@physx@@UEBAIXZ 00000001800405e0 f   NpScene.obj
 0001:0003f5f0       ?getFilterShader@NpScene@physx@@UEBAP6A?AV?$PxFlags@W4Enum@PxFilterFlag@physx@@G@2@IUPxFilterData@2@I0AEAV?$PxFlags@W4Enum@PxPairFlag@physx@@G@2@PEBXI@ZXZ 00000001800405f0 f   NpScene.obj
 0001:0003f600       ?getFilterCallback@NpScene@physx@@UEBAPEAVPxSimulationFilterCallback@2@XZ 0000000180040600 f   NpScene.obj
 0001:0003f610       ?resetFiltering@NpScene@physx@@UEAAXAEAVPxActor@2@@Z 0000000180040610 f   NpScene.obj
 0001:0003f720       ?resetFiltering@NpScene@physx@@UEAAXAEAVPxRigidActor@2@PEBQEAVPxShape@2@I@Z 0000000180040720 f   NpScene.obj
 0001:0003f820       ?getKinematicKinematicFilteringMode@NpScene@physx@@UEBA?AW4Enum@PxPairFilteringMode@2@XZ 0000000180040820 f   NpScene.obj
 0001:0003f830       ?getStaticKinematicFilteringMode@NpScene@physx@@UEBA?AW4Enum@PxPairFilteringMode@2@XZ 0000000180040830 f   NpScene.obj
 0001:0003f840       ?getPhysics@NpScene@physx@@UEAAAEAVPxPhysics@2@XZ 0000000180040840 f   NpScene.obj
 0001:0003f850       ?simulate@NpScene@physx@@UEAAXMPEAVPxBaseTask@2@PEAXI_N@Z 0000000180040850 f   NpScene.obj
 0001:0003f890       ?advance@NpScene@physx@@UEAAXPEAVPxBaseTask@2@@Z 0000000180040890 f   NpScene.obj
 0001:0003f970       ?collide@NpScene@physx@@UEAAXMPEAVPxBaseTask@2@PEAXI_N@Z 0000000180040970 f   NpScene.obj
 0001:0003f9b0       ?checkResults@NpScene@physx@@UEAA_N_N@Z 00000001800409b0 f   NpScene.obj
 0001:0003f9d0       ?checkCollision@NpScene@physx@@UEAA_N_N@Z 00000001800409d0 f   NpScene.obj
 0001:0003f9f0       ?fetchCollision@NpScene@physx@@UEAA_N_N@Z 00000001800409f0 f   NpScene.obj
 0001:0003fa70       ?fetchResults@NpScene@physx@@UEAA_N_NPEAI@Z 0000000180040a70 f   NpScene.obj
 0001:0003fb40       ?fetchResultsStart@NpScene@physx@@UEAA_NAEAPEBUPxContactPairHeader@2@AEAI_N@Z 0000000180040b40 f   NpScene.obj
 0001:0003fc20       ?processCallbacks@NpScene@physx@@UEAAXPEAVPxBaseTask@2@@Z 0000000180040c20 f   NpScene.obj
 0001:0003fe40       ?fetchResultsFinish@NpScene@physx@@UEAAXPEAI@Z 0000000180040e40 f   NpScene.obj
 0001:0003fea0       ?flushSimulation@NpScene@physx@@UEAAX_N@Z 0000000180040ea0 f   NpScene.obj
 0001:0003fff0       ?flushQueryUpdates@NpScene@physx@@UEAAXXZ 0000000180040ff0 f   NpScene.obj
 0001:00040030       ?getRenderBuffer@NpScene@physx@@UEAAAEBVPxRenderBuffer@2@XZ 0000000180041030 f   NpScene.obj
 0001:00040090       ?createBatchQuery@NpScene@physx@@UEAAPEAVPxBatchQuery@2@AEBVPxBatchQueryDesc@2@@Z 0000000180041090 f   NpScene.obj
 0001:00040180       ?releaseBatchQuery@NpScene@physx@@QEAAXPEAVPxBatchQuery@2@@Z 0000000180041180 f   NpScene.obj
 0001:000401f0       ?setDynamicTreeRebuildRateHint@NpScene@physx@@UEAAXI@Z 00000001800411f0 f   NpScene.obj
 0001:00040210       ?getDynamicTreeRebuildRateHint@NpScene@physx@@UEBAIXZ 0000000180041210 f   NpScene.obj
 0001:00040220       ?forceDynamicTreeRebuild@NpScene@physx@@UEAAX_N0@Z 0000000180041220 f   NpScene.obj
 0001:00040260       ?sceneQueriesUpdate@NpScene@physx@@UEAAXPEAVPxBaseTask@2@_N@Z 0000000180041260 f   NpScene.obj
 0001:00040420       ?checkQueries@NpScene@physx@@UEAA_N_N@Z 0000000180041420 f   NpScene.obj
 0001:00040440       ?fetchQueries@NpScene@physx@@UEAA_N_N@Z 0000000180041440 f   NpScene.obj
 0001:00040500       ?setSceneQueryUpdateMode@NpScene@physx@@UEAAXW4Enum@PxSceneQueryUpdateMode@2@@Z 0000000180041500 f   NpScene.obj
 0001:00040510       ?getSceneQueryUpdateMode@NpScene@physx@@UEBA?AW4Enum@PxSceneQueryUpdateMode@2@XZ 0000000180041510 f   NpScene.obj
 0001:00040520       ?setSolverBatchSize@NpScene@physx@@UEAAXI@Z 0000000180041520 f   NpScene.obj
 0001:00040550       ?getSolverBatchSize@NpScene@physx@@UEBAIXZ 0000000180041550 f   NpScene.obj
 0001:00040570       ?setSolverArticulationBatchSize@NpScene@physx@@UEAAXI@Z 0000000180041570 f   NpScene.obj
 0001:000405a0       ?getSolverArticulationBatchSize@NpScene@physx@@UEBAIXZ 00000001800415a0 f   NpScene.obj
 0001:000405c0       ?setVisualizationParameter@NpScene@physx@@UEAA_NW4Enum@PxVisualizationParameter@2@M@Z 00000001800415c0 f   NpScene.obj
 0001:00040660       ?getVisualizationParameter@NpScene@physx@@UEBAMW4Enum@PxVisualizationParameter@2@@Z 0000000180041660 f   NpScene.obj
 0001:000406e0       ?setVisualizationCullingBox@NpScene@physx@@UEAAXAEBVPxBounds3@2@@Z 00000001800416e0 f   NpScene.obj
 0001:00040740       ?getVisualizationCullingBox@NpScene@physx@@UEBA?AVPxBounds3@2@XZ 0000000180041740 f   NpScene.obj
 0001:000407a0       ?setNbContactDataBlocks@NpScene@physx@@UEAAXI@Z 00000001800417a0 f   NpScene.obj
 0001:000407b0       ?getNbContactDataBlocksUsed@NpScene@physx@@UEBAIXZ 00000001800417b0 f   NpScene.obj
 0001:000407c0       ?getMaxNbContactDataBlocksUsed@NpScene@physx@@UEBAIXZ 00000001800417c0 f   NpScene.obj
 0001:000407d0       ?getContactReportStreamBufferSize@NpScene@physx@@UEBAIXZ 00000001800417d0 f   NpScene.obj
 0001:000407e0       ?getTimestamp@NpScene@physx@@UEBAIXZ 00000001800417e0 f   NpScene.obj
 0001:000407f0       ?getSceneQueryStaticTimestamp@NpScene@physx@@UEBAIXZ 00000001800417f0 f   NpScene.obj
 0001:00040800       ?getCpuDispatcher@NpScene@physx@@UEBAPEAVPxCpuDispatcher@2@XZ 0000000180041800 f   NpScene.obj
 0001:00040830       ?getCudaContextManager@NpScene@physx@@UEBAPEAVPxCudaContextManager@2@XZ 0000000180041830 f   NpScene.obj
 0001:00040840       ?getStaticStructure@NpScene@physx@@UEBA?AW4Enum@PxPruningStructureType@2@XZ 0000000180041840 f   NpScene.obj
 0001:00040850       ?getDynamicStructure@NpScene@physx@@UEBA?AW4Enum@PxPruningStructureType@2@XZ 0000000180041850 f   NpScene.obj
 0001:00040860       ?getBroadPhaseType@NpScene@physx@@UEBA?AW4Enum@PxBroadPhaseType@2@XZ 0000000180041860 f   NpScene.obj
 0001:00040870       ?getBroadPhaseCaps@NpScene@physx@@UEBA_NAEAUPxBroadPhaseCaps@2@@Z 0000000180041870 f   NpScene.obj
 0001:00040880       ?getNbBroadPhaseRegions@NpScene@physx@@UEBAIXZ 0000000180041880 f   NpScene.obj
 0001:00040890       ?getBroadPhaseRegions@NpScene@physx@@UEBAIPEAUPxBroadPhaseRegionInfo@2@II@Z 0000000180041890 f   NpScene.obj
 0001:000408a0       ?addBroadPhaseRegion@NpScene@physx@@UEAAIAEBUPxBroadPhaseRegion@2@_N@Z 00000001800418a0 f   NpScene.obj
 0001:00040900       ?removeBroadPhaseRegion@NpScene@physx@@UEAA_NI@Z 0000000180041900 f   NpScene.obj
 0001:00040910       ?addActors@NpScene@physx@@UEAAXPEBQEAVPxActor@2@I@Z 0000000180041910 f   NpScene.obj
 0001:00040920       ?addActors@NpScene@physx@@UEAAXAEBVPxPruningStructure@2@@Z 0000000180041920 f   NpScene.obj
 0001:00040980       ?removeActors@NpScene@physx@@UEAAXPEBQEAVPxActor@2@I_N@Z 0000000180041980 f   NpScene.obj
 0001:00040eb0       ?lockRead@NpScene@physx@@UEAAXPEBDI@Z 0000000180041eb0 f   NpScene.obj
 0001:00040f40       ?unlockRead@NpScene@physx@@UEAAXXZ 0000000180041f40 f   NpScene.obj
 0001:00041000       ?lockWrite@NpScene@physx@@UEAAXPEBDI@Z 0000000180042000 f   NpScene.obj
 0001:00041100       ?unlockWrite@NpScene@physx@@UEAAXXZ 0000000180042100 f   NpScene.obj
 0001:000411d0       ?getWakeCounterResetValue@NpScene@physx@@UEBAMXZ 00000001800421d0 f   NpScene.obj
 0001:000411e0       ?shiftOrigin@NpScene@physx@@UEAAXAEBVPxVec3@2@@Z 00000001800421e0 f   NpScene.obj
 0001:000416b0       ?getScenePvdClient@NpScene@physx@@UEAAPEAVPxPvdSceneClient@2@XZ 00000001800426b0 f   NpScene.obj
 0001:000416c0       ?getSimulationController@NpScene@physx@@UEAAPEAVPxsSimulationController@2@XZ 00000001800426c0 f   NpScene.obj
 0001:000416d0       ?setActiveActors@NpScene@physx@@UEAAXPEAPEAVPxActor@2@I@Z 00000001800426d0 f   NpScene.obj
 0001:000416e0       ?getFrozenActors@NpScene@physx@@UEAAPEAPEAVPxActor@2@AEAI@Z 00000001800426e0 f   NpScene.obj
 0001:00041740       ?setFrozenActorFlag@NpScene@physx@@UEAAX_N@Z 0000000180042740 f   NpScene.obj
 0001:00041750       ?forceSceneQueryRebuild@NpScene@physx@@UEAAXXZ 0000000180042750 f   NpScene.obj
 0001:000417a0       ?frameEnd@NpScene@physx@@UEAAXXZ 00000001800427a0 f   NpScene.obj
 0001:000417b0       ??0NpScene@physx@@QEAA@AEBVPxSceneDesc@1@@Z 00000001800427b0 f   NpScene.obj
 0001:00041e50       ??1NpScene@physx@@UEAA@XZ  0000000180042e50 f   NpScene.obj
 0001:00042490       ?addActorInternal@NpScene@physx@@QEAAXAEAVPxActor@2@PEBVPxBVHStructure@2@@Z 0000000180043490 f   NpScene.obj
 0001:000425b0       ?removeActorInternal@NpScene@physx@@QEAAXAEAVPxActor@2@_N1@Z 00000001800435b0 f   NpScene.obj
 0001:000427f0       ?addActorsInternal@NpScene@physx@@QEAAXPEIBQEAVPxActor@2@IPEBVPruningStructure@Sq@2@@Z 00000001800437f0 f   NpScene.obj
 0001:00042eb0       ?addArticulationInternal@NpScene@physx@@QEAAXAEAVPxArticulationBase@2@@Z 0000000180043eb0 f   NpScene.obj
 0001:000434d0       ?removeArticulationInternal@NpScene@physx@@QEAAXAEAVPxArticulationBase@2@_N1@Z 00000001800444d0 f   NpScene.obj
 0001:000437a0       ?addMaterial@NpScene@physx@@QEAAXAEBVNpMaterial@2@@Z 00000001800447a0 f   NpScene.obj
 0001:000437c0       ?updateMaterial@NpScene@physx@@QEAAXAEBVNpMaterial@2@@Z 00000001800447c0 f   NpScene.obj
 0001:000437e0       ?removeMaterial@NpScene@physx@@QEAAXAEBVNpMaterial@2@@Z 00000001800447e0 f   NpScene.obj
 0001:00043800       ?executeScene@NpScene@physx@@QEAAXPEAVPxBaseTask@2@@Z 0000000180044800 f   NpScene.obj
 0001:00043820       ?executeCollide@NpScene@physx@@QEAAXPEAVPxBaseTask@2@@Z 0000000180044820 f   NpScene.obj
 0001:00043840       ?executeAdvance@NpScene@physx@@QEAAXPEAVPxBaseTask@2@@Z 0000000180044840 f   NpScene.obj
 0001:00043860       ?loadFromDesc@NpScene@physx@@QEAA_NAEBVPxSceneDesc@2@@Z 0000000180044860 f   NpScene.obj
 0001:000438d0       ?removeFromRigidActorList@NpScene@physx@@QEAAXAEBI@Z 00000001800448d0 f   NpScene.obj
 0001:00043950       ?addArticulationLink@NpScene@physx@@QEAAXAEAVNpArticulationLink@2@@Z 0000000180044950 f   NpScene.obj
 0001:00043a30       ?addArticulationLinkBody@NpScene@physx@@QEAAXAEAVNpArticulationLink@2@@Z 0000000180044a30 f   NpScene.obj
 0001:00043aa0       ?addArticulationLinkConstraint@NpScene@physx@@QEAAXAEAVNpArticulationLink@2@@Z 0000000180044aa0 f   NpScene.obj
 0001:00043b00       ?removeArticulationLink@NpScene@physx@@QEAAXAEAVNpArticulationLink@2@_N@Z 0000000180044b00 f   NpScene.obj
 0001:00043ba0       ?startWrite@NpScene@physx@@QEAA?AW4Enum@StartWriteResult@12@_N@Z 0000000180044ba0 f   NpScene.obj
 0001:00043bb0       ?stopWrite@NpScene@physx@@QEAAX_N@Z 0000000180044bb0 f   NpScene.obj
 0001:00043bc0       ?startRead@NpScene@physx@@QEBA_NXZ 0000000180044bc0 f   NpScene.obj
 0001:00043bd0       ?stopRead@NpScene@physx@@QEBAXXZ 0000000180044bd0 f   NpScene.obj
 0001:00043be0       ?updatePhysXIndicator@NpScene@physx@@QEAAXXZ 0000000180044be0 f   NpScene.obj
 0001:00043c00       ?checkResultsInternal@NpScene@physx@@AEAA_N_N@Z 0000000180044c00 f   NpScene.obj
 0001:00043c20       ?checkCollisionInternal@NpScene@physx@@AEAA_N_N@Z 0000000180044c20 f   NpScene.obj
 0001:00043c40       ?checkSceneQueriesInternal@NpScene@physx@@AEAA_N_N@Z 0000000180044c40 f   NpScene.obj
 0001:00043c60       ?simulateOrCollide@NpScene@physx@@AEAAXMPEAVPxBaseTask@2@PEAXI_NPEBDW4Enum@SimulationStage@Sc@2@@Z 0000000180044c60 f   NpScene.obj
 0001:00043ee0       ?addRigidStatic@NpScene@physx@@AEAAXAEAVNpRigidStatic@2@PEBVBVHStructure@Gu@2@_N@Z 0000000180044ee0 f   NpScene.obj
 0001:00044010       ?removeRigidStatic@NpScene@physx@@AEAAXAEAVNpRigidStatic@2@_N1@Z 0000000180045010 f   NpScene.obj
 0001:00044150       ?addRigidDynamic@NpScene@physx@@AEAAXAEAVNpRigidDynamic@2@PEBVBVHStructure@Gu@2@_N@Z 0000000180045150 f   NpScene.obj
 0001:00044280       ?removeRigidDynamic@NpScene@physx@@AEAAXAEAVNpRigidDynamic@2@_N1@Z 0000000180045280 f   NpScene.obj
 0001:000443c0       ?visualize@NpScene@physx@@AEAAXXZ 00000001800453c0 f   NpScene.obj
 0001:00044710       ?updateDirtyShaders@NpScene@physx@@AEAAXXZ 0000000180045710 f   NpScene.obj
 0001:00044760       ?fireOutOfBoundsCallbacks@NpScene@physx@@AEAAXXZ 0000000180045760 f   NpScene.obj
 0001:00044840       ?fetchResultsPreContactCallbacks@NpScene@physx@@AEAAXXZ 0000000180045840 f   NpScene.obj
 0001:00044950       ?fetchResultsPostContactCallbacks@NpScene@physx@@AEAAXXZ 0000000180045950 f   NpScene.obj
 0001:00044a70       ?updateScbStateAndSetupSq@NpScene@physx@@AEAAXAEBVPxRigidActor@2@AEAVActor@Scb@2@AEAVNpShapeManager@2@_NPEBVPxBounds3@2@3@Z 0000000180045a70 f   NpScene.obj
 0001:00044ba0       ??$allocArrayBuffer@PEAVShape@Scb@physx@@@Scene@Scb@physx@@AEAAPEAPEAVShape@12@AEAV?$Array@PEAVShape@Scb@physx@@V?$ReflectionAllocator@PEAVShape@Scb@physx@@@shdfnd@3@@shdfnd@2@IAEAI@Z 0000000180045ba0 f i NpScene.obj
 0001:00044bf0       ??$sort@PEAXU?$Less@PEAX@shdfnd@physx@@V?$ReflectionAllocator@U?$Block@E$0BAA@@Scene@Sc@physx@@@23@@shdfnd@physx@@YAXPEAPEAXIAEBU?$Less@PEAX@01@AEBV?$ReflectionAllocator@U?$Block@E$0BAA@@Scene@Sc@physx@@@01@I@Z 0000000180045bf0 f i NpScene.obj
 0001:00045050       ??$sort@PEAXU?$Less@PEAX@shdfnd@physx@@V?$ReflectionAllocator@U?$Block@E$0BIA@@Scene@Sc@physx@@@23@@shdfnd@physx@@YAXPEAPEAXIAEBU?$Less@PEAX@01@AEBV?$ReflectionAllocator@U?$Block@E$0BIA@@Scene@Sc@physx@@@01@I@Z 0000000180046050 f i NpScene.obj
 0001:000454b0       ??$sort@PEAXU?$Less@PEAX@shdfnd@physx@@V?$ReflectionAllocator@U?$Block@E$0IA@@Scene@Sc@physx@@@23@@shdfnd@physx@@YAXPEAPEAXIAEBU?$Less@PEAX@01@AEBV?$ReflectionAllocator@U?$Block@E$0IA@@Scene@Sc@physx@@@01@I@Z 00000001800464b0 f i NpScene.obj
 0001:00045910       ??$sort@PEAXU?$Less@PEAX@shdfnd@physx@@V?$ReflectionAllocator@U?$Block@PEAX$07@Scene@Sc@physx@@@23@@shdfnd@physx@@YAXPEAPEAXIAEBU?$Less@PEAX@01@AEBV?$ReflectionAllocator@U?$Block@PEAX$07@Scene@Sc@physx@@@01@I@Z 0000000180046910 f i NpScene.obj
 0001:00045d70       ??$sort@PEAXU?$Less@PEAX@shdfnd@physx@@V?$ReflectionAllocator@U?$Block@PEAX$0BA@@Scene@Sc@physx@@@23@@shdfnd@physx@@YAXPEAPEAXIAEBU?$Less@PEAX@01@AEBV?$ReflectionAllocator@U?$Block@PEAX$0BA@@Scene@Sc@physx@@@01@I@Z 0000000180046d70 f i NpScene.obj
 0001:000461d0       ??$sort@PEAXU?$Less@PEAX@shdfnd@physx@@V?$ReflectionAllocator@U?$Block@PEAX$0CA@@Scene@Sc@physx@@@23@@shdfnd@physx@@YAXPEAPEAXIAEBU?$Less@PEAX@01@AEBV?$ReflectionAllocator@U?$Block@PEAX$0CA@@Scene@Sc@physx@@@01@I@Z 00000001800471d0 f i NpScene.obj
 0001:00046630       ??0PxBounds3@physx@@QEAA@XZ 0000000180047630 f i NpScene.obj
 0001:00046640       ??1?$Array@IV?$ReflectionAllocator@I@shdfnd@physx@@@shdfnd@physx@@QEAA@XZ 0000000180047640 f i NpScene.obj
 0001:00046690       ??1?$Array@PEAVInteraction@Sc@physx@@V?$ReflectionAllocator@PEAVInteraction@Sc@physx@@@shdfnd@3@@shdfnd@physx@@QEAA@XZ 0000000180047690 f i NpScene.obj
 0001:000466e0       ??1FanoutTask@Cm@physx@@UEAA@XZ 00000001800476e0 f i NpScene.obj
 0001:000467a0       ??1FlushPool@Cm@physx@@QEAA@XZ 00000001800477a0 f i NpScene.obj
 0001:00046850       ??1NpSceneAccessor@physx@@UEAA@XZ 0000000180047850 f i NpScene.obj
 0001:00046860       ??1PxBaseTask@physx@@UEAA@XZ 0000000180047860 f i NpScene.obj
 0001:00046870       ??1PxLightCpuTask@physx@@UEAA@XZ 0000000180047870 f i NpScene.obj
 0001:00046890       ??1PxRenderBuffer@physx@@UEAA@XZ 0000000180047890 f i NpScene.obj
 0001:000468a0       ??1PxScene@physx@@MEAA@XZ  00000001800478a0 f i NpScene.obj
 0001:000468b0       ??1RenderBuffer@Cm@physx@@UEAA@XZ 00000001800478b0 f i NpScene.obj
 0001:000469a0       ??1Scene@Sc@physx@@QEAA@XZ 00000001800479a0 f i NpScene.obj
 0001:00047c90       ??1Scene@Scb@physx@@QEAA@XZ 0000000180048c90 f i NpScene.obj
 0001:00047e80       ??1SqRefFinder@Sc@physx@@UEAA@XZ 0000000180048e80 f i NpScene.obj
 0001:00047e90       ??_G?$DelegateTask@VNpScene@physx@@$H?executeAdvance@12@QEAAXPEAVPxBaseTask@2@@ZA@@Cm@physx@@UEAAPEAXI@Z 0000000180048e90 f i NpScene.obj
 0001:00047e90       ??_E?$DelegateTask@VNpScene@physx@@$H?executeAdvance@12@QEAAXPEAVPxBaseTask@2@@ZA@@Cm@physx@@UEAAPEAXI@Z 0000000180048e90 f i NpScene.obj
 0001:00047ef0       ??_G?$DelegateTask@VNpScene@physx@@$H?executeCollide@12@QEAAXPEAVPxBaseTask@2@@ZA@@Cm@physx@@UEAAPEAXI@Z 0000000180048ef0 f i NpScene.obj
 0001:00047ef0       ??_E?$DelegateTask@VNpScene@physx@@$H?executeCollide@12@QEAAXPEAVPxBaseTask@2@@ZA@@Cm@physx@@UEAAPEAXI@Z 0000000180048ef0 f i NpScene.obj
 0001:00047f50       ??_E?$DelegateTask@VNpScene@physx@@$H?executeScene@12@QEAAXPEAVPxBaseTask@2@@ZA@@Cm@physx@@UEAAPEAXI@Z 0000000180048f50 f i NpScene.obj
 0001:00047f50       ??_G?$DelegateTask@VNpScene@physx@@$H?executeScene@12@QEAAXPEAVPxBaseTask@2@@ZA@@Cm@physx@@UEAAPEAXI@Z 0000000180048f50 f i NpScene.obj
 0001:00047fb0       ??_E?$DelegateTask@VNpSceneQueries@physx@@$1?sceneQueriesDynamicPrunerUpdate@12@QEAAXPEAVPxBaseTask@2@@Z@Cm@physx@@UEAAPEAXI@Z 0000000180048fb0 f i NpScene.obj
 0001:00047fb0       ??_G?$DelegateTask@VNpSceneQueries@physx@@$1?sceneQueriesDynamicPrunerUpdate@12@QEAAXPEAVPxBaseTask@2@@Z@Cm@physx@@UEAAPEAXI@Z 0000000180048fb0 f i NpScene.obj
 0001:00048010       ??_E?$DelegateTask@VNpSceneQueries@physx@@$1?sceneQueriesStaticPrunerUpdate@12@QEAAXPEAVPxBaseTask@2@@Z@Cm@physx@@UEAAPEAXI@Z 0000000180049010 f i NpScene.obj
 0001:00048010       ??_G?$DelegateTask@VNpSceneQueries@physx@@$1?sceneQueriesStaticPrunerUpdate@12@QEAAXPEAVPxBaseTask@2@@Z@Cm@physx@@UEAAPEAXI@Z 0000000180049010 f i NpScene.obj
 0001:00048070       ??_ENpContactCallbackTask@physx@@UEAAPEAXI@Z 0000000180049070 f i NpScene.obj
 0001:00048070       ??_GNpContactCallbackTask@physx@@UEAAPEAXI@Z 0000000180049070 f i NpScene.obj
 0001:000480b0       ??_ENpScene@physx@@UEAAPEAXI@Z 00000001800490b0 f i NpScene.obj
 0001:000480b0       ??_GNpScene@physx@@UEAAPEAXI@Z 00000001800490b0 f i NpScene.obj
 0001:00048110       ??_GNpSceneAccessor@physx@@UEAAPEAXI@Z 0000000180049110 f i NpScene.obj
 0001:00048110       ??_ENpSceneAccessor@physx@@UEAAPEAXI@Z 0000000180049110 f i NpScene.obj
 0001:00048140       ??_GNpSceneQueries@physx@@UEAAPEAXI@Z 0000000180049140 f i NpScene.obj
 0001:00048140       ??_ENpSceneQueries@physx@@UEAAPEAXI@Z 0000000180049140 f i NpScene.obj
 0001:000481c0       ??_EPxBaseTask@physx@@UEAAPEAXI@Z 00000001800491c0 f i NpScene.obj
 0001:000481c0       ??_GPxBaseTask@physx@@UEAAPEAXI@Z 00000001800491c0 f i NpScene.obj
 0001:000481f0       ??_EPxLightCpuTask@physx@@UEAAPEAXI@Z 00000001800491f0 f i NpScene.obj
 0001:000481f0       ??_GPxLightCpuTask@physx@@UEAAPEAXI@Z 00000001800491f0 f i NpScene.obj
 0001:00048230       ??_EPxRenderBuffer@physx@@UEAAPEAXI@Z 0000000180049230 f i NpScene.obj
 0001:00048230       ??_GPxRenderBuffer@physx@@UEAAPEAXI@Z 0000000180049230 f i NpScene.obj
 0001:00048260       ??_GPxScene@physx@@MEAAPEAXI@Z 0000000180049260 f i NpScene.obj
 0001:00048260       ??_EPxScene@physx@@MEAAPEAXI@Z 0000000180049260 f i NpScene.obj
 0001:00048290       ??_ERenderBuffer@Cm@physx@@UEAAPEAXI@Z 0000000180049290 f i NpScene.obj
 0001:00048290       ??_GRenderBuffer@Cm@physx@@UEAAPEAXI@Z 0000000180049290 f i NpScene.obj
 0001:000482f0       ??_GSceneCompletion@NpScene@physx@@UEAAPEAXI@Z 00000001800492f0 f i NpScene.obj
 0001:000482f0       ??_ESceneCompletion@NpScene@physx@@UEAAPEAXI@Z 00000001800492f0 f i NpScene.obj
 0001:00048330       ??_GSqRefFinder@@UEAAPEAXI@Z 0000000180049330 f i NpScene.obj
 0001:00048330       ??_ESqRefFinder@@UEAAPEAXI@Z 0000000180049330 f i NpScene.obj
 0001:00048360       ??_ESqRefFinder@Sc@physx@@UEAAPEAXI@Z 0000000180049360 f i NpScene.obj
 0001:00048360       ??_GSqRefFinder@Sc@physx@@UEAAPEAXI@Z 0000000180049360 f i NpScene.obj
 0001:00048390       ??_ETask@Cm@physx@@UEAAPEAXI@Z 0000000180049390 f i NpScene.obj
 0001:00048390       ??_GTask@Cm@physx@@UEAAPEAXI@Z 0000000180049390 f i NpScene.obj
 0001:000483d0       ?addReference@PxLightCpuTask@physx@@UEAAXXZ 00000001800493d0 f i NpScene.obj
 0001:000483e0       ?allocate@?$Array@PEAVPxRigidActor@physx@@V?$ReflectionAllocator@PEAVPxRigidActor@physx@@@shdfnd@2@@shdfnd@physx@@IEAAPEAPEAVPxRigidActor@3@I@Z 00000001800493e0 f i NpScene.obj
 0001:00048480       ?allocate@?$Array@UPxDebugPoint@physx@@V?$ReflectionAllocator@UPxDebugPoint@physx@@@shdfnd@2@@shdfnd@physx@@IEAAPEAUPxDebugPoint@3@I@Z 0000000180049480 f i NpScene.obj
 0001:00048520       ?allocate@?$Array@UPxDebugText@physx@@V?$ReflectionAllocator@UPxDebugText@physx@@@shdfnd@2@@shdfnd@physx@@IEAAPEAUPxDebugText@3@I@Z 0000000180049520 f i NpScene.obj
 0001:000485c0       ?allocate@?$Array@UPxDebugTriangle@physx@@V?$ReflectionAllocator@UPxDebugTriangle@physx@@@shdfnd@2@@shdfnd@physx@@IEAAPEAUPxDebugTriangle@3@I@Z 00000001800495c0 f i NpScene.obj
 0001:00048660       ?allocate@?$Array@VPxBounds3@physx@@V?$InlineAllocator@$0MA@V?$ReflectionAllocator@VPxBounds3@physx@@@shdfnd@physx@@@shdfnd@2@@shdfnd@physx@@IEAAPEAVPxBounds3@3@I@Z 0000000180049660 f i NpScene.obj
 0001:00048720       ?allocate@?$ReflectionAllocator@PEAVShape@Scb@physx@@@shdfnd@physx@@QEAAPEAX_KPEBDH@Z 0000000180049720 f i NpScene.obj
 0001:000487c0       ?allocate@?$ReflectionAllocator@U?$Block@E$0BAA@@Scene@Sc@physx@@@shdfnd@physx@@QEAAPEAX_KPEBDH@Z 00000001800497c0 f i NpScene.obj
 0001:00048860       ?allocate@?$ReflectionAllocator@U?$Block@E$0BIA@@Scene@Sc@physx@@@shdfnd@physx@@QEAAPEAX_KPEBDH@Z 0000000180049860 f i NpScene.obj
 0001:00048900       ?allocate@?$ReflectionAllocator@U?$Block@E$0IA@@Scene@Sc@physx@@@shdfnd@physx@@QEAAPEAX_KPEBDH@Z 0000000180049900 f i NpScene.obj
 0001:000489a0       ?allocate@?$ReflectionAllocator@U?$Block@PEAX$07@Scene@Sc@physx@@@shdfnd@physx@@QEAAPEAX_KPEBDH@Z 00000001800499a0 f i NpScene.obj
 0001:00048a40       ?allocate@?$ReflectionAllocator@U?$Block@PEAX$0BA@@Scene@Sc@physx@@@shdfnd@physx@@QEAAPEAX_KPEBDH@Z 0000000180049a40 f i NpScene.obj
 0001:00048ae0       ?allocate@?$ReflectionAllocator@U?$Block@PEAX$0CA@@Scene@Sc@physx@@@shdfnd@physx@@QEAAPEAX_KPEBDH@Z 0000000180049ae0 f i NpScene.obj
 0001:00048b80       ?append@RenderBuffer@Cm@physx@@UEAAXAEBVPxRenderBuffer@3@@Z 0000000180049b80 f i NpScene.obj
 0001:00048f60       ?clear@RenderBuffer@Cm@physx@@UEAAXXZ 0000000180049f60 f i NpScene.obj
 0001:00048f80       ?copy@?$Array@UPxDebugPoint@physx@@V?$ReflectionAllocator@UPxDebugPoint@physx@@@shdfnd@2@@shdfnd@physx@@KAXPEAUPxDebugPoint@3@0PEBU43@@Z 0000000180049f80 f i NpScene.obj
 0001:00049080       ?copy@?$Array@UPxDebugText@physx@@V?$ReflectionAllocator@UPxDebugText@physx@@@shdfnd@2@@shdfnd@physx@@KAXPEAUPxDebugText@3@0PEBU43@@Z 000000018004a080 f i NpScene.obj
 0001:000491f0       ?copy@?$Array@UPxDebugTriangle@physx@@V?$ReflectionAllocator@UPxDebugTriangle@physx@@@shdfnd@2@@shdfnd@physx@@KAXPEAUPxDebugTriangle@3@0PEBU43@@Z 000000018004a1f0 f i NpScene.obj
 0001:000493f0       ?create@?$HashBase@PEAVPxAggregate@physx@@PEAV12@U?$Hash@PEAVPxAggregate@physx@@@shdfnd@2@UGetKey@?$HashSetBase@PEAVPxAggregate@physx@@U?$Hash@PEAVPxAggregate@physx@@@shdfnd@2@VNonTrackingAllocator@42@$00@internal@42@VNonTrackingAllocator@42@$00@internal@shdfnd@physx@@QEAAPEAPEAVPxAggregate@4@AEBQEAV54@AEA_N@Z 000000018004a3f0 f i NpScene.obj
 0001:00049590       ?create@?$HashBase@PEAVPxArticulationBase@physx@@PEAV12@U?$Hash@PEAVPxArticulationBase@physx@@@shdfnd@2@UGetKey@?$HashSetBase@PEAVPxArticulationBase@physx@@U?$Hash@PEAVPxArticulationBase@physx@@@shdfnd@2@VNonTrackingAllocator@42@$00@internal@42@VNonTrackingAllocator@42@$00@internal@shdfnd@physx@@QEAAPEAPEAVPxArticulationBase@4@AEBQEAV54@AEA_N@Z 000000018004a590 f i NpScene.obj
 0001:00049730       ?find@SqRefFinder@@UEAAIPEBVPxRigidBody@physx@@PEBVPxShape@3@@Z 000000018004a730 f i NpScene.obj
 0001:00049760       ?flush@NpScene@physx@@UEAAX_N@Z 000000018004a760 f i NpScene.obj
 0001:00049770       ?getCudaContextManager@NpScene@physx@@UEAAPEAVPxCudaContextManager@2@XZ 000000018004a770 f i NpScene.obj
 0001:00049780       ?getLines@RenderBuffer@Cm@physx@@UEBAPEBUPxDebugLine@3@XZ 000000018004a780 f i NpScene.obj
 0001:00049790       ?getName@?$DelegateTask@VNpScene@physx@@$H?executeAdvance@12@QEAAXPEAVPxBaseTask@2@@ZA@@Cm@physx@@UEBAPEBDXZ 000000018004a790 f i NpScene.obj
 0001:000497a0       ?getName@?$DelegateTask@VNpScene@physx@@$H?executeCollide@12@QEAAXPEAVPxBaseTask@2@@ZA@@Cm@physx@@UEBAPEBDXZ 000000018004a7a0 f i NpScene.obj
 0001:000497b0       ?getName@?$DelegateTask@VNpScene@physx@@$H?executeScene@12@QEAAXPEAVPxBaseTask@2@@ZA@@Cm@physx@@UEBAPEBDXZ 000000018004a7b0 f i NpScene.obj
 0001:000497c0       ?getName@?$DelegateTask@VNpSceneQueries@physx@@$1?sceneQueriesDynamicPrunerUpdate@12@QEAAXPEAVPxBaseTask@2@@Z@Cm@physx@@UEBAPEBDXZ 000000018004a7c0 f i NpScene.obj
 0001:000497d0       ?getName@?$DelegateTask@VNpSceneQueries@physx@@$1?sceneQueriesStaticPrunerUpdate@12@QEAAXPEAVPxBaseTask@2@@Z@Cm@physx@@UEBAPEBDXZ 000000018004a7d0 f i NpScene.obj
 0001:000497e0       ?getName@NpContactCallbackTask@physx@@UEBAPEBDXZ 000000018004a7e0 f i NpScene.obj
 0001:000497f0       ?getName@SceneCompletion@NpScene@physx@@UEBAPEBDXZ 000000018004a7f0 f i NpScene.obj
 0001:00049800       ?getNbLines@RenderBuffer@Cm@physx@@UEBAIXZ 000000018004a800 f i NpScene.obj
 0001:00049810       ?getNbPoints@RenderBuffer@Cm@physx@@UEBAIXZ 000000018004a810 f i NpScene.obj
 0001:00049820       ?getNbTexts@RenderBuffer@Cm@physx@@UEBAIXZ 000000018004a820 f i NpScene.obj
 0001:00049830       ?getNbTriangles@RenderBuffer@Cm@physx@@UEBAIXZ 000000018004a830 f i NpScene.obj
 0001:00049840       ?getPoints@RenderBuffer@Cm@physx@@UEBAPEBUPxDebugPoint@3@XZ 000000018004a840 f i NpScene.obj
 0001:00049850       ?getReference@PxLightCpuTask@physx@@UEBAHXZ 000000018004a850 f i NpScene.obj
 0001:00049860       ?getTaskManager@NpScene@physx@@UEAAPEAVPxTaskManager@2@XZ 000000018004a860 f i NpScene.obj
 0001:00049870       ?getTaskManager@NpScene@physx@@UEBAPEAVPxTaskManager@2@XZ 000000018004a870 f i NpScene.obj
 0001:00049880       ?getTexts@RenderBuffer@Cm@physx@@UEBAPEBUPxDebugText@3@XZ 000000018004a880 f i NpScene.obj
 0001:00049890       ?getTriangles@RenderBuffer@Cm@physx@@UEBAPEBUPxDebugTriangle@3@XZ 000000018004a890 f i NpScene.obj
 0001:000498a0       ?growAndPushBack@?$Array@PEAEV?$ReflectionAllocator@PEAE@shdfnd@physx@@@shdfnd@physx@@IEAAAEAPEAEAEBQEAE@Z 000000018004a8a0 f i NpScene.obj
 0001:000499c0       ?growAndPushBack@?$Array@PEAVNpBatchQuery@physx@@V?$ReflectionAllocator@PEAVNpBatchQuery@physx@@@shdfnd@2@@shdfnd@physx@@IEAAAEAPEAVNpBatchQuery@3@AEBQEAV43@@Z 000000018004a9c0 f i NpScene.obj
 0001:00049ae0       ?growAndPushBack@?$Array@PEAVPxRigidActor@physx@@V?$ReflectionAllocator@PEAVPxRigidActor@physx@@@shdfnd@2@@shdfnd@physx@@IEAAAEAPEAVPxRigidActor@3@AEBQEAV43@@Z 000000018004aae0 f i NpScene.obj
 0001:00049ba0       ?growAndPushBack@?$Array@PEAXV?$ReflectionAllocator@U?$Block@E$0BAA@@Scene@Sc@physx@@@shdfnd@physx@@@shdfnd@physx@@IEAAAEAPEAXAEBQEAX@Z 000000018004aba0 f i NpScene.obj
 0001:00049c80       ?growAndPushBack@?$Array@PEAXV?$ReflectionAllocator@U?$Block@E$0BIA@@Scene@Sc@physx@@@shdfnd@physx@@@shdfnd@physx@@IEAAAEAPEAXAEBQEAX@Z 000000018004ac80 f i NpScene.obj
 0001:00049d60       ?growAndPushBack@?$Array@PEAXV?$ReflectionAllocator@U?$Block@E$0IA@@Scene@Sc@physx@@@shdfnd@physx@@@shdfnd@physx@@IEAAAEAPEAXAEBQEAX@Z 000000018004ad60 f i NpScene.obj
 0001:00049e40       ?growAndPushBack@?$Array@PEAXV?$ReflectionAllocator@U?$Block@PEAX$07@Scene@Sc@physx@@@shdfnd@physx@@@shdfnd@physx@@IEAAAEAPEAXAEBQEAX@Z 000000018004ae40 f i NpScene.obj
 0001:00049f20       ?growAndPushBack@?$Array@PEAXV?$ReflectionAllocator@U?$Block@PEAX$0BA@@Scene@Sc@physx@@@shdfnd@physx@@@shdfnd@physx@@IEAAAEAPEAXAEBQEAX@Z 000000018004af20 f i NpScene.obj
 0001:0004a000       ?growAndPushBack@?$Array@PEAXV?$ReflectionAllocator@U?$Block@PEAX$0CA@@Scene@Sc@physx@@@shdfnd@physx@@@shdfnd@physx@@IEAAAEAPEAXAEBQEAX@Z 000000018004b000 f i NpScene.obj
 0001:0004a0e0       ?growAndPushBack@?$Array@UPxDebugLine@physx@@V?$ReflectionAllocator@UPxDebugLine@physx@@@shdfnd@2@@shdfnd@physx@@IEAAAEAUPxDebugLine@3@AEBU43@@Z 000000018004b0e0 f i NpScene.obj
 0001:0004a1b0       ?growAndPushBack@?$Array@UPxDebugPoint@physx@@V?$ReflectionAllocator@UPxDebugPoint@physx@@@shdfnd@2@@shdfnd@physx@@IEAAAEAUPxDebugPoint@3@AEBU43@@Z 000000018004b1b0 f i NpScene.obj
 0001:0004a270       ?growAndPushBack@?$Array@UPxDebugText@physx@@V?$ReflectionAllocator@UPxDebugText@physx@@@shdfnd@2@@shdfnd@physx@@IEAAAEAUPxDebugText@3@AEBU43@@Z 000000018004b270 f i NpScene.obj
 0001:0004a340       ?growAndPushBack@?$Array@UPxDebugTriangle@physx@@V?$ReflectionAllocator@UPxDebugTriangle@physx@@@shdfnd@2@@shdfnd@physx@@IEAAAEAUPxDebugTriangle@3@AEBU43@@Z 000000018004b340 f i NpScene.obj
 0001:0004a440       ?isAddedShape@RigidObject@Scb@physx@@QEAA_NAEAVShape@23@@Z 000000018004b440 f i NpScene.obj
 0001:0004a4d0       ?recreate@?$Array@GV?$ReflectionAllocator@G@shdfnd@physx@@@shdfnd@physx@@IEAAXI@Z 000000018004b4d0 f i NpScene.obj
 0001:0004a590       ?recreate@?$Array@PEAVActor@Scb@physx@@V?$ReflectionAllocator@PEAVActor@Scb@physx@@@shdfnd@3@@shdfnd@physx@@IEAAXI@Z 000000018004b590 f i NpScene.obj
 0001:0004a6a0       ?recreate@?$Array@PEAVPxRigidActor@physx@@V?$ReflectionAllocator@PEAVPxRigidActor@physx@@@shdfnd@2@@shdfnd@physx@@IEAAXI@Z 000000018004b6a0 f i NpScene.obj
 0001:0004a740       ?recreate@?$Array@PEAVShape@Scb@physx@@V?$ReflectionAllocator@PEAVShape@Scb@physx@@@shdfnd@3@@shdfnd@physx@@IEAAXI@Z 000000018004b740 f i NpScene.obj
 0001:0004a800       ?recreate@?$Array@UPxDebugPoint@physx@@V?$ReflectionAllocator@UPxDebugPoint@physx@@@shdfnd@2@@shdfnd@physx@@IEAAXI@Z 000000018004b800 f i NpScene.obj
 0001:0004a890       ?recreate@?$Array@UPxDebugText@physx@@V?$ReflectionAllocator@UPxDebugText@physx@@@shdfnd@2@@shdfnd@physx@@IEAAXI@Z 000000018004b890 f i NpScene.obj
 0001:0004a920       ?recreate@?$Array@UPxDebugTriangle@physx@@V?$ReflectionAllocator@UPxDebugTriangle@physx@@@shdfnd@2@@shdfnd@physx@@IEAAXI@Z 000000018004b920 f i NpScene.obj
 0001:0004a9b0       ?recreate@?$Array@VPxBounds3@physx@@V?$InlineAllocator@$0MA@V?$ReflectionAllocator@VPxBounds3@physx@@@shdfnd@physx@@@shdfnd@2@@shdfnd@physx@@IEAAXI@Z 000000018004b9b0 f i NpScene.obj
 0001:0004ab70       ?release@PxLightCpuTask@physx@@UEAAXXZ 000000018004bb70 f i NpScene.obj
 0001:0004ab90       ?release@SceneCompletion@NpScene@physx@@UEAAXXZ 000000018004bb90 f i NpScene.obj
 0001:0004abc0       ?removeReference@PxLightCpuTask@physx@@UEAAXXZ 000000018004bbc0 f i NpScene.obj
 0001:0004abe0       ?reserveInternal@?$HashBase@PEAVPxAggregate@physx@@PEAV12@U?$Hash@PEAVPxAggregate@physx@@@shdfnd@2@UGetKey@?$HashSetBase@PEAVPxAggregate@physx@@U?$Hash@PEAVPxAggregate@physx@@@shdfnd@2@VNonTrackingAllocator@42@$00@internal@42@VNonTrackingAllocator@42@$00@internal@shdfnd@physx@@AEAAXI@Z 000000018004bbe0 f i NpScene.obj
 0001:0004adb0       ?reserveInternal@?$HashBase@PEAVPxArticulationBase@physx@@PEAV12@U?$Hash@PEAVPxArticulationBase@physx@@@shdfnd@2@UGetKey@?$HashSetBase@PEAVPxArticulationBase@physx@@U?$Hash@PEAVPxArticulationBase@physx@@@shdfnd@2@VNonTrackingAllocator@42@$00@internal@42@VNonTrackingAllocator@42@$00@internal@shdfnd@physx@@AEAAXI@Z 000000018004bdb0 f i NpScene.obj
 0001:0004af80       ?resetFiltering@?$NpRigidActorTemplate@VPxArticulationLink@physx@@@physx@@QEAA_NAEAVRigidObject@Scb@2@PEBQEAVPxShape@2@I@Z 000000018004bf80 f i NpScene.obj
 0001:0004b100       ?resetFiltering@?$NpRigidActorTemplate@VPxRigidDynamic@physx@@@physx@@QEAA_NAEAVRigidObject@Scb@2@PEBQEAVPxShape@2@I@Z 000000018004c100 f i NpScene.obj
 0001:0004b280       ?resetFiltering@?$NpRigidActorTemplate@VPxRigidStatic@physx@@@physx@@QEAA_NAEAVRigidObject@Scb@2@PEBQEAVPxShape@2@I@Z 000000018004c280 f i NpScene.obj
 0001:0004b400       ?resetFiltering@RigidObject@Scb@physx@@QEAAXPEBQEAVShape@23@I@Z 000000018004c400 f i NpScene.obj
 0001:0004b6a0       ?resize@?$Array@GV?$ReflectionAllocator@G@shdfnd@physx@@@shdfnd@physx@@QEAAXIAEBG@Z 000000018004c6a0 f i NpScene.obj
 0001:0004b760       ?resize@?$Array@PEAVActor@Scb@physx@@V?$ReflectionAllocator@PEAVActor@Scb@physx@@@shdfnd@3@@shdfnd@physx@@QEAAXIAEBQEAVActor@Scb@3@@Z 000000018004c760 f i NpScene.obj
 0001:0004b820       ?resize@?$Array@PEAVShape@Scb@physx@@V?$ReflectionAllocator@PEAVShape@Scb@physx@@@shdfnd@3@@shdfnd@physx@@QEAAXIAEBQEAVShape@Scb@3@@Z 000000018004c820 f i NpScene.obj
 0001:0004b8e0       ?resizeUninitialized@?$Array@VPxBounds3@physx@@V?$InlineAllocator@$0MA@V?$ReflectionAllocator@VPxBounds3@physx@@@shdfnd@physx@@@shdfnd@2@@shdfnd@physx@@QEAAXI@Z 000000018004c8e0 f i NpScene.obj
 0001:0004b930       ?run@Task@Cm@physx@@UEAAXXZ 000000018004c930 f i NpScene.obj
 0001:0004b970       ?runInternal@?$DelegateTask@VNpScene@physx@@$H?executeAdvance@12@QEAAXPEAVPxBaseTask@2@@ZA@@Cm@physx@@UEAAXXZ 000000018004c970 f i NpScene.obj
 0001:0004b990       ?runInternal@?$DelegateTask@VNpScene@physx@@$H?executeCollide@12@QEAAXPEAVPxBaseTask@2@@ZA@@Cm@physx@@UEAAXXZ 000000018004c990 f i NpScene.obj
 0001:0004b9b0       ?runInternal@?$DelegateTask@VNpScene@physx@@$H?executeScene@12@QEAAXPEAVPxBaseTask@2@@ZA@@Cm@physx@@UEAAXXZ 000000018004c9b0 f i NpScene.obj
 0001:0004b9d0       ?runInternal@?$DelegateTask@VNpSceneQueries@physx@@$1?sceneQueriesDynamicPrunerUpdate@12@QEAAXPEAVPxBaseTask@2@@Z@Cm@physx@@UEAAXXZ 000000018004c9d0 f i NpScene.obj
 0001:0004b9e0       ?runInternal@?$DelegateTask@VNpSceneQueries@physx@@$1?sceneQueriesStaticPrunerUpdate@12@QEAAXPEAVPxBaseTask@2@@Z@Cm@physx@@UEAAXXZ 000000018004c9e0 f i NpScene.obj
 0001:0004b9f0       ?runInternal@SceneCompletion@NpScene@physx@@UEAAXXZ 000000018004c9f0 f i NpScene.obj
 0001:0004ba00       ?shift@RenderBuffer@Cm@physx@@QEAAXAEBVPxVec3@3@@Z 000000018004ca00 f i NpScene.obj
 0001:0004bbf0       ?raycast@NpSceneQueries@physx@@UEBA_NAEBVPxVec3@2@0MAEAU?$PxHitCallback@UPxRaycastHit@physx@@@2@V?$PxFlags@W4Enum@PxHitFlag@physx@@G@2@AEBUPxQueryFilterData@2@PEAVPxQueryFilterCallback@2@PEBUPxQueryCache@2@@Z 000000018004cbf0 f   NpSceneQueries.obj
 0001:0004bcc0       ?sweep@NpSceneQueries@physx@@UEBA_NAEBVPxGeometry@2@AEBVPxTransform@2@AEBVPxVec3@2@MAEAU?$PxHitCallback@UPxSweepHit@physx@@@2@V?$PxFlags@W4Enum@PxHitFlag@physx@@G@2@AEBUPxQueryFilterData@2@PEAVPxQueryFilterCallback@2@PEBUPxQueryCache@2@M@Z 000000018004ccc0 f   NpSceneQueries.obj
 0001:0004bed0       ?overlap@NpSceneQueries@physx@@UEBA_NAEBVPxGeometry@2@AEBVPxTransform@2@AEAU?$PxHitCallback@UPxOverlapHit@physx@@@2@AEBUPxQueryFilterData@2@PEAVPxQueryFilterCallback@2@@Z 000000018004ced0 f   NpSceneQueries.obj
 0001:0004bf80       ?sceneQueriesStaticPrunerUpdate@NpSceneQueries@physx@@QEAAXPEAVPxBaseTask@2@@Z 000000018004cf80 f   NpSceneQueries.obj
 0001:0004bfa0       ?sceneQueriesDynamicPrunerUpdate@NpSceneQueries@physx@@QEAAXPEAVPxBaseTask@2@@Z 000000018004cfa0 f   NpSceneQueries.obj
 0001:0004c070       ??$multiQuery@UPxOverlapHit@physx@@@NpSceneQueries@physx@@QEBA_NAEBUMultiQueryInput@1@AEAU?$PxHitCallback@UPxOverlapHit@physx@@@1@V?$PxFlags@W4Enum@PxHitFlag@physx@@G@1@PEBUPxQueryCache@1@AEBUPxQueryFilterData@1@PEAVPxQueryFilterCallback@1@PEAUBatchQueryFilterData@1@@Z 000000018004d070 f i NpSceneQueries.obj
 0001:0004c320       ??$multiQuery@UPxRaycastHit@physx@@@NpSceneQueries@physx@@QEBA_NAEBUMultiQueryInput@1@AEAU?$PxHitCallback@UPxRaycastHit@physx@@@1@V?$PxFlags@W4Enum@PxHitFlag@physx@@G@1@PEBUPxQueryCache@1@AEBUPxQueryFilterData@1@PEAVPxQueryFilterCallback@1@PEAUBatchQueryFilterData@1@@Z 000000018004d320 f i NpSceneQueries.obj
 0001:0004c690       ??$multiQuery@UPxSweepHit@physx@@@NpSceneQueries@physx@@QEBA_NAEBUMultiQueryInput@1@AEAU?$PxHitCallback@UPxSweepHit@physx@@@1@V?$PxFlags@W4Enum@PxHitFlag@physx@@G@1@PEBUPxQueryCache@1@AEBUPxQueryFilterData@1@PEAVPxQueryFilterCallback@1@PEAUBatchQueryFilterData@1@@Z 000000018004d690 f i NpSceneQueries.obj
 0001:0004cac0       ??0PxOverlapHit@physx@@QEAA@XZ 000000018004dac0 f i NpSceneQueries.obj
 0001:0004cae0       ??0PxRaycastHit@physx@@QEAA@XZ 000000018004dae0 f i NpSceneQueries.obj
 0001:0004cb10       ??0PxSweepHit@physx@@QEAA@XZ 000000018004db10 f i NpSceneQueries.obj
 0001:0004cb40       ??1PrunerCallback@Sq@physx@@UEAA@XZ 000000018004db40 f i NpSceneQueries.obj
 0001:0004cb50       ??_G?$MultiQueryCallback@UPxOverlapHit@physx@@@@UEAAPEAXI@Z 000000018004db50 f i NpSceneQueries.obj
 0001:0004cb50       ??_E?$MultiQueryCallback@UPxOverlapHit@physx@@@@UEAAPEAXI@Z 000000018004db50 f i NpSceneQueries.obj
 0001:0004cb80       ??_G?$MultiQueryCallback@UPxRaycastHit@physx@@@@UEAAPEAXI@Z 000000018004db80 f i NpSceneQueries.obj
 0001:0004cb80       ??_E?$MultiQueryCallback@UPxRaycastHit@physx@@@@UEAAPEAXI@Z 000000018004db80 f i NpSceneQueries.obj
 0001:0004cbb0       ??_G?$MultiQueryCallback@UPxSweepHit@physx@@@@UEAAPEAXI@Z 000000018004dbb0 f i NpSceneQueries.obj
 0001:0004cbb0       ??_E?$MultiQueryCallback@UPxSweepHit@physx@@@@UEAAPEAXI@Z 000000018004dbb0 f i NpSceneQueries.obj
 0001:0004cbe0       ??_EPrunerCallback@Sq@physx@@UEAAPEAXI@Z 000000018004dbe0 f i NpSceneQueries.obj
 0001:0004cbe0       ??_GPrunerCallback@Sq@physx@@UEAAPEAXI@Z 000000018004dbe0 f i NpSceneQueries.obj
 0001:0004cc10       ?invoke@?$MultiQueryCallback@UPxOverlapHit@physx@@@@UEAA_NAEAMAEBUPrunerPayload@Sq@physx@@@Z 000000018004dc10 f i NpSceneQueries.obj
 0001:0004d040       ?invoke@?$MultiQueryCallback@UPxRaycastHit@physx@@@@UEAA_NAEAMAEBUPrunerPayload@Sq@physx@@@Z 000000018004e040 f i NpSceneQueries.obj
 0001:0004d780       ?invoke@?$MultiQueryCallback@UPxSweepHit@physx@@@@UEAA_NAEAMAEBUPrunerPayload@Sq@physx@@@Z 000000018004e780 f i NpSceneQueries.obj
 0001:0004e520       PxRegisterPhysicsSerializers 000000018004f520 f   NpSerializerAdapter.obj
 0001:0004ead0       PxUnregisterPhysicsSerializers 000000018004fad0 f   NpSerializerAdapter.obj
 0001:0004eec0       ??1PxProcessPxBaseCallback@physx@@UEAA@XZ 000000018004fec0 f i NpSerializerAdapter.obj
 0001:0004eed0       ??1PxSerializer@physx@@UEAA@XZ 000000018004fed0 f i NpSerializerAdapter.obj
 0001:0004eee0       ??_G?$PxSerializerDefaultAdapter@VBV4TriangleMesh@Gu@physx@@@physx@@UEAAPEAXI@Z 000000018004fee0 f i NpSerializerAdapter.obj
 0001:0004eee0       ??_E?$PxSerializerDefaultAdapter@VBV4TriangleMesh@Gu@physx@@@physx@@UEAAPEAXI@Z 000000018004fee0 f i NpSerializerAdapter.obj
 0001:0004ef10       ??_G?$PxSerializerDefaultAdapter@VConvexMesh@Gu@physx@@@physx@@UEAAPEAXI@Z 000000018004ff10 f i NpSerializerAdapter.obj
 0001:0004ef10       ??_E?$PxSerializerDefaultAdapter@VConvexMesh@Gu@physx@@@physx@@UEAAPEAXI@Z 000000018004ff10 f i NpSerializerAdapter.obj
 0001:0004ef40       ??_G?$PxSerializerDefaultAdapter@VHeightField@Gu@physx@@@physx@@UEAAPEAXI@Z 000000018004ff40 f i NpSerializerAdapter.obj
 0001:0004ef40       ??_E?$PxSerializerDefaultAdapter@VHeightField@Gu@physx@@@physx@@UEAAPEAXI@Z 000000018004ff40 f i NpSerializerAdapter.obj
 0001:0004ef70       ??_G?$PxSerializerDefaultAdapter@VNpAggregate@physx@@@physx@@UEAAPEAXI@Z 000000018004ff70 f i NpSerializerAdapter.obj
 0001:0004ef70       ??_E?$PxSerializerDefaultAdapter@VNpAggregate@physx@@@physx@@UEAAPEAXI@Z 000000018004ff70 f i NpSerializerAdapter.obj
 0001:0004efa0       ??_E?$PxSerializerDefaultAdapter@VNpArticulation@physx@@@physx@@UEAAPEAXI@Z 000000018004ffa0 f i NpSerializerAdapter.obj
 0001:0004efa0       ??_G?$PxSerializerDefaultAdapter@VNpArticulation@physx@@@physx@@UEAAPEAXI@Z 000000018004ffa0 f i NpSerializerAdapter.obj
 0001:0004efd0       ??_G?$PxSerializerDefaultAdapter@VNpArticulationJoint@physx@@@physx@@UEAAPEAXI@Z 000000018004ffd0 f i NpSerializerAdapter.obj
 0001:0004efd0       ??_E?$PxSerializerDefaultAdapter@VNpArticulationJoint@physx@@@physx@@UEAAPEAXI@Z 000000018004ffd0 f i NpSerializerAdapter.obj
 0001:0004f000       ??_G?$PxSerializerDefaultAdapter@VNpArticulationJointReducedCoordinate@physx@@@physx@@UEAAPEAXI@Z 0000000180050000 f i NpSerializerAdapter.obj
 0001:0004f000       ??_E?$PxSerializerDefaultAdapter@VNpArticulationJointReducedCoordinate@physx@@@physx@@UEAAPEAXI@Z 0000000180050000 f i NpSerializerAdapter.obj
 0001:0004f030       ??_E?$PxSerializerDefaultAdapter@VNpArticulationLink@physx@@@physx@@UEAAPEAXI@Z 0000000180050030 f i NpSerializerAdapter.obj
 0001:0004f030       ??_G?$PxSerializerDefaultAdapter@VNpArticulationLink@physx@@@physx@@UEAAPEAXI@Z 0000000180050030 f i NpSerializerAdapter.obj
 0001:0004f060       ??_E?$PxSerializerDefaultAdapter@VNpArticulationReducedCoordinate@physx@@@physx@@UEAAPEAXI@Z 0000000180050060 f i NpSerializerAdapter.obj
 0001:0004f060       ??_G?$PxSerializerDefaultAdapter@VNpArticulationReducedCoordinate@physx@@@physx@@UEAAPEAXI@Z 0000000180050060 f i NpSerializerAdapter.obj
 0001:0004f090       ??_E?$PxSerializerDefaultAdapter@VNpConstraint@physx@@@physx@@UEAAPEAXI@Z 0000000180050090 f i NpSerializerAdapter.obj
 0001:0004f090       ??_G?$PxSerializerDefaultAdapter@VNpConstraint@physx@@@physx@@UEAAPEAXI@Z 0000000180050090 f i NpSerializerAdapter.obj
 0001:0004f0c0       ??_G?$PxSerializerDefaultAdapter@VNpMaterial@physx@@@physx@@UEAAPEAXI@Z 00000001800500c0 f i NpSerializerAdapter.obj
 0001:0004f0c0       ??_E?$PxSerializerDefaultAdapter@VNpMaterial@physx@@@physx@@UEAAPEAXI@Z 00000001800500c0 f i NpSerializerAdapter.obj
 0001:0004f0f0       ??_G?$PxSerializerDefaultAdapter@VNpRigidDynamic@physx@@@physx@@UEAAPEAXI@Z 00000001800500f0 f i NpSerializerAdapter.obj
 0001:0004f0f0       ??_E?$PxSerializerDefaultAdapter@VNpRigidDynamic@physx@@@physx@@UEAAPEAXI@Z 00000001800500f0 f i NpSerializerAdapter.obj
 0001:0004f120       ??_E?$PxSerializerDefaultAdapter@VNpRigidStatic@physx@@@physx@@UEAAPEAXI@Z 0000000180050120 f i NpSerializerAdapter.obj
 0001:0004f120       ??_G?$PxSerializerDefaultAdapter@VNpRigidStatic@physx@@@physx@@UEAAPEAXI@Z 0000000180050120 f i NpSerializerAdapter.obj
 0001:0004f150       ??_G?$PxSerializerDefaultAdapter@VNpShape@physx@@@physx@@UEAAPEAXI@Z 0000000180050150 f i NpSerializerAdapter.obj
 0001:0004f150       ??_E?$PxSerializerDefaultAdapter@VNpShape@physx@@@physx@@UEAAPEAXI@Z 0000000180050150 f i NpSerializerAdapter.obj
 0001:0004f180       ??_E?$PxSerializerDefaultAdapter@VPruningStructure@Sq@physx@@@physx@@UEAAPEAXI@Z 0000000180050180 f i NpSerializerAdapter.obj
 0001:0004f180       ??_G?$PxSerializerDefaultAdapter@VPruningStructure@Sq@physx@@@physx@@UEAAPEAXI@Z 0000000180050180 f i NpSerializerAdapter.obj
 0001:0004f1b0       ??_G?$PxSerializerDefaultAdapter@VRTreeTriangleMesh@Gu@physx@@@physx@@UEAAPEAXI@Z 00000001800501b0 f i NpSerializerAdapter.obj
 0001:0004f1b0       ??_E?$PxSerializerDefaultAdapter@VRTreeTriangleMesh@Gu@physx@@@physx@@UEAAPEAXI@Z 00000001800501b0 f i NpSerializerAdapter.obj
 0001:0004f1e0       ??_GPxProcessPxBaseCallback@physx@@UEAAPEAXI@Z 00000001800501e0 f i NpSerializerAdapter.obj
 0001:0004f1e0       ??_EPxProcessPxBaseCallback@physx@@UEAAPEAXI@Z 00000001800501e0 f i NpSerializerAdapter.obj
 0001:0004f210       ??_EPxSerializer@physx@@UEAAPEAXI@Z 0000000180050210 f i NpSerializerAdapter.obj
 0001:0004f210       ??_GPxSerializer@physx@@UEAAPEAXI@Z 0000000180050210 f i NpSerializerAdapter.obj
 0001:0004f240       ??_ERequiresCallback@?1??registerReferences@?$PxSerializerDefaultAdapter@VBV4TriangleMesh@Gu@physx@@@physx@@UEBAXAEAVPxBase@3@AEAVPxSerializationContext@3@@Z@UEAAPEAXI@Z 0000000180050240 f i NpSerializerAdapter.obj
 0001:0004f240       ??_GRequiresCallback@?1??registerReferences@?$PxSerializerDefaultAdapter@VBV4TriangleMesh@Gu@physx@@@physx@@UEBAXAEAVPxBase@3@AEAVPxSerializationContext@3@@Z@UEAAPEAXI@Z 0000000180050240 f i NpSerializerAdapter.obj
 0001:0004f270       ??_GRequiresCallback@?1??registerReferences@?$PxSerializerDefaultAdapter@VConvexMesh@Gu@physx@@@physx@@UEBAXAEAVPxBase@3@AEAVPxSerializationContext@3@@Z@UEAAPEAXI@Z 0000000180050270 f i NpSerializerAdapter.obj
 0001:0004f270       ??_ERequiresCallback@?1??registerReferences@?$PxSerializerDefaultAdapter@VConvexMesh@Gu@physx@@@physx@@UEBAXAEAVPxBase@3@AEAVPxSerializationContext@3@@Z@UEAAPEAXI@Z 0000000180050270 f i NpSerializerAdapter.obj
 0001:0004f2a0       ??_ERequiresCallback@?1??registerReferences@?$PxSerializerDefaultAdapter@VHeightField@Gu@physx@@@physx@@UEBAXAEAVPxBase@3@AEAVPxSerializationContext@3@@Z@UEAAPEAXI@Z 00000001800502a0 f i NpSerializerAdapter.obj
 0001:0004f2a0       ??_GRequiresCallback@?1??registerReferences@?$PxSerializerDefaultAdapter@VHeightField@Gu@physx@@@physx@@UEBAXAEAVPxBase@3@AEAVPxSerializationContext@3@@Z@UEAAPEAXI@Z 00000001800502a0 f i NpSerializerAdapter.obj
 0001:0004f2d0       ??_ERequiresCallback@?1??registerReferences@?$PxSerializerDefaultAdapter@VNpAggregate@physx@@@physx@@UEBAXAEAVPxBase@3@AEAVPxSerializationContext@3@@Z@UEAAPEAXI@Z 00000001800502d0 f i NpSerializerAdapter.obj
 0001:0004f2d0       ??_GRequiresCallback@?1??registerReferences@?$PxSerializerDefaultAdapter@VNpAggregate@physx@@@physx@@UEBAXAEAVPxBase@3@AEAVPxSerializationContext@3@@Z@UEAAPEAXI@Z 00000001800502d0 f i NpSerializerAdapter.obj
 0001:0004f300       ??_GRequiresCallback@?1??registerReferences@?$PxSerializerDefaultAdapter@VNpArticulation@physx@@@physx@@UEBAXAEAVPxBase@3@AEAVPxSerializationContext@3@@Z@UEAAPEAXI@Z 0000000180050300 f i NpSerializerAdapter.obj
 0001:0004f300       ??_ERequiresCallback@?1??registerReferences@?$PxSerializerDefaultAdapter@VNpArticulation@physx@@@physx@@UEBAXAEAVPxBase@3@AEAVPxSerializationContext@3@@Z@UEAAPEAXI@Z 0000000180050300 f i NpSerializerAdapter.obj
 0001:0004f330       ??_GRequiresCallback@?1??registerReferences@?$PxSerializerDefaultAdapter@VNpArticulationJoint@physx@@@physx@@UEBAXAEAVPxBase@3@AEAVPxSerializationContext@3@@Z@UEAAPEAXI@Z 0000000180050330 f i NpSerializerAdapter.obj
 0001:0004f330       ??_ERequiresCallback@?1??registerReferences@?$PxSerializerDefaultAdapter@VNpArticulationJoint@physx@@@physx@@UEBAXAEAVPxBase@3@AEAVPxSerializationContext@3@@Z@UEAAPEAXI@Z 0000000180050330 f i NpSerializerAdapter.obj
 0001:0004f360       ??_ERequiresCallback@?1??registerReferences@?$PxSerializerDefaultAdapter@VNpArticulationJointReducedCoordinate@physx@@@physx@@UEBAXAEAVPxBase@3@AEAVPxSerializationContext@3@@Z@UEAAPEAXI@Z 0000000180050360 f i NpSerializerAdapter.obj
 0001:0004f360       ??_GRequiresCallback@?1??registerReferences@?$PxSerializerDefaultAdapter@VNpArticulationJointReducedCoordinate@physx@@@physx@@UEBAXAEAVPxBase@3@AEAVPxSerializationContext@3@@Z@UEAAPEAXI@Z 0000000180050360 f i NpSerializerAdapter.obj
 0001:0004f390       ??_GRequiresCallback@?1??registerReferences@?$PxSerializerDefaultAdapter@VNpArticulationLink@physx@@@physx@@UEBAXAEAVPxBase@3@AEAVPxSerializationContext@3@@Z@UEAAPEAXI@Z 0000000180050390 f i NpSerializerAdapter.obj
 0001:0004f390       ??_ERequiresCallback@?1??registerReferences@?$PxSerializerDefaultAdapter@VNpArticulationLink@physx@@@physx@@UEBAXAEAVPxBase@3@AEAVPxSerializationContext@3@@Z@UEAAPEAXI@Z 0000000180050390 f i NpSerializerAdapter.obj
 0001:0004f3c0       ??_GRequiresCallback@?1??registerReferences@?$PxSerializerDefaultAdapter@VNpArticulationReducedCoordinate@physx@@@physx@@UEBAXAEAVPxBase@3@AEAVPxSerializationContext@3@@Z@UEAAPEAXI@Z 00000001800503c0 f i NpSerializerAdapter.obj
 0001:0004f3c0       ??_ERequiresCallback@?1??registerReferences@?$PxSerializerDefaultAdapter@VNpArticulationReducedCoordinate@physx@@@physx@@UEBAXAEAVPxBase@3@AEAVPxSerializationContext@3@@Z@UEAAPEAXI@Z 00000001800503c0 f i NpSerializerAdapter.obj
 0001:0004f3f0       ??_ERequiresCallback@?1??registerReferences@?$PxSerializerDefaultAdapter@VNpConstraint@physx@@@physx@@UEBAXAEAVPxBase@3@AEAVPxSerializationContext@3@@Z@UEAAPEAXI@Z 00000001800503f0 f i NpSerializerAdapter.obj
 0001:0004f3f0       ??_GRequiresCallback@?1??registerReferences@?$PxSerializerDefaultAdapter@VNpConstraint@physx@@@physx@@UEBAXAEAVPxBase@3@AEAVPxSerializationContext@3@@Z@UEAAPEAXI@Z 00000001800503f0 f i NpSerializerAdapter.obj
 0001:0004f420       ??_GRequiresCallback@?1??registerReferences@?$PxSerializerDefaultAdapter@VNpRigidDynamic@physx@@@physx@@UEBAXAEAVPxBase@3@AEAVPxSerializationContext@3@@Z@UEAAPEAXI@Z 0000000180050420 f i NpSerializerAdapter.obj
 0001:0004f420       ??_ERequiresCallback@?1??registerReferences@?$PxSerializerDefaultAdapter@VNpRigidDynamic@physx@@@physx@@UEBAXAEAVPxBase@3@AEAVPxSerializationContext@3@@Z@UEAAPEAXI@Z 0000000180050420 f i NpSerializerAdapter.obj
 0001:0004f450       ??_ERequiresCallback@?1??registerReferences@?$PxSerializerDefaultAdapter@VNpRigidStatic@physx@@@physx@@UEBAXAEAVPxBase@3@AEAVPxSerializationContext@3@@Z@UEAAPEAXI@Z 0000000180050450 f i NpSerializerAdapter.obj
 0001:0004f450       ??_GRequiresCallback@?1??registerReferences@?$PxSerializerDefaultAdapter@VNpRigidStatic@physx@@@physx@@UEBAXAEAVPxBase@3@AEAVPxSerializationContext@3@@Z@UEAAPEAXI@Z 0000000180050450 f i NpSerializerAdapter.obj
 0001:0004f480       ??_ERequiresCallback@?1??registerReferences@?$PxSerializerDefaultAdapter@VNpShape@physx@@@physx@@UEBAXAEAVPxBase@3@AEAVPxSerializationContext@3@@Z@UEAAPEAXI@Z 0000000180050480 f i NpSerializerAdapter.obj
 0001:0004f480       ??_GRequiresCallback@?1??registerReferences@?$PxSerializerDefaultAdapter@VNpShape@physx@@@physx@@UEBAXAEAVPxBase@3@AEAVPxSerializationContext@3@@Z@UEAAPEAXI@Z 0000000180050480 f i NpSerializerAdapter.obj
 0001:0004f4b0       ??_ERequiresCallback@?1??registerReferences@?$PxSerializerDefaultAdapter@VPruningStructure@Sq@physx@@@physx@@UEBAXAEAVPxBase@3@AEAVPxSerializationContext@3@@Z@UEAAPEAXI@Z 00000001800504b0 f i NpSerializerAdapter.obj
 0001:0004f4b0       ??_GRequiresCallback@?1??registerReferences@?$PxSerializerDefaultAdapter@VPruningStructure@Sq@physx@@@physx@@UEBAXAEAVPxBase@3@AEAVPxSerializationContext@3@@Z@UEAAPEAXI@Z 00000001800504b0 f i NpSerializerAdapter.obj
 0001:0004f4e0       ??_GRequiresCallback@?1??registerReferences@?$PxSerializerDefaultAdapter@VRTreeTriangleMesh@Gu@physx@@@physx@@UEBAXAEAVPxBase@3@AEAVPxSerializationContext@3@@Z@UEAAPEAXI@Z 00000001800504e0 f i NpSerializerAdapter.obj
 0001:0004f4e0       ??_ERequiresCallback@?1??registerReferences@?$PxSerializerDefaultAdapter@VRTreeTriangleMesh@Gu@physx@@@physx@@UEBAXAEAVPxBase@3@AEAVPxSerializationContext@3@@Z@UEAAPEAXI@Z 00000001800504e0 f i NpSerializerAdapter.obj
 0001:0004f510       ?createObject@?$PxSerializerDefaultAdapter@VBV4TriangleMesh@Gu@physx@@@physx@@UEBAPEAVPxBase@2@AEAPEAEAEAVPxDeserializationContext@2@@Z 0000000180050510 f i NpSerializerAdapter.obj
 0001:0004f520       ?createObject@?$PxSerializerDefaultAdapter@VConvexMesh@Gu@physx@@@physx@@UEBAPEAVPxBase@2@AEAPEAEAEAVPxDeserializationContext@2@@Z 0000000180050520 f i NpSerializerAdapter.obj
 0001:0004f530       ?createObject@?$PxSerializerDefaultAdapter@VHeightField@Gu@physx@@@physx@@UEBAPEAVPxBase@2@AEAPEAEAEAVPxDeserializationContext@2@@Z 0000000180050530 f i NpSerializerAdapter.obj
 0001:0004f540       ?createObject@?$PxSerializerDefaultAdapter@VNpAggregate@physx@@@physx@@UEBAPEAVPxBase@2@AEAPEAEAEAVPxDeserializationContext@2@@Z 0000000180050540 f i NpSerializerAdapter.obj
 0001:0004f550       ?createObject@?$PxSerializerDefaultAdapter@VNpArticulation@physx@@@physx@@UEBAPEAVPxBase@2@AEAPEAEAEAVPxDeserializationContext@2@@Z 0000000180050550 f i NpSerializerAdapter.obj
 0001:0004f560       ?createObject@?$PxSerializerDefaultAdapter@VNpArticulationJoint@physx@@@physx@@UEBAPEAVPxBase@2@AEAPEAEAEAVPxDeserializationContext@2@@Z 0000000180050560 f i NpSerializerAdapter.obj
 0001:0004f570       ?createObject@?$PxSerializerDefaultAdapter@VNpArticulationJointReducedCoordinate@physx@@@physx@@UEBAPEAVPxBase@2@AEAPEAEAEAVPxDeserializationContext@2@@Z 0000000180050570 f i NpSerializerAdapter.obj
 0001:0004f580       ?createObject@?$PxSerializerDefaultAdapter@VNpArticulationLink@physx@@@physx@@UEBAPEAVPxBase@2@AEAPEAEAEAVPxDeserializationContext@2@@Z 0000000180050580 f i NpSerializerAdapter.obj
 0001:0004f590       ?createObject@?$PxSerializerDefaultAdapter@VNpArticulationReducedCoordinate@physx@@@physx@@UEBAPEAVPxBase@2@AEAPEAEAEAVPxDeserializationContext@2@@Z 0000000180050590 f i NpSerializerAdapter.obj
 0001:0004f5a0       ?createObject@?$PxSerializerDefaultAdapter@VNpConstraint@physx@@@physx@@UEBAPEAVPxBase@2@AEAPEAEAEAVPxDeserializationContext@2@@Z 00000001800505a0 f i NpSerializerAdapter.obj
 0001:0004f5b0       ?createObject@?$PxSerializerDefaultAdapter@VNpMaterial@physx@@@physx@@UEBAPEAVPxBase@2@AEAPEAEAEAVPxDeserializationContext@2@@Z 00000001800505b0 f i NpSerializerAdapter.obj
 0001:0004f5c0       ?createObject@?$PxSerializerDefaultAdapter@VNpRigidDynamic@physx@@@physx@@UEBAPEAVPxBase@2@AEAPEAEAEAVPxDeserializationContext@2@@Z 00000001800505c0 f i NpSerializerAdapter.obj
 0001:0004f5d0       ?createObject@?$PxSerializerDefaultAdapter@VNpRigidStatic@physx@@@physx@@UEBAPEAVPxBase@2@AEAPEAEAEAVPxDeserializationContext@2@@Z 00000001800505d0 f i NpSerializerAdapter.obj
 0001:0004f5e0       ?createObject@?$PxSerializerDefaultAdapter@VNpShape@physx@@@physx@@UEBAPEAVPxBase@2@AEAPEAEAEAVPxDeserializationContext@2@@Z 00000001800505e0 f i NpSerializerAdapter.obj
 0001:0004f5f0       ?createObject@?$PxSerializerDefaultAdapter@VPruningStructure@Sq@physx@@@physx@@UEBAPEAVPxBase@2@AEAPEAEAEAVPxDeserializationContext@2@@Z 00000001800505f0 f i NpSerializerAdapter.obj
 0001:0004f600       ?createObject@?$PxSerializerDefaultAdapter@VRTreeTriangleMesh@Gu@physx@@@physx@@UEBAPEAVPxBase@2@AEAPEAEAEAVPxDeserializationContext@2@@Z 0000000180050600 f i NpSerializerAdapter.obj
 0001:0004f610       ?exportData@?$PxSerializerDefaultAdapter@VBV4TriangleMesh@Gu@physx@@@physx@@UEBAXAEAVPxBase@2@AEAVPxSerializationContext@2@@Z 0000000180050610 f i NpSerializerAdapter.obj
 0001:0004f710       ?exportData@?$PxSerializerDefaultAdapter@VConvexMesh@Gu@physx@@@physx@@UEBAXAEAVPxBase@2@AEAVPxSerializationContext@2@@Z 0000000180050710 f i NpSerializerAdapter.obj
 0001:0004f810       ?exportData@?$PxSerializerDefaultAdapter@VHeightField@Gu@physx@@@physx@@UEBAXAEAVPxBase@2@AEAVPxSerializationContext@2@@Z 0000000180050810 f i NpSerializerAdapter.obj
 0001:0004f8f0       ?exportData@?$PxSerializerDefaultAdapter@VNpAggregate@physx@@@physx@@UEBAXAEAVPxBase@2@AEAVPxSerializationContext@2@@Z 00000001800508f0 f i NpSerializerAdapter.obj
 0001:0004f9b0       ?exportData@?$PxSerializerDefaultAdapter@VNpArticulation@physx@@@physx@@UEBAXAEAVPxBase@2@AEAVPxSerializationContext@2@@Z 00000001800509b0 f i NpSerializerAdapter.obj
 0001:0004fab0       ?exportData@?$PxSerializerDefaultAdapter@VNpArticulationJoint@physx@@@physx@@UEBAXAEAVPxBase@2@AEAVPxSerializationContext@2@@Z 0000000180050ab0 f i NpSerializerAdapter.obj
 0001:0004fbc0       ?exportData@?$PxSerializerDefaultAdapter@VNpArticulationJointReducedCoordinate@physx@@@physx@@UEBAXAEAVPxBase@2@AEAVPxSerializationContext@2@@Z 0000000180050bc0 f i NpSerializerAdapter.obj
 0001:0004fcd0       ?exportData@?$PxSerializerDefaultAdapter@VNpArticulationLink@physx@@@physx@@UEBAXAEAVPxBase@2@AEAVPxSerializationContext@2@@Z 0000000180050cd0 f i NpSerializerAdapter.obj
 0001:0004fe30       ?exportData@?$PxSerializerDefaultAdapter@VNpArticulationReducedCoordinate@physx@@@physx@@UEBAXAEAVPxBase@2@AEAVPxSerializationContext@2@@Z 0000000180050e30 f i NpSerializerAdapter.obj
 0001:0004ff40       ?exportData@?$PxSerializerDefaultAdapter@VNpConstraint@physx@@@physx@@UEBAXAEAVPxBase@2@AEAVPxSerializationContext@2@@Z 0000000180050f40 f i NpSerializerAdapter.obj
 0001:00050040       ?exportData@?$PxSerializerDefaultAdapter@VNpMaterial@physx@@@physx@@UEBAXAEAVPxBase@2@AEAVPxSerializationContext@2@@Z 0000000180051040 f i NpSerializerAdapter.obj
 0001:00050100       ?exportData@?$PxSerializerDefaultAdapter@VNpRigidDynamic@physx@@@physx@@UEBAXAEAVPxBase@2@AEAVPxSerializationContext@2@@Z 0000000180051100 f i NpSerializerAdapter.obj
 0001:000501f0       ?exportData@?$PxSerializerDefaultAdapter@VNpRigidStatic@physx@@@physx@@UEBAXAEAVPxBase@2@AEAVPxSerializationContext@2@@Z 00000001800511f0 f i NpSerializerAdapter.obj
 0001:00050320       ?exportData@?$PxSerializerDefaultAdapter@VNpShape@physx@@@physx@@UEBAXAEAVPxBase@2@AEAVPxSerializationContext@2@@Z 0000000180051320 f i NpSerializerAdapter.obj
 0001:00050420       ?exportData@?$PxSerializerDefaultAdapter@VPruningStructure@Sq@physx@@@physx@@UEBAXAEAVPxBase@2@AEAVPxSerializationContext@2@@Z 0000000180051420 f i NpSerializerAdapter.obj
 0001:000504e0       ?exportData@?$PxSerializerDefaultAdapter@VRTreeTriangleMesh@Gu@physx@@@physx@@UEBAXAEAVPxBase@2@AEAVPxSerializationContext@2@@Z 00000001800514e0 f i NpSerializerAdapter.obj
 0001:000505d0       ?exportExtraData@?$PxSerializerDefaultAdapter@VBV4TriangleMesh@Gu@physx@@@physx@@UEBAXAEAVPxBase@2@AEAVPxSerializationContext@2@@Z 00000001800515d0 f i NpSerializerAdapter.obj
 0001:000505e0       ?exportExtraData@?$PxSerializerDefaultAdapter@VConvexMesh@Gu@physx@@@physx@@UEBAXAEAVPxBase@2@AEAVPxSerializationContext@2@@Z 00000001800515e0 f i NpSerializerAdapter.obj
 0001:000505f0       ?exportExtraData@?$PxSerializerDefaultAdapter@VHeightField@Gu@physx@@@physx@@UEBAXAEAVPxBase@2@AEAVPxSerializationContext@2@@Z 00000001800515f0 f i NpSerializerAdapter.obj
 0001:00050600       ?exportExtraData@?$PxSerializerDefaultAdapter@VNpAggregate@physx@@@physx@@UEBAXAEAVPxBase@2@AEAVPxSerializationContext@2@@Z 0000000180051600 f i NpSerializerAdapter.obj
 0001:00050610       ?exportExtraData@?$PxSerializerDefaultAdapter@VNpArticulation@physx@@@physx@@UEBAXAEAVPxBase@2@AEAVPxSerializationContext@2@@Z 0000000180051610 f i NpSerializerAdapter.obj
 0001:00050620       ?exportExtraData@?$PxSerializerDefaultAdapter@VNpArticulationJoint@physx@@@physx@@UEBAXAEAVPxBase@2@AEAVPxSerializationContext@2@@Z 0000000180051620 f i NpSerializerAdapter.obj
 0001:00050630       ?exportExtraData@?$PxSerializerDefaultAdapter@VNpArticulationJointReducedCoordinate@physx@@@physx@@UEBAXAEAVPxBase@2@AEAVPxSerializationContext@2@@Z 0000000180051630 f i NpSerializerAdapter.obj
 0001:00050640       ?exportExtraData@?$PxSerializerDefaultAdapter@VNpArticulationLink@physx@@@physx@@UEBAXAEAVPxBase@2@AEAVPxSerializationContext@2@@Z 0000000180051640 f i NpSerializerAdapter.obj
 0001:00050650       ?exportExtraData@?$PxSerializerDefaultAdapter@VNpArticulationReducedCoordinate@physx@@@physx@@UEBAXAEAVPxBase@2@AEAVPxSerializationContext@2@@Z 0000000180051650 f i NpSerializerAdapter.obj
 0001:00050660       ?exportExtraData@?$PxSerializerDefaultAdapter@VNpConstraint@physx@@@physx@@UEBAXAEAVPxBase@2@AEAVPxSerializationContext@2@@Z 0000000180051660 f i NpSerializerAdapter.obj
 0001:00050670       ?exportExtraData@?$PxSerializerDefaultAdapter@VNpMaterial@physx@@@physx@@UEBAXAEAVPxBase@2@AEAVPxSerializationContext@2@@Z 0000000180051670 f i NpSerializerAdapter.obj
 0001:00050680       ?exportExtraData@?$PxSerializerDefaultAdapter@VNpRigidDynamic@physx@@@physx@@UEBAXAEAVPxBase@2@AEAVPxSerializationContext@2@@Z 0000000180051680 f i NpSerializerAdapter.obj
 0001:00050690       ?exportExtraData@?$PxSerializerDefaultAdapter@VNpRigidStatic@physx@@@physx@@UEBAXAEAVPxBase@2@AEAVPxSerializationContext@2@@Z 0000000180051690 f i NpSerializerAdapter.obj
 0001:000506a0       ?exportExtraData@?$PxSerializerDefaultAdapter@VNpShape@physx@@@physx@@UEBAXAEAVPxBase@2@AEAVPxSerializationContext@2@@Z 00000001800516a0 f i NpSerializerAdapter.obj
 0001:000506b0       ?exportExtraData@?$PxSerializerDefaultAdapter@VPruningStructure@Sq@physx@@@physx@@UEBAXAEAVPxBase@2@AEAVPxSerializationContext@2@@Z 00000001800516b0 f i NpSerializerAdapter.obj
 0001:000506c0       ?exportExtraData@?$PxSerializerDefaultAdapter@VRTreeTriangleMesh@Gu@physx@@@physx@@UEBAXAEAVPxBase@2@AEAVPxSerializationContext@2@@Z 00000001800516c0 f i NpSerializerAdapter.obj
 0001:000506d0       ?getClassSize@?$PxSerializerDefaultAdapter@VBV4TriangleMesh@Gu@physx@@@physx@@UEBA_KXZ 00000001800516d0 f i NpSerializerAdapter.obj
 0001:000506e0       ?getClassSize@?$PxSerializerDefaultAdapter@VConvexMesh@Gu@physx@@@physx@@UEBA_KXZ 00000001800516e0 f i NpSerializerAdapter.obj
 0001:000506f0       ?getClassSize@?$PxSerializerDefaultAdapter@VHeightField@Gu@physx@@@physx@@UEBA_KXZ 00000001800516f0 f i NpSerializerAdapter.obj
 0001:00050700       ?getClassSize@?$PxSerializerDefaultAdapter@VNpAggregate@physx@@@physx@@UEBA_KXZ 0000000180051700 f i NpSerializerAdapter.obj
 0001:00050710       ?getClassSize@?$PxSerializerDefaultAdapter@VNpArticulation@physx@@@physx@@UEBA_KXZ 0000000180051710 f i NpSerializerAdapter.obj
 0001:00050720       ?getClassSize@?$PxSerializerDefaultAdapter@VNpArticulationJoint@physx@@@physx@@UEBA_KXZ 0000000180051720 f i NpSerializerAdapter.obj
 0001:00050730       ?getClassSize@?$PxSerializerDefaultAdapter@VNpArticulationJointReducedCoordinate@physx@@@physx@@UEBA_KXZ 0000000180051730 f i NpSerializerAdapter.obj
 0001:00050740       ?getClassSize@?$PxSerializerDefaultAdapter@VNpArticulationLink@physx@@@physx@@UEBA_KXZ 0000000180051740 f i NpSerializerAdapter.obj
 0001:00050750       ?getClassSize@?$PxSerializerDefaultAdapter@VNpArticulationReducedCoordinate@physx@@@physx@@UEBA_KXZ 0000000180051750 f i NpSerializerAdapter.obj
 0001:00050760       ?getClassSize@?$PxSerializerDefaultAdapter@VNpConstraint@physx@@@physx@@UEBA_KXZ 0000000180051760 f i NpSerializerAdapter.obj
 0001:00050770       ?getClassSize@?$PxSerializerDefaultAdapter@VNpMaterial@physx@@@physx@@UEBA_KXZ 0000000180051770 f i NpSerializerAdapter.obj
 0001:00050780       ?getClassSize@?$PxSerializerDefaultAdapter@VNpRigidDynamic@physx@@@physx@@UEBA_KXZ 0000000180051780 f i NpSerializerAdapter.obj
 0001:00050790       ?getClassSize@?$PxSerializerDefaultAdapter@VNpRigidStatic@physx@@@physx@@UEBA_KXZ 0000000180051790 f i NpSerializerAdapter.obj
 0001:000507a0       ?getClassSize@?$PxSerializerDefaultAdapter@VNpShape@physx@@@physx@@UEBA_KXZ 00000001800517a0 f i NpSerializerAdapter.obj
 0001:000507b0       ?getClassSize@?$PxSerializerDefaultAdapter@VPruningStructure@Sq@physx@@@physx@@UEBA_KXZ 00000001800517b0 f i NpSerializerAdapter.obj
 0001:000507c0       ?getClassSize@?$PxSerializerDefaultAdapter@VRTreeTriangleMesh@Gu@physx@@@physx@@UEBA_KXZ 00000001800517c0 f i NpSerializerAdapter.obj
 0001:000507d0       ?getConcreteTypeName@?$PxSerializerDefaultAdapter@VBV4TriangleMesh@Gu@physx@@@physx@@UEBAPEBDXZ 00000001800517d0 f i NpSerializerAdapter.obj
 0001:000507e0       ?getConcreteTypeName@?$PxSerializerDefaultAdapter@VConvexMesh@Gu@physx@@@physx@@UEBAPEBDXZ 00000001800517e0 f i NpSerializerAdapter.obj
 0001:000507f0       ?getConcreteTypeName@?$PxSerializerDefaultAdapter@VHeightField@Gu@physx@@@physx@@UEBAPEBDXZ 00000001800517f0 f i NpSerializerAdapter.obj
 0001:00050800       ?getConcreteTypeName@?$PxSerializerDefaultAdapter@VNpAggregate@physx@@@physx@@UEBAPEBDXZ 0000000180051800 f i NpSerializerAdapter.obj
 0001:00050810       ?getConcreteTypeName@?$PxSerializerDefaultAdapter@VNpArticulation@physx@@@physx@@UEBAPEBDXZ 0000000180051810 f i NpSerializerAdapter.obj
 0001:00050820       ?getConcreteTypeName@?$PxSerializerDefaultAdapter@VNpArticulationJoint@physx@@@physx@@UEBAPEBDXZ 0000000180051820 f i NpSerializerAdapter.obj
 0001:00050830       ?getConcreteTypeName@?$PxSerializerDefaultAdapter@VNpArticulationJointReducedCoordinate@physx@@@physx@@UEBAPEBDXZ 0000000180051830 f i NpSerializerAdapter.obj
 0001:00050840       ?getConcreteTypeName@?$PxSerializerDefaultAdapter@VNpArticulationLink@physx@@@physx@@UEBAPEBDXZ 0000000180051840 f i NpSerializerAdapter.obj
 0001:00050850       ?getConcreteTypeName@?$PxSerializerDefaultAdapter@VNpArticulationReducedCoordinate@physx@@@physx@@UEBAPEBDXZ 0000000180051850 f i NpSerializerAdapter.obj
 0001:00050860       ?getConcreteTypeName@?$PxSerializerDefaultAdapter@VNpConstraint@physx@@@physx@@UEBAPEBDXZ 0000000180051860 f i NpSerializerAdapter.obj
 0001:00050870       ?getConcreteTypeName@?$PxSerializerDefaultAdapter@VNpMaterial@physx@@@physx@@UEBAPEBDXZ 0000000180051870 f i NpSerializerAdapter.obj
 0001:00050880       ?getConcreteTypeName@?$PxSerializerDefaultAdapter@VNpRigidDynamic@physx@@@physx@@UEBAPEBDXZ 0000000180051880 f i NpSerializerAdapter.obj
 0001:00050890       ?getConcreteTypeName@?$PxSerializerDefaultAdapter@VNpRigidStatic@physx@@@physx@@UEBAPEBDXZ 0000000180051890 f i NpSerializerAdapter.obj
 0001:000508a0       ?getConcreteTypeName@?$PxSerializerDefaultAdapter@VNpShape@physx@@@physx@@UEBAPEBDXZ 00000001800518a0 f i NpSerializerAdapter.obj
 0001:000508b0       ?getConcreteTypeName@?$PxSerializerDefaultAdapter@VPruningStructure@Sq@physx@@@physx@@UEBAPEBDXZ 00000001800518b0 f i NpSerializerAdapter.obj
 0001:000508c0       ?getConcreteTypeName@?$PxSerializerDefaultAdapter@VRTreeTriangleMesh@Gu@physx@@@physx@@UEBAPEBDXZ 00000001800518c0 f i NpSerializerAdapter.obj
 0001:000508d0       ?isSubordinate@?$PxSerializerDefaultAdapter@VBV4TriangleMesh@Gu@physx@@@physx@@UEBA_NXZ 00000001800518d0 f i NpSerializerAdapter.obj
 0001:000508e0       ?isSubordinate@?$PxSerializerDefaultAdapter@VConvexMesh@Gu@physx@@@physx@@UEBA_NXZ 00000001800518e0 f i NpSerializerAdapter.obj
 0001:000508f0       ?isSubordinate@?$PxSerializerDefaultAdapter@VHeightField@Gu@physx@@@physx@@UEBA_NXZ 00000001800518f0 f i NpSerializerAdapter.obj
 0001:00050900       ?isSubordinate@?$PxSerializerDefaultAdapter@VNpAggregate@physx@@@physx@@UEBA_NXZ 0000000180051900 f i NpSerializerAdapter.obj
 0001:00050910       ?isSubordinate@?$PxSerializerDefaultAdapter@VNpArticulation@physx@@@physx@@UEBA_NXZ 0000000180051910 f i NpSerializerAdapter.obj
 0001:00050920       ?isSubordinate@?$PxSerializerDefaultAdapter@VNpArticulationJoint@physx@@@physx@@UEBA_NXZ 0000000180051920 f i NpSerializerAdapter.obj
 0001:00050930       ?isSubordinate@?$PxSerializerDefaultAdapter@VNpArticulationJointReducedCoordinate@physx@@@physx@@UEBA_NXZ 0000000180051930 f i NpSerializerAdapter.obj
 0001:00050940       ?isSubordinate@?$PxSerializerDefaultAdapter@VNpArticulationLink@physx@@@physx@@UEBA_NXZ 0000000180051940 f i NpSerializerAdapter.obj
 0001:00050950       ?isSubordinate@?$PxSerializerDefaultAdapter@VNpArticulationReducedCoordinate@physx@@@physx@@UEBA_NXZ 0000000180051950 f i NpSerializerAdapter.obj
 0001:00050960       ?isSubordinate@?$PxSerializerDefaultAdapter@VNpConstraint@physx@@@physx@@UEBA_NXZ 0000000180051960 f i NpSerializerAdapter.obj
 0001:00050970       ?isSubordinate@?$PxSerializerDefaultAdapter@VNpMaterial@physx@@@physx@@UEBA_NXZ 0000000180051970 f i NpSerializerAdapter.obj
 0001:00050980       ?isSubordinate@?$PxSerializerDefaultAdapter@VNpRigidDynamic@physx@@@physx@@UEBA_NXZ 0000000180051980 f i NpSerializerAdapter.obj
 0001:00050990       ?isSubordinate@?$PxSerializerDefaultAdapter@VNpRigidStatic@physx@@@physx@@UEBA_NXZ 0000000180051990 f i NpSerializerAdapter.obj
 0001:000509a0       ?isSubordinate@?$PxSerializerDefaultAdapter@VNpShape@physx@@@physx@@UEBA_NXZ 00000001800519a0 f i NpSerializerAdapter.obj
 0001:000509b0       ?isSubordinate@?$PxSerializerDefaultAdapter@VPruningStructure@Sq@physx@@@physx@@UEBA_NXZ 00000001800519b0 f i NpSerializerAdapter.obj
 0001:000509c0       ?isSubordinate@?$PxSerializerDefaultAdapter@VRTreeTriangleMesh@Gu@physx@@@physx@@UEBA_NXZ 00000001800519c0 f i NpSerializerAdapter.obj
 0001:000509d0       ?preExportDataReset@?$NpRigidActorTemplate@VPxArticulationLink@physx@@@physx@@QEAAXXZ 00000001800519d0 f i NpSerializerAdapter.obj
 0001:00050a20       ?preExportDataReset@?$NpRigidActorTemplate@VPxRigidStatic@physx@@@physx@@QEAAXXZ 0000000180051a20 f i NpSerializerAdapter.obj
 0001:00050a70       ?process@RequiresCallback@?1??registerReferences@?$PxSerializerDefaultAdapter@VBV4TriangleMesh@Gu@physx@@@physx@@UEBAXAEAVPxBase@4@AEAVPxSerializationContext@4@@Z@UEAAX0@Z 0000000180051a70 f i NpSerializerAdapter.obj
 0001:00050a90       ?process@RequiresCallback@?1??registerReferences@?$PxSerializerDefaultAdapter@VConvexMesh@Gu@physx@@@physx@@UEBAXAEAVPxBase@4@AEAVPxSerializationContext@4@@Z@UEAAX0@Z 0000000180051a90 f i NpSerializerAdapter.obj
 0001:00050ab0       ?process@RequiresCallback@?1??registerReferences@?$PxSerializerDefaultAdapter@VHeightField@Gu@physx@@@physx@@UEBAXAEAVPxBase@4@AEAVPxSerializationContext@4@@Z@UEAAX0@Z 0000000180051ab0 f i NpSerializerAdapter.obj
 0001:00050ad0       ?process@RequiresCallback@?1??registerReferences@?$PxSerializerDefaultAdapter@VNpAggregate@physx@@@physx@@UEBAXAEAVPxBase@4@AEAVPxSerializationContext@4@@Z@UEAAX0@Z 0000000180051ad0 f i NpSerializerAdapter.obj
 0001:00050af0       ?process@RequiresCallback@?1??registerReferences@?$PxSerializerDefaultAdapter@VNpArticulation@physx@@@physx@@UEBAXAEAVPxBase@4@AEAVPxSerializationContext@4@@Z@UEAAX0@Z 0000000180051af0 f i NpSerializerAdapter.obj
 0001:00050b10       ?process@RequiresCallback@?1??registerReferences@?$PxSerializerDefaultAdapter@VNpArticulationJoint@physx@@@physx@@UEBAXAEAVPxBase@4@AEAVPxSerializationContext@4@@Z@UEAAX0@Z 0000000180051b10 f i NpSerializerAdapter.obj
 0001:00050b30       ?process@RequiresCallback@?1??registerReferences@?$PxSerializerDefaultAdapter@VNpArticulationJointReducedCoordinate@physx@@@physx@@UEBAXAEAVPxBase@4@AEAVPxSerializationContext@4@@Z@UEAAX0@Z 0000000180051b30 f i NpSerializerAdapter.obj
 0001:00050b50       ?process@RequiresCallback@?1??registerReferences@?$PxSerializerDefaultAdapter@VNpArticulationLink@physx@@@physx@@UEBAXAEAVPxBase@4@AEAVPxSerializationContext@4@@Z@UEAAX0@Z 0000000180051b50 f i NpSerializerAdapter.obj
 0001:00050b70       ?process@RequiresCallback@?1??registerReferences@?$PxSerializerDefaultAdapter@VNpArticulationReducedCoordinate@physx@@@physx@@UEBAXAEAVPxBase@4@AEAVPxSerializationContext@4@@Z@UEAAX0@Z 0000000180051b70 f i NpSerializerAdapter.obj
 0001:00050b90       ?process@RequiresCallback@?1??registerReferences@?$PxSerializerDefaultAdapter@VNpConstraint@physx@@@physx@@UEBAXAEAVPxBase@4@AEAVPxSerializationContext@4@@Z@UEAAX0@Z 0000000180051b90 f i NpSerializerAdapter.obj
 0001:00050bb0       ?process@RequiresCallback@?1??registerReferences@?$PxSerializerDefaultAdapter@VNpRigidDynamic@physx@@@physx@@UEBAXAEAVPxBase@4@AEAVPxSerializationContext@4@@Z@UEAAX0@Z 0000000180051bb0 f i NpSerializerAdapter.obj
 0001:00050bd0       ?process@RequiresCallback@?1??registerReferences@?$PxSerializerDefaultAdapter@VNpRigidStatic@physx@@@physx@@UEBAXAEAVPxBase@4@AEAVPxSerializationContext@4@@Z@UEAAX0@Z 0000000180051bd0 f i NpSerializerAdapter.obj
 0001:00050bf0       ?process@RequiresCallback@?1??registerReferences@?$PxSerializerDefaultAdapter@VNpShape@physx@@@physx@@UEBAXAEAVPxBase@4@AEAVPxSerializationContext@4@@Z@UEAAX0@Z 0000000180051bf0 f i NpSerializerAdapter.obj
 0001:00050c30       ?process@RequiresCallback@?1??registerReferences@?$PxSerializerDefaultAdapter@VPruningStructure@Sq@physx@@@physx@@UEBAXAEAVPxBase@4@AEAVPxSerializationContext@4@@Z@UEAAX0@Z 0000000180051c30 f i NpSerializerAdapter.obj
 0001:00050c50       ?process@RequiresCallback@?1??registerReferences@?$PxSerializerDefaultAdapter@VRTreeTriangleMesh@Gu@physx@@@physx@@UEBAXAEAVPxBase@4@AEAVPxSerializationContext@4@@Z@UEAAX0@Z 0000000180051c50 f i NpSerializerAdapter.obj
 0001:00050c70       ?registerReferences@?$PxSerializerDefaultAdapter@VBV4TriangleMesh@Gu@physx@@@physx@@UEBAXAEAVPxBase@2@AEAVPxSerializationContext@2@@Z 0000000180051c70 f i NpSerializerAdapter.obj
 0001:00050cc0       ?registerReferences@?$PxSerializerDefaultAdapter@VConvexMesh@Gu@physx@@@physx@@UEBAXAEAVPxBase@2@AEAVPxSerializationContext@2@@Z 0000000180051cc0 f i NpSerializerAdapter.obj
 0001:00050d10       ?registerReferences@?$PxSerializerDefaultAdapter@VHeightField@Gu@physx@@@physx@@UEBAXAEAVPxBase@2@AEAVPxSerializationContext@2@@Z 0000000180051d10 f i NpSerializerAdapter.obj
 0001:00050d60       ?registerReferences@?$PxSerializerDefaultAdapter@VNpAggregate@physx@@@physx@@UEBAXAEAVPxBase@2@AEAVPxSerializationContext@2@@Z 0000000180051d60 f i NpSerializerAdapter.obj
 0001:00050db0       ?registerReferences@?$PxSerializerDefaultAdapter@VNpArticulation@physx@@@physx@@UEBAXAEAVPxBase@2@AEAVPxSerializationContext@2@@Z 0000000180051db0 f i NpSerializerAdapter.obj
 0001:00050e00       ?registerReferences@?$PxSerializerDefaultAdapter@VNpArticulationJoint@physx@@@physx@@UEBAXAEAVPxBase@2@AEAVPxSerializationContext@2@@Z 0000000180051e00 f i NpSerializerAdapter.obj
 0001:00050e50       ?registerReferences@?$PxSerializerDefaultAdapter@VNpArticulationJointReducedCoordinate@physx@@@physx@@UEBAXAEAVPxBase@2@AEAVPxSerializationContext@2@@Z 0000000180051e50 f i NpSerializerAdapter.obj
 0001:00050ea0       ?registerReferences@?$PxSerializerDefaultAdapter@VNpArticulationLink@physx@@@physx@@UEBAXAEAVPxBase@2@AEAVPxSerializationContext@2@@Z 0000000180051ea0 f i NpSerializerAdapter.obj
 0001:00050ef0       ?registerReferences@?$PxSerializerDefaultAdapter@VNpArticulationReducedCoordinate@physx@@@physx@@UEBAXAEAVPxBase@2@AEAVPxSerializationContext@2@@Z 0000000180051ef0 f i NpSerializerAdapter.obj
 0001:00050f40       ?registerReferences@?$PxSerializerDefaultAdapter@VNpConstraint@physx@@@physx@@UEBAXAEAVPxBase@2@AEAVPxSerializationContext@2@@Z 0000000180051f40 f i NpSerializerAdapter.obj
 0001:00050f90       ?registerReferences@?$PxSerializerDefaultAdapter@VNpMaterial@physx@@@physx@@UEBAXAEAVPxBase@2@AEAVPxSerializationContext@2@@Z 0000000180051f90 f i NpSerializerAdapter.obj
 0001:00050fe0       ?registerReferences@?$PxSerializerDefaultAdapter@VNpRigidDynamic@physx@@@physx@@UEBAXAEAVPxBase@2@AEAVPxSerializationContext@2@@Z 0000000180051fe0 f i NpSerializerAdapter.obj
 0001:00051030       ?registerReferences@?$PxSerializerDefaultAdapter@VNpRigidStatic@physx@@@physx@@UEBAXAEAVPxBase@2@AEAVPxSerializationContext@2@@Z 0000000180052030 f i NpSerializerAdapter.obj
 0001:00051080       ?registerReferences@?$PxSerializerDefaultAdapter@VNpShape@physx@@@physx@@UEBAXAEAVPxBase@2@AEAVPxSerializationContext@2@@Z 0000000180052080 f i NpSerializerAdapter.obj
 0001:000510d0       ?registerReferences@?$PxSerializerDefaultAdapter@VPruningStructure@Sq@physx@@@physx@@UEBAXAEAVPxBase@2@AEAVPxSerializationContext@2@@Z 00000001800520d0 f i NpSerializerAdapter.obj
 0001:00051120       ?registerReferences@?$PxSerializerDefaultAdapter@VRTreeTriangleMesh@Gu@physx@@@physx@@UEBAXAEAVPxBase@2@AEAVPxSerializationContext@2@@Z 0000000180052120 f i NpSerializerAdapter.obj
 0001:00051170       ?requiresObjects@?$PxSerializerDefaultAdapter@VBV4TriangleMesh@Gu@physx@@@physx@@UEBAXAEAVPxBase@2@AEAVPxProcessPxBaseCallback@2@@Z 0000000180052170 f i NpSerializerAdapter.obj
 0001:00051180       ?requiresObjects@?$PxSerializerDefaultAdapter@VConvexMesh@Gu@physx@@@physx@@UEBAXAEAVPxBase@2@AEAVPxProcessPxBaseCallback@2@@Z 0000000180052180 f i NpSerializerAdapter.obj
 0001:00051190       ?requiresObjects@?$PxSerializerDefaultAdapter@VHeightField@Gu@physx@@@physx@@UEBAXAEAVPxBase@2@AEAVPxProcessPxBaseCallback@2@@Z 0000000180052190 f i NpSerializerAdapter.obj
 0001:000511a0       ?requiresObjects@?$PxSerializerDefaultAdapter@VNpAggregate@physx@@@physx@@UEBAXAEAVPxBase@2@AEAVPxProcessPxBaseCallback@2@@Z 00000001800521a0 f i NpSerializerAdapter.obj
 0001:000511b0       ?requiresObjects@?$PxSerializerDefaultAdapter@VNpArticulation@physx@@@physx@@UEBAXAEAVPxBase@2@AEAVPxProcessPxBaseCallback@2@@Z 00000001800521b0 f i NpSerializerAdapter.obj
 0001:000511c0       ?requiresObjects@?$PxSerializerDefaultAdapter@VNpArticulationJoint@physx@@@physx@@UEBAXAEAVPxBase@2@AEAVPxProcessPxBaseCallback@2@@Z 00000001800521c0 f i NpSerializerAdapter.obj
 0001:000511d0       ?requiresObjects@?$PxSerializerDefaultAdapter@VNpArticulationJointReducedCoordinate@physx@@@physx@@UEBAXAEAVPxBase@2@AEAVPxProcessPxBaseCallback@2@@Z 00000001800521d0 f i NpSerializerAdapter.obj
 0001:000511e0       ?requiresObjects@?$PxSerializerDefaultAdapter@VNpArticulationLink@physx@@@physx@@UEBAXAEAVPxBase@2@AEAVPxProcessPxBaseCallback@2@@Z 00000001800521e0 f i NpSerializerAdapter.obj
 0001:000511f0       ?requiresObjects@?$PxSerializerDefaultAdapter@VNpArticulationReducedCoordinate@physx@@@physx@@UEBAXAEAVPxBase@2@AEAVPxProcessPxBaseCallback@2@@Z 00000001800521f0 f i NpSerializerAdapter.obj
 0001:00051200       ?requiresObjects@?$PxSerializerDefaultAdapter@VNpConstraint@physx@@@physx@@UEBAXAEAVPxBase@2@AEAVPxProcessPxBaseCallback@2@@Z 0000000180052200 f i NpSerializerAdapter.obj
 0001:00051210       ?requiresObjects@?$PxSerializerDefaultAdapter@VNpMaterial@physx@@@physx@@UEBAXAEAVPxBase@2@AEAVPxProcessPxBaseCallback@2@@Z 0000000180052210 f i NpSerializerAdapter.obj
 0001:00051220       ?requiresObjects@?$PxSerializerDefaultAdapter@VNpRigidDynamic@physx@@@physx@@UEBAXAEAVPxBase@2@AEAVPxProcessPxBaseCallback@2@@Z 0000000180052220 f i NpSerializerAdapter.obj
 0001:00051230       ?requiresObjects@?$PxSerializerDefaultAdapter@VNpRigidStatic@physx@@@physx@@UEBAXAEAVPxBase@2@AEAVPxProcessPxBaseCallback@2@@Z 0000000180052230 f i NpSerializerAdapter.obj
 0001:00051240       ?requiresObjects@?$PxSerializerDefaultAdapter@VNpShape@physx@@@physx@@UEBAXAEAVPxBase@2@AEAVPxProcessPxBaseCallback@2@@Z 0000000180052240 f i NpSerializerAdapter.obj
 0001:00051250       ?requiresObjects@?$PxSerializerDefaultAdapter@VPruningStructure@Sq@physx@@@physx@@UEBAXAEAVPxBase@2@AEAVPxProcessPxBaseCallback@2@@Z 0000000180052250 f i NpSerializerAdapter.obj
 0001:00051260       ?requiresObjects@?$PxSerializerDefaultAdapter@VRTreeTriangleMesh@Gu@physx@@@physx@@UEBAXAEAVPxBase@2@AEAVPxProcessPxBaseCallback@2@@Z 0000000180052260 f i NpSerializerAdapter.obj
 0001:00051270       ?NpShapeGetScPtrOffset@physx@@YA_KXZ 0000000180052270 f   NpShape.obj
 0001:00051280       ?NpShapeIncRefCount@physx@@YAXAEAVShape@Scb@1@@Z 0000000180052280 f   NpShape.obj
 0001:00051290       ?NpShapeDecRefCount@physx@@YAXAEAVShape@Scb@1@@Z 0000000180052290 f   NpShape.obj
 0001:000512d0       ?NpShapeGetScRigidObjectFromScbSLOW@physx@@YAPEAVRigidCore@Sc@1@AEBVShape@Scb@1@@Z 00000001800522d0 f   NpShape.obj
 0001:000512f0       ??0NpShape@physx@@QEAA@V?$PxFlags@W4Enum@PxBaseFlag@physx@@G@1@@Z 00000001800522f0 f   NpShape.obj
 0001:00051360       ?preExportDataReset@NpShape@physx@@QEAAXXZ 0000000180052360 f   NpShape.obj
 0001:00051380       ?exportExtraData@NpShape@physx@@UEAAXAEAVPxSerializationContext@2@@Z 0000000180052380 f   NpShape.obj
 0001:000513c0       ?importExtraData@NpShape@physx@@QEAAXAEAVPxDeserializationContext@2@@Z 00000001800523c0 f   NpShape.obj
 0001:00051410       ?requiresObjects@NpShape@physx@@UEAAXAEAVPxProcessPxBaseCallback@2@@Z 0000000180052410 f   NpShape.obj
 0001:00051550       ?resolveReferences@NpShape@physx@@QEAAXAEAVPxDeserializationContext@2@@Z 0000000180052550 f   NpShape.obj
 0001:00051730       ?createObject@NpShape@physx@@SAPEAV12@AEAPEAEAEAVPxDeserializationContext@2@@Z 0000000180052730 f   NpShape.obj
 0001:00051820       ??0NpShape@physx@@QEAA@AEBVPxGeometry@1@V?$PxFlags@W4Enum@PxShapeFlag@physx@@E@1@PEBGG_N@Z 0000000180052820 f   NpShape.obj
 0001:00051960       ??1NpShape@physx@@UEAA@XZ  0000000180052960 f   NpShape.obj
 0001:00051a90       ?release@NpShape@physx@@UEAAXXZ 0000000180052a90 f   NpShape.obj
 0001:00051ad0       ?getReferenceCount@NpShape@physx@@UEBAIXZ 0000000180052ad0 f   NpShape.obj
 0001:00051ae0       ?acquireReference@NpShape@physx@@UEAAXXZ 0000000180052ae0 f   NpShape.obj
 0001:00051af0       ?getGeometryType@NpShape@physx@@UEBA?AW4Enum@PxGeometryType@2@XZ 0000000180052af0 f   NpShape.obj
 0001:00051b00       ?setGeometry@NpShape@physx@@UEAAXAEBVPxGeometry@2@@Z 0000000180052b00 f   NpShape.obj
 0001:00051ce0       ?getGeometry@NpShape@physx@@UEBA?AVPxGeometryHolder@2@XZ 0000000180052ce0 f   NpShape.obj
 0001:00051d20       ?getBoxGeometry@NpShape@physx@@UEBA_NAEAVPxBoxGeometry@2@@Z 0000000180052d20 f   NpShape.obj
 0001:00051d70       ?getSphereGeometry@NpShape@physx@@UEBA_NAEAVPxSphereGeometry@2@@Z 0000000180052d70 f   NpShape.obj
 0001:00051da0       ?getCapsuleGeometry@NpShape@physx@@UEBA_NAEAVPxCapsuleGeometry@2@@Z 0000000180052da0 f   NpShape.obj
 0001:00051de0       ?getPlaneGeometry@NpShape@physx@@UEBA_NAEAVPxPlaneGeometry@2@@Z 0000000180052de0 f   NpShape.obj
 0001:00051e10       ?getConvexMeshGeometry@NpShape@physx@@UEBA_NAEAVPxConvexMeshGeometry@2@@Z 0000000180052e10 f   NpShape.obj
 0001:00051e90       ?getTriangleMeshGeometry@NpShape@physx@@UEBA_NAEAVPxTriangleMeshGeometry@2@@Z 0000000180052e90 f   NpShape.obj
 0001:00051f10       ?getHeightFieldGeometry@NpShape@physx@@UEBA_NAEAVPxHeightFieldGeometry@2@@Z 0000000180052f10 f   NpShape.obj
 0001:00051f80       ?getActor@NpShape@physx@@UEBAPEAVPxRigidActor@2@XZ 0000000180052f80 f   NpShape.obj
 0001:00051f90       ?setLocalPose@NpShape@physx@@UEAAXAEBVPxTransform@2@@Z 0000000180052f90 f   NpShape.obj
 0001:00052190       ?getLocalPose@NpShape@physx@@UEBA?AVPxTransform@2@XZ 0000000180053190 f   NpShape.obj
 0001:000521e0       ?setSimulationFilterData@NpShape@physx@@UEAAXAEBUPxFilterData@2@@Z 00000001800531e0 f   NpShape.obj
 0001:00052300       ?getSimulationFilterData@NpShape@physx@@UEBA?AUPxFilterData@2@XZ 0000000180053300 f   NpShape.obj
 0001:00052340       ?setQueryFilterData@NpShape@physx@@UEAAXAEBUPxFilterData@2@@Z 0000000180053340 f   NpShape.obj
 0001:00052360       ?getQueryFilterData@NpShape@physx@@UEBA?AUPxFilterData@2@XZ 0000000180053360 f   NpShape.obj
 0001:00052390       ?setMaterials@NpShape@physx@@UEAAXPEBQEAVPxMaterial@2@G@Z 0000000180053390 f   NpShape.obj
 0001:000525d0       ?getNbMaterials@NpShape@physx@@UEBAGXZ 00000001800535d0 f   NpShape.obj
 0001:00052600       ?getMaterials@NpShape@physx@@UEBAIPEAPEAVPxMaterial@2@II@Z 0000000180053600 f   NpShape.obj
 0001:00052610       ?getMaterialFromInternalFaceIndex@NpShape@physx@@UEBAPEAVPxMaterial@2@I@Z 0000000180053610 f   NpShape.obj
 0001:00052770       ?setContactOffset@NpShape@physx@@UEAAXM@Z 0000000180053770 f   NpShape.obj
 0001:00052860       ?getContactOffset@NpShape@physx@@UEBAMXZ 0000000180053860 f   NpShape.obj
 0001:00052880       ?setRestOffset@NpShape@physx@@UEAAXM@Z 0000000180053880 f   NpShape.obj
 0001:00052970       ?getRestOffset@NpShape@physx@@UEBAMXZ 0000000180053970 f   NpShape.obj
 0001:00052990       ?setTorsionalPatchRadius@NpShape@physx@@UEAAXM@Z 0000000180053990 f   NpShape.obj
 0001:00052a80       ?getTorsionalPatchRadius@NpShape@physx@@UEBAMXZ 0000000180053a80 f   NpShape.obj
 0001:00052aa0       ?setMinTorsionalPatchRadius@NpShape@physx@@UEAAXM@Z 0000000180053aa0 f   NpShape.obj
 0001:00052b90       ?getMinTorsionalPatchRadius@NpShape@physx@@UEBAMXZ 0000000180053b90 f   NpShape.obj
 0001:00052bc0       ?setFlag@NpShape@physx@@UEAAXW4Enum@PxShapeFlag@2@_N@Z 0000000180053bc0 f   NpShape.obj
 0001:00052c40       ?setFlags@NpShape@physx@@UEAAXV?$PxFlags@W4Enum@PxShapeFlag@physx@@E@2@@Z 0000000180053c40 f   NpShape.obj
 0001:00052c90       ?getFlags@NpShape@physx@@UEBA?AV?$PxFlags@W4Enum@PxShapeFlag@physx@@E@2@XZ 0000000180053c90 f   NpShape.obj
 0001:00052cc0       ?isExclusive@NpShape@physx@@UEBA_NXZ 0000000180053cc0 f   NpShape.obj
 0001:00052ce0       ?setName@NpShape@physx@@UEAAXPEBD@Z 0000000180053ce0 f   NpShape.obj
 0001:00052cf0       ?getName@NpShape@physx@@UEBAPEBDXZ 0000000180053cf0 f   NpShape.obj
 0001:00052d00       ?onRefCountZero@NpShape@physx@@UEAAXXZ 0000000180053d00 f   NpShape.obj
 0001:00052d30       ?setFlagsInternal@NpShape@physx@@QEAAXV?$PxFlags@W4Enum@PxShapeFlag@physx@@E@2@@Z 0000000180053d30 f   NpShape.obj
 0001:00053000       ?checkMaterialSetup@NpShape@physx@@SA_NAEBVPxGeometry@2@PEBDPEBQEAVPxMaterial@2@G@Z 0000000180054000 f   NpShape.obj
 0001:00053200       ?onActorAttach@NpShape@physx@@QEAAXAEAVPxRigidActor@2@@Z 0000000180054200 f   NpShape.obj
 0001:00053240       ?onActorDetach@NpShape@physx@@QEAAXXZ 0000000180054240 f   NpShape.obj
 0001:000532a0       ?getScRigidObjectExclusive@NpShape@physx@@QEBAAEAVRigidCore@Sc@2@XZ 00000001800542a0 f   NpShape.obj
 0001:000532b0       ?releaseInternal@NpShape@physx@@QEAAXXZ 00000001800542b0 f   NpShape.obj
 0001:000532f0       ?getOwnerScene@NpShape@physx@@QEBAPEAVNpScene@2@XZ 00000001800542f0 f   NpShape.obj
 0001:00053310       ?getAPIScene@NpShape@physx@@AEBAPEAVNpScene@2@XZ 0000000180054310 f   NpShape.obj
 0001:00053320       ?incMeshRefCount@NpShape@physx@@AEAAXXZ 0000000180054320 f   NpShape.obj
 0001:00053350       ?decMeshRefCount@NpShape@physx@@AEAAXXZ 0000000180054350 f   NpShape.obj
 0001:00053390       ?getMeshRefCountable@NpShape@physx@@AEAAPEAVRefCountable@Cm@2@XZ 0000000180054390 f   NpShape.obj
 0001:00053420       ?isWritable@NpShape@physx@@AEAA_NXZ 0000000180054420 f   NpShape.obj
 0001:00053450       ?updateSQ@NpShape@physx@@AEAAXPEBD@Z 0000000180054450 f   NpShape.obj
 0001:00053520       ??$allocArrayBuffer@G@Scene@Scb@physx@@AEAAPEAGAEAV?$Array@GV?$ReflectionAllocator@G@shdfnd@physx@@@shdfnd@2@IAEAI@Z 0000000180054520 f i NpShape.obj
 0001:00053570       ??1PxShape@physx@@MEAA@XZ  0000000180054570 f i NpShape.obj
 0001:0005357c       ??_ENpShape@physx@@WBI@EAAPEAXI@Z 000000018005457c f i NpShape.obj
 0001:00053590       ??_GNpShape@physx@@UEAAPEAXI@Z 0000000180054590 f i NpShape.obj
 0001:00053590       ??_ENpShape@physx@@UEAAPEAXI@Z 0000000180054590 f i NpShape.obj
 0001:00053700       ??_GPxShape@physx@@MEAAPEAXI@Z 0000000180054700 f i NpShape.obj
 0001:00053700       ??_EPxShape@physx@@MEAAPEAXI@Z 0000000180054700 f i NpShape.obj
 0001:00053730       ?getConcreteTypeName@PxShape@physx@@UEBAPEBDXZ 0000000180054730 f i NpShape.obj
 0001:00053740       ?getMaterial@Shape@Scb@physx@@QEBAPEAVPxMaterial@3@I@Z 0000000180054740 f i NpShape.obj
 0001:000537c0       ?getMaterials@Shape@Scb@physx@@QEBAIPEAPEAVPxMaterial@3@II@Z 00000001800547c0 f i NpShape.obj
 0001:00053890       ?isKindOf@PxShape@physx@@MEBA_NPEBD@Z 0000000180054890 f i NpShape.obj
 0001:000538e0       ??0NpShapeManager@physx@@QEAA@W4PxEMPTY@1@@Z 00000001800548e0 f   NpShapeManager.obj
 0001:00053920       ?preExportDataReset@NpShapeManager@physx@@QEAAXXZ 0000000180054920 f   NpShapeManager.obj
 0001:00053950       ?exportExtraData@NpShapeManager@physx@@QEAAXAEAVPxSerializationContext@2@@Z 0000000180054950 f   NpShapeManager.obj
 0001:000539d0       ?importExtraData@NpShapeManager@physx@@QEAAXAEAVPxDeserializationContext@2@@Z 00000001800549d0 f   NpShapeManager.obj
 0001:00053a10       ??0NpShapeManager@physx@@QEAA@XZ 0000000180054a10 f   NpShapeManager.obj
 0001:00053a50       ??1NpShapeManager@physx@@QEAA@XZ 0000000180054a50 f   NpShapeManager.obj
 0001:00053ab0       ?getShapes@NpShapeManager@physx@@QEBAIPEAPEAVPxShape@2@II@Z 0000000180054ab0 f   NpShapeManager.obj
 0001:00053b10       ?attachShape@NpShapeManager@physx@@QEAAXAEAVNpShape@2@AEAVPxRigidActor@2@@Z 0000000180054b10 f   NpShapeManager.obj
 0001:00053bf0       ?detachShape@NpShapeManager@physx@@QEAA_NAEAVNpShape@2@AEAVPxRigidActor@2@_N@Z 0000000180054bf0 f   NpShapeManager.obj
 0001:00053d50       ?detachAll@NpShapeManager@physx@@QEAAXPEAVNpScene@2@AEBVPxRigidActor@2@@Z 0000000180054d50 f   NpShapeManager.obj
 0001:00053ee0       ?teardownSceneQuery@NpShapeManager@physx@@QEAAXAEAVSceneQueryManager@Sq@2@AEBVNpShape@2@@Z 0000000180054ee0 f   NpShapeManager.obj
 0001:00053f70       ?setupSceneQuery@NpShapeManager@physx@@QEAAXAEAVSceneQueryManager@Sq@2@AEBVPxRigidActor@2@AEBVNpShape@2@@Z 0000000180054f70 f   NpShapeManager.obj
 0001:00053fc0       ?addPrunerShape@NpShapeManager@physx@@QEAAXAEAVSceneQueryManager@Sq@2@IAEBVNpShape@2@AEBVPxRigidActor@2@_NPEBVPxBounds3@2@3@Z 0000000180054fc0 f   NpShapeManager.obj
 0001:00054050       ?setupAllSceneQuery@NpShapeManager@physx@@QEAAXPEAVNpScene@2@AEBVPxRigidActor@2@_NPEBVPxBounds3@2@PEBVBVHStructure@Gu@2@@Z 0000000180055050 f   NpShapeManager.obj
 0001:000541b0       ?teardownAllSceneQuery@NpShapeManager@physx@@QEAAXAEAVSceneQueryManager@Sq@2@AEBVPxRigidActor@2@@Z 00000001800551b0 f   NpShapeManager.obj
 0001:000542c0       ?markAllSceneQueryForUpdate@NpShapeManager@physx@@QEAAXAEAVSceneQueryManager@Sq@2@AEBVPxRigidActor@2@@Z 00000001800552c0 f   NpShapeManager.obj
 0001:00054380       ?findSceneQueryData@NpShapeManager@physx@@QEBA_KAEBVNpShape@2@AEAI@Z 0000000180055380 f   NpShapeManager.obj
 0001:000543d0       ?findSceneQueryData@NpShapeManager@physx@@QEBA_KAEBVNpShape@2@@Z 00000001800553d0 f   NpShapeManager.obj
 0001:00054410       ?getWorldBounds@NpShapeManager@physx@@QEBA?AVPxBounds3@2@AEBVPxRigidActor@2@@Z 0000000180055410 f   NpShapeManager.obj
 0001:00054770       ?addBVHStructureShapes@NpShapeManager@physx@@QEAAXAEAVSceneQueryManager@Sq@2@AEBVPxRigidActor@2@PEBVBVHStructure@Gu@2@@Z 0000000180055770 f   NpShapeManager.obj
 0001:000549e0       ?clearShapesOnRelease@NpShapeManager@physx@@QEAAXAEAVScene@Scb@2@AEAVPxRigidActor@2@@Z 00000001800559e0 f   NpShapeManager.obj
 0001:00054a60       ?releaseExclusiveUserReferences@NpShapeManager@physx@@QEAAXXZ 0000000180055a60 f   NpShapeManager.obj
 0001:00054ad0       ?visualize@NpShapeManager@physx@@QEAAXAEAVRenderOutput@Cm@2@PEAVNpScene@2@AEBVPxRigidActor@2@@Z 0000000180055ad0 f   NpShapeManager.obj
 0001:00055240       ?setupSceneQuery@NpShapeManager@physx@@IEAAXAEAVSceneQueryManager@Sq@2@AEBVPxRigidActor@2@I@Z 0000000180056240 f   NpShapeManager.obj
 0001:000552f0       ?teardownSceneQuery@NpShapeManager@physx@@IEAAXAEAVSceneQueryManager@Sq@2@I@Z 00000001800562f0 f   NpShapeManager.obj
 0001:000553c0       ??0PxMat44@physx@@QEAA@AEBVPxTransform@1@@Z 00000001800563c0 f i NpShapeManager.obj
 0001:00055540       ??0PxVec4@physx@@QEAA@XZ   0000000180056540 f i NpShapeManager.obj
 0001:00055550       ?allocate@?$Array@URemovedShape@Scb@physx@@V?$InlineAllocator@$0EA@V?$ReflectionAllocator@URemovedShape@Scb@physx@@@shdfnd@physx@@@shdfnd@3@@shdfnd@physx@@IEAAPEAURemovedShape@Scb@3@I@Z 0000000180056550 f i NpShapeManager.obj
 0001:00055880       ?growAndPushBack@?$Array@PEAVShape@Scb@physx@@V?$InlineAllocator@$0CA@V?$ReflectionAllocator@PEAVShape@Scb@physx@@@shdfnd@physx@@@shdfnd@3@@shdfnd@physx@@IEAAAEAPEAVShape@Scb@3@AEBQEAV453@@Z 0000000180056880 f i NpShapeManager.obj
 0001:00055980       ?growAndPushBack@?$Array@URemovedShape@Scb@physx@@V?$InlineAllocator@$0EA@V?$ReflectionAllocator@URemovedShape@Scb@physx@@@shdfnd@physx@@@shdfnd@3@@shdfnd@physx@@IEAAAEAURemovedShape@Scb@3@AEBU453@@Z 0000000180056980 f i NpShapeManager.obj
 0001:00055a50       ?onShapeAttach@RigidObject@Scb@physx@@QEAAXAEAVShape@23@@Z 0000000180056a50 f i NpShapeManager.obj
 0001:00055c30       ?onShapeDetach@RigidObject@Scb@physx@@QEAAXAEAVShape@23@_N1@Z 0000000180056c30 f i NpShapeManager.obj
 0001:000589e0       ??0NpWriteCheck@physx@@QEAA@PEAVNpScene@1@PEBD_N@Z 00000001800599e0 f   NpWriteCheck.obj
 0001:00058ae0       ??1NpWriteCheck@physx@@QEAA@XZ 0000000180059ae0 f   NpWriteCheck.obj
 0001:00058b80       ??0Offsets@Actor@Scb@physx@@QEAA@XZ 0000000180059b80 f   ScbActor.obj
 0001:00058bc0       ?addActor@Aggregate@Scb@physx@@QEAAXAEAVActor@23@@Z 0000000180059bc0 f   ScbAggregate.obj
 0001:00058d30       ?removeActor@Aggregate@Scb@physx@@QEAAXAEAVActor@23@_N@Z 0000000180059d30 f   ScbAggregate.obj
 0001:00058eb0       ??$allocArrayBuffer@PEAVActor@Scb@physx@@@Scene@Scb@physx@@AEAAPEAPEAVActor@12@AEAV?$Array@PEAVActor@Scb@physx@@V?$ReflectionAllocator@PEAVActor@Scb@physx@@@shdfnd@3@@shdfnd@2@IAEAI@Z 0000000180059eb0 f i ScbAggregate.obj
 0001:00058f00       ?destroy@Base@Scb@physx@@QEAAXXZ 0000000180059f00 f   ScbBase.obj
 0001:00058f30       ?getBinaryMetaData@Base@Scb@physx@@SAXAEAVPxOutputStream@3@@Z 0000000180059f30 f   ScbMetaData.obj
 0001:00059090       ?getBinaryMetaData@Shape@Scb@physx@@SAXAEAVPxOutputStream@3@@Z 000000018005a090 f   ScbMetaData.obj
 0001:00059170       ?getBinaryMetaData@Actor@Scb@physx@@SAXAEAVPxOutputStream@3@@Z 000000018005a170 f   ScbMetaData.obj
 0001:00059210       ?getBinaryMetaData@RigidObject@Scb@physx@@SAXAEAVPxOutputStream@3@@Z 000000018005a210 f   ScbMetaData.obj
 0001:000592b0       ?getBinaryMetaData@Body@Scb@physx@@SAXAEAVPxOutputStream@3@@Z 000000018005a2b0 f   ScbMetaData.obj
 0001:00059500       ?getBinaryMetaData@RigidStatic@Scb@physx@@SAXAEAVPxOutputStream@3@@Z 000000018005a500 f   ScbMetaData.obj
 0001:000595e0       ?getBinaryMetaData@Constraint@Scb@physx@@SAXAEAVPxOutputStream@3@@Z 000000018005a5e0 f   ScbMetaData.obj
 0001:00059780       ?getBinaryMetaData@Articulation@Scb@physx@@SAXAEAVPxOutputStream@3@@Z 000000018005a780 f   ScbMetaData.obj
 0001:00059920       ?getBinaryMetaData@ArticulationJoint@Scb@physx@@SAXAEAVPxOutputStream@3@@Z 000000018005a920 f   ScbMetaData.obj
 0001:00059a00       ?getBinaryMetaData@Aggregate@Scb@physx@@SAXAEAVPxOutputStream@3@@Z 000000018005aa00 f   ScbMetaData.obj
 0001:00059ba0       ?scheduleForInsert@ObjectTracker@Scb@physx@@QEAAXAEAVBase@23@@Z 000000018005aba0 f   ScbScene.obj
 0001:00059c20       ?scheduleForRemove@ObjectTracker@Scb@physx@@QEAAXAEAVBase@23@@Z 000000018005ac20 f   ScbScene.obj
 0001:00059ca0       ?scheduleForUpdate@ObjectTracker@Scb@physx@@QEAAXAEAVBase@23@@Z 000000018005aca0 f   ScbScene.obj
 0001:00059d00       ?clear@ObjectTracker@Scb@physx@@QEAAXXZ 000000018005ad00 f   ScbScene.obj
 0001:00059e20       ?insert@ObjectTracker@Scb@physx@@QEAAXAEAVBase@23@@Z 000000018005ae20 f   ScbScene.obj
 0001:00059e60       ?remove@ObjectTracker@Scb@physx@@QEAAXAEAVBase@23@@Z 000000018005ae60 f   ScbScene.obj
 0001:00059e80       ??0Scene@Scb@physx@@QEAA@AEBVPxSceneDesc@2@_K@Z 000000018005ae80 f   ScbScene.obj
 0001:0005a260       ?release@Scene@Scb@physx@@QEAAXXZ 000000018005b260 f   ScbScene.obj
 0001:0005a2c0       ?getPxScene@Scene@Scb@physx@@QEAAPEAVPxScene@3@XZ 000000018005b2c0 f   ScbScene.obj
 0001:0005a2d0       ?addActor@Scene@Scb@physx@@QEAAXAEAVRigidStatic@23@_NPEAVPxBounds3@3@PEBVBVHStructure@Gu@3@@Z 000000018005b2d0 f   ScbScene.obj
 0001:0005a430       ?removeActor@Scene@Scb@physx@@QEAAXAEAVRigidStatic@23@_N1@Z 000000018005b430 f   ScbScene.obj
 0001:0005a580       ?addActor@Scene@Scb@physx@@QEAAXAEAVBody@23@_NPEAVPxBounds3@3@PEBVBVHStructure@Gu@3@@Z 000000018005b580 f   ScbScene.obj
 0001:0005a780       ?removeActor@Scene@Scb@physx@@QEAAXAEAVBody@23@_N1@Z 000000018005b780 f   ScbScene.obj
 0001:0005a9f0       ?addConstraint@Scene@Scb@physx@@QEAAXAEAVConstraint@23@@Z 000000018005b9f0 f   ScbScene.obj
 0001:0005aaa0       ?removeConstraint@Scene@Scb@physx@@QEAAXAEAVConstraint@23@@Z 000000018005baa0 f   ScbScene.obj
 0001:0005aaf0       ?addArticulation@Scene@Scb@physx@@QEAAXAEAVArticulation@23@@Z 000000018005baf0 f   ScbScene.obj
 0001:0005ab70       ?removeArticulation@Scene@Scb@physx@@QEAAXAEAVArticulation@23@@Z 000000018005bb70 f   ScbScene.obj
 0001:0005abf0       ?addArticulationJoint@Scene@Scb@physx@@QEAAXAEAVArticulationJoint@23@@Z 000000018005bbf0 f   ScbScene.obj
 0001:0005ac80       ?removeArticulationJoint@Scene@Scb@physx@@QEAAXAEAVArticulationJoint@23@@Z 000000018005bc80 f   ScbScene.obj
 0001:0005acd0       ?addAggregate@Scene@Scb@physx@@QEAAXAEAVAggregate@23@@Z 000000018005bcd0 f   ScbScene.obj
 0001:0005ad30       ?removeAggregate@Scene@Scb@physx@@QEAAXAEAVAggregate@23@@Z 000000018005bd30 f   ScbScene.obj
 0001:0005ad80       ?addMaterial@Scene@Scb@physx@@QEAAXAEBVMaterialCore@Sc@3@@Z 000000018005bd80 f   ScbScene.obj
 0001:0005ae10       ?updateMaterial@Scene@Scb@physx@@QEAAXAEBVMaterialCore@Sc@3@@Z 000000018005be10 f   ScbScene.obj
 0001:0005aea0       ?removeMaterial@Scene@Scb@physx@@QEAAXAEBVMaterialCore@Sc@3@@Z 000000018005bea0 f   ScbScene.obj
 0001:0005af30       ?updateLowLevelMaterial@Scene@Scb@physx@@QEAAXPEAPEAVNpMaterial@3@@Z 000000018005bf30 f   ScbScene.obj
 0001:0005b0f0       ?getBroadPhaseType@Scene@Scb@physx@@QEBA?AW4Enum@PxBroadPhaseType@3@XZ 000000018005c0f0 f   ScbScene.obj
 0001:0005b100       ?getBroadPhaseCaps@Scene@Scb@physx@@QEBA_NAEAUPxBroadPhaseCaps@3@@Z 000000018005c100 f   ScbScene.obj
 0001:0005b110       ?getNbBroadPhaseRegions@Scene@Scb@physx@@QEBAIXZ 000000018005c110 f   ScbScene.obj
 0001:0005b120       ?getBroadPhaseRegions@Scene@Scb@physx@@QEBAIPEAUPxBroadPhaseRegionInfo@3@II@Z 000000018005c120 f   ScbScene.obj
 0001:0005b130       ?addBroadPhaseRegion@Scene@Scb@physx@@QEAAIAEBUPxBroadPhaseRegion@3@_N@Z 000000018005c130 f   ScbScene.obj
 0001:0005b190       ?removeBroadPhaseRegion@Scene@Scb@physx@@QEAA_NI@Z 000000018005c190 f   ScbScene.obj
 0001:0005b1e0       ?shiftOrigin@Scene@Scb@physx@@QEAAXAEBVPxVec3@3@@Z 000000018005c1e0 f   ScbScene.obj
 0001:0005b1f0       ?syncWriteThroughProperties@Scene@Scb@physx@@QEAAXXZ 000000018005c1f0 f   ScbScene.obj
 0001:0005b4e0       ?syncEntireScene@Scene@Scb@physx@@QEAAXXZ 000000018005c4e0 f   ScbScene.obj
 0001:0005ba80       ?processPendingRemove@Scene@Scb@physx@@QEAAXXZ 000000018005ca80 f   ScbScene.obj
 0001:0005be80       ?scheduleForUpdate@Scene@Scb@physx@@QEAAXAEAVBase@23@@Z 000000018005ce80 f   ScbScene.obj
 0001:0005bf30       ?getStream@Scene@Scb@physx@@QEAAPEAEW4Enum@ScbType@3@@Z 000000018005cf30 f   ScbScene.obj
 0001:0005c110       ?syncState@Scene@Scb@physx@@AEAAXXZ 000000018005d110 f   ScbScene.obj
 0001:0005c380       ?switchRigidToNoSim@Scene@Scb@physx@@QEAAXAEAVRigidObject@23@_N@Z 000000018005d380 f   ScbScene.obj
 0001:0005c490       ?switchRigidFromNoSim@Scene@Scb@physx@@QEAAXAEAVRigidObject@23@_N@Z 000000018005d490 f   ScbScene.obj
 0001:0005c590       ??$add@VArticulation@Scb@physx@@@Scene@Scb@physx@@AEAAXAEAVArticulation@12@AEAVObjectTracker@12@PEAVPxBounds3@2@PEBVBVHStructure@Gu@2@@Z 000000018005d590 f i ScbScene.obj
 0001:0005c5f0       ??$add@VArticulationJoint@Scb@physx@@@Scene@Scb@physx@@AEAAXAEAVArticulationJoint@12@AEAVObjectTracker@12@PEAVPxBounds3@2@PEBVBVHStructure@Gu@2@@Z 000000018005d5f0 f i ScbScene.obj
 0001:0005c670       ??$add@VBody@Scb@physx@@@Scene@Scb@physx@@AEAAXAEAVBody@12@AEAVObjectTracker@12@PEAVPxBounds3@2@PEBVBVHStructure@Gu@2@@Z 000000018005d670 f i ScbScene.obj
 0001:0005c8d0       ??$add@VConstraint@Scb@physx@@@Scene@Scb@physx@@AEAAXAEAVConstraint@12@AEAVObjectTracker@12@PEAVPxBounds3@2@PEBVBVHStructure@Gu@2@@Z 000000018005d8d0 f i ScbScene.obj
 0001:0005c980       ??$add@VRigidStatic@Scb@physx@@@Scene@Scb@physx@@AEAAXAEAVRigidStatic@12@AEAVObjectTracker@12@PEAVPxBounds3@2@PEBVBVHStructure@Gu@2@@Z 000000018005d980 f i ScbScene.obj
 0001:0005cbd0       ??$addRigidNoSim@$00VBody@Scb@physx@@@Scene@Scb@physx@@AEAAXAEAVBody@12@AEAVObjectTracker@12@PEBVBVHStructure@Gu@2@@Z 000000018005dbd0 f i ScbScene.obj
 0001:0005cd90       ??$addRigidNoSim@$0A@VRigidStatic@Scb@physx@@@Scene@Scb@physx@@AEAAXAEAVRigidStatic@12@AEAVObjectTracker@12@PEBVBVHStructure@Gu@2@@Z 000000018005dd90 f i ScbScene.obj
 0001:0005cf40       ??$pointerOffset@PEAVShape@Scb@physx@@@shdfnd@physx@@YAPEAVShape@Scb@1@PEAX_J@Z 000000018005df40 f i ScbScene.obj
 0001:0005cf50       ??$processRemoves@VArticulation@Scb@physx@@$00$0A@@Scene@Scb@physx@@AEAAXAEAVObjectTracker@12@@Z 000000018005df50 f i ScbScene.obj
 0001:0005cfd0       ??$processRemoves@VArticulationJoint@Scb@physx@@$0A@$0A@@Scene@Scb@physx@@AEAAXAEAVObjectTracker@12@@Z 000000018005dfd0 f i ScbScene.obj
 0001:0005d030       ??$processRemoves@VBody@Scb@physx@@$00$00@Scene@Scb@physx@@AEAAXAEAVObjectTracker@12@@Z 000000018005e030 f i ScbScene.obj
 0001:0005d310       ??$processRemoves@VConstraint@Scb@physx@@$00$0A@@Scene@Scb@physx@@AEAAXAEAVObjectTracker@12@@Z 000000018005e310 f i ScbScene.obj
 0001:0005d390       ??$processRemoves@VRigidStatic@Scb@physx@@$0A@$00@Scene@Scb@physx@@AEAAXAEAVObjectTracker@12@@Z 000000018005e390 f i ScbScene.obj
 0001:0005d630       ??$processShapeRemoves@VBody@Scb@physx@@@Scene@Scb@physx@@AEAAXAEAVObjectTracker@12@@Z 000000018005e630 f i ScbScene.obj
 0001:0005d7f0       ??$processShapeRemoves@VRigidStatic@Scb@physx@@@Scene@Scb@physx@@AEAAXAEAVObjectTracker@12@@Z 000000018005e7f0 f i ScbScene.obj
 0001:0005d9b0       ??$processSimUpdates@VArticulation@Scb@physx@@VArticulationCore@Sc@3@@Scene@Scb@physx@@AEAAXPEBQEAVArticulationCore@Sc@2@I@Z 000000018005e9b0 f i ScbScene.obj
 0001:0005db20       ??$processSimUpdates@VBody@Scb@physx@@VBodyCore@Sc@3@@Scene@Scb@physx@@AEAAXPEBQEAVBodyCore@Sc@2@I@Z 000000018005eb20 f i ScbScene.obj
 0001:0005db80       ??$processSimUpdates@VConstraint@Scb@physx@@VConstraintCore@Sc@3@@Scene@Scb@physx@@AEAAXPEBQEAVConstraintCore@Sc@2@I@Z 000000018005eb80 f i ScbScene.obj
 0001:0005dcc0       ??$processUserUpdates@VArticulation@Scb@physx@@@Scene@Scb@physx@@AEAAXAEAVObjectTracker@12@@Z 000000018005ecc0 f i ScbScene.obj
 0001:0005de70       ??$processUserUpdates@VArticulationJoint@Scb@physx@@@Scene@Scb@physx@@AEAAXAEAVObjectTracker@12@@Z 000000018005ee70 f i ScbScene.obj
 0001:0005df10       ??$processUserUpdates@VBody@Scb@physx@@@Scene@Scb@physx@@AEAAXAEAVObjectTracker@12@@Z 000000018005ef10 f i ScbScene.obj
 0001:0005e1d0       ??$processUserUpdates@VConstraint@Scb@physx@@@Scene@Scb@physx@@AEAAXAEAVObjectTracker@12@@Z 000000018005f1d0 f i ScbScene.obj
 0001:0005e3a0       ??$processUserUpdates@VRigidStatic@Scb@physx@@@Scene@Scb@physx@@AEAAXAEAVObjectTracker@12@@Z 000000018005f3a0 f i ScbScene.obj
 0001:0005e710       ??$remove@VArticulation@Scb@physx@@@Scene@Scb@physx@@AEAAXAEAVArticulation@12@AEAVObjectTracker@12@_N@Z 000000018005f710 f i ScbScene.obj
 0001:0005e760       ??$remove@VArticulationJoint@Scb@physx@@@Scene@Scb@physx@@AEAAXAEAVArticulationJoint@12@AEAVObjectTracker@12@_N@Z 000000018005f760 f i ScbScene.obj
 0001:0005e7a0       ??$remove@VBody@Scb@physx@@@Scene@Scb@physx@@AEAAXAEAVBody@12@AEAVObjectTracker@12@_N@Z 000000018005f7a0 f i ScbScene.obj
 0001:0005ea10       ??$remove@VRigidStatic@Scb@physx@@@Scene@Scb@physx@@AEAAXAEAVRigidStatic@12@AEAVObjectTracker@12@_N@Z 000000018005fa10 f i ScbScene.obj
 0001:0005ec80       ??$removeRigidNoSim@$00VBody@Scb@physx@@@Scene@Scb@physx@@AEAAXAEAVBody@12@AEAVObjectTracker@12@@Z 000000018005fc80 f i ScbScene.obj
 0001:0005eee0       ??$removeRigidNoSim@$0A@VRigidStatic@Scb@physx@@@Scene@Scb@physx@@AEAAXAEAVRigidStatic@12@AEAVObjectTracker@12@@Z 000000018005fee0 f i ScbScene.obj
 0001:0005f140       ??0BodyBuffer@Scb@physx@@QEAA@XZ 0000000180060140 f i ScbScene.obj
 0001:0005f1c0       ?allocate@?$Array@VMaterialEvent@Scb@physx@@V?$ReflectionAllocator@VMaterialEvent@Scb@physx@@@shdfnd@3@@shdfnd@physx@@IEAAPEAVMaterialEvent@Scb@3@I@Z 00000001800601c0 f i ScbScene.obj
 0001:0005f260       ?allocateNotThreadSafe@FlushPool@Cm@physx@@QEAAPEAXII@Z 0000000180060260 f i ScbScene.obj
 0001:0005f380       ?clearNotThreadSafe@FlushPool@Cm@physx@@QEAAXI@Z 0000000180060380 f i ScbScene.obj
 0001:0005f400       ?create@?$HashBase@PEAVBase@Scb@physx@@PEAV123@U?$Hash@PEAVBase@Scb@physx@@@shdfnd@3@UGetKey@?$HashSetBase@PEAVBase@Scb@physx@@U?$Hash@PEAVBase@Scb@physx@@@shdfnd@3@VNonTrackingAllocator@53@$00@internal@53@VNonTrackingAllocator@53@$00@internal@shdfnd@physx@@QEAAPEAPEAVBase@Scb@4@AEBQEAV564@AEA_N@Z 0000000180060400 f i ScbScene.obj
 0001:0005f5a0       ?erase@?$HashBase@PEAVBase@Scb@physx@@PEAV123@U?$Hash@PEAVBase@Scb@physx@@@shdfnd@3@UGetKey@?$HashSetBase@PEAVBase@Scb@physx@@U?$Hash@PEAVBase@Scb@physx@@@shdfnd@3@VNonTrackingAllocator@53@$00@internal@53@VNonTrackingAllocator@53@$00@internal@shdfnd@physx@@QEAA_NAEBQEAVBase@Scb@4@@Z 00000001800605a0 f i ScbScene.obj
 0001:0005f710       ?growAndPushBack@?$Array@VMaterialEvent@Scb@physx@@V?$ReflectionAllocator@VMaterialEvent@Scb@physx@@@shdfnd@3@@shdfnd@physx@@IEAAAEAVMaterialEvent@Scb@3@AEBV453@@Z 0000000180060710 f i ScbScene.obj
 0001:0005f7d0       ?recreate@?$Array@PEAVShape@Scb@physx@@V?$InlineAllocator@$0CA@V?$ReflectionAllocator@PEAVShape@Scb@physx@@@shdfnd@physx@@@shdfnd@3@@shdfnd@physx@@IEAAXI@Z 00000001800607d0 f i ScbScene.obj
 0001:0005f8a0       ?recreate@?$Array@URemovedShape@Scb@physx@@V?$InlineAllocator@$0EA@V?$ReflectionAllocator@URemovedShape@Scb@physx@@@shdfnd@physx@@@shdfnd@3@@shdfnd@physx@@IEAAXI@Z 00000001800608a0 f i ScbScene.obj
 0001:0005f950       ?recreate@?$Array@VMaterialEvent@Scb@physx@@V?$ReflectionAllocator@VMaterialEvent@Scb@physx@@@shdfnd@3@@shdfnd@physx@@IEAAXI@Z 0000000180060950 f i ScbScene.obj
 0001:0005f9f0       ?reserveInternal@?$HashBase@PEAVBase@Scb@physx@@PEAV123@U?$Hash@PEAVBase@Scb@physx@@@shdfnd@3@UGetKey@?$HashSetBase@PEAVBase@Scb@physx@@U?$Hash@PEAVBase@Scb@physx@@@shdfnd@3@VNonTrackingAllocator@53@$00@internal@53@VNonTrackingAllocator@53@$00@internal@shdfnd@physx@@AEAAXI@Z 00000001800609f0 f i ScbScene.obj
 0001:0005fbc0       ?resize@?$Array@PEAVShape@Scb@physx@@V?$InlineAllocator@$0CA@V?$ReflectionAllocator@PEAVShape@Scb@physx@@@shdfnd@physx@@@shdfnd@3@@shdfnd@physx@@QEAAXIAEBQEAVShape@Scb@3@@Z 0000000180060bc0 f i ScbScene.obj
 0001:0005fc80       ?resize@?$Array@URemovedShape@Scb@physx@@V?$InlineAllocator@$0EA@V?$ReflectionAllocator@URemovedShape@Scb@physx@@@shdfnd@physx@@@shdfnd@3@@shdfnd@physx@@QEAAXIAEBURemovedShape@Scb@3@@Z 0000000180060c80 f i ScbScene.obj
 0001:0005fd00       ?resize@?$Array@VMaterialEvent@Scb@physx@@V?$ReflectionAllocator@VMaterialEvent@Scb@physx@@@shdfnd@3@@shdfnd@physx@@QEAAXIAEBVMaterialEvent@Scb@3@@Z 0000000180060d00 f i ScbScene.obj
 0001:0005fdc0       ?resize@PxsMaterialManager@physx@@QEAAXI@Z 0000000180060dc0 f i ScbScene.obj
 0001:000600d0       ?syncCollisionWriteThroughState@Body@Scb@physx@@QEAAXXZ 00000001800610d0 f i ScbScene.obj
 0001:00060380       ?syncState@Articulation@Scb@physx@@QEAAXXZ 0000000180061380 f i ScbScene.obj
 0001:000604b0       ?syncState@ArticulationJoint@Scb@physx@@QEAAXXZ 00000001800614b0 f i ScbScene.obj
 0001:000607f0       ?syncState@Body@Scb@physx@@QEAAXXZ 00000001800617f0 f i ScbScene.obj
 0001:00060f40       ?syncState@Constraint@Scb@physx@@QEAAXXZ 0000000180061f40 f i ScbScene.obj
 0001:00061060       ?syncState@RigidObject@Scb@physx@@QEAAXXZ 0000000180062060 f i ScbScene.obj
 0001:000612c0       ?syncState@Shape@Scb@physx@@QEAAXXZ 00000001800622c0 f   ScbShape.obj
 0001:000614c0       ?setMaterialsHelper@Shape@Scb@physx@@AEAA_NPEBQEAVPxMaterial@3@G@Z 00000001800624c0 f   ScbShape.obj
 0001:00061630       PxConstructSolverBodies    0000000180062630 f   NpImmediateMode.obj
 0001:00061900       PxConstructStaticSolverBody 0000000180062900 f   NpImmediateMode.obj
 0001:00061970       PxBatchConstraints         0000000180062970 f   NpImmediateMode.obj
 0001:00061a10       PxCreateContactConstraints 0000000180062a10 f   NpImmediateMode.obj
 0001:00061c90       PxCreateJointConstraints   0000000180062c90 f   NpImmediateMode.obj
 0001:00061e30       PxCreateJointConstraintsWithShaders 0000000180062e30 f   NpImmediateMode.obj
 0001:00061e40       PxCreateJointConstraintsWithImmediateShaders 0000000180062e40 f   NpImmediateMode.obj
 0001:00061e50       PxSolveConstraints         0000000180062e50 f   NpImmediateMode.obj
 0001:000623a0       PxIntegrateSolverBodies    00000001800633a0 f   NpImmediateMode.obj
 0001:00062970       PxGenerateContacts         0000000180063970 f   NpImmediateMode.obj
 0001:00062ff0       PxRegisterImmediateArticulations 0000000180063ff0 f   NpImmediateMode.obj
 0001:00063010       PxCreateFeatherstoneArticulation 0000000180064010 f   NpImmediateMode.obj
 0001:00063090       PxReleaseArticulation      0000000180064090 f   NpImmediateMode.obj
 0001:000630d0       PxCreateArticulationCache  00000001800640d0 f   NpImmediateMode.obj
 0001:000633c0       PxCopyInternalStateToArticulationCache 00000001800643c0 f   NpImmediateMode.obj
 0001:000633f0       PxApplyArticulationCache   00000001800643f0 f   NpImmediateMode.obj
 0001:00063420       PxReleaseArticulationCache 0000000180064420 f   NpImmediateMode.obj
 0001:00063500       PxAddArticulationLink      0000000180064500 f   NpImmediateMode.obj
 0001:00063560       PxGetLinkArticulation      0000000180064560 f   NpImmediateMode.obj
 0001:00063570       PxGetLinkIndex             0000000180064570 f   NpImmediateMode.obj
 0001:00063580       PxGetLinkData              0000000180064580 f   NpImmediateMode.obj
 0001:00063640       PxGetAllLinkData           0000000180064640 f   NpImmediateMode.obj
 0001:000639a0       PxGetMutableLinkData       00000001800649a0 f   NpImmediateMode.obj
 0001:00063a30       PxSetMutableLinkData       0000000180064a30 f   NpImmediateMode.obj
 0001:00063ac0       PxGetJointData             0000000180064ac0 f   NpImmediateMode.obj
 0001:00063e80       PxSetJointData             0000000180064e80 f   NpImmediateMode.obj
 0001:00064230       PxComputeUnconstrainedVelocities 0000000180065230 f   NpImmediateMode.obj
 0001:00064310       PxUpdateArticulationBodies 0000000180065310 f   NpImmediateMode.obj
 0001:00064330       PxComputeUnconstrainedVelocitiesTGS 0000000180065330 f   NpImmediateMode.obj
 0001:00064420       PxUpdateArticulationBodiesTGS 0000000180065420 f   NpImmediateMode.obj
 0001:00064440       PxConstructSolverBodiesTGS 0000000180065440 f   NpImmediateMode.obj
 0001:00064750       PxConstructStaticSolverBodyTGS 0000000180065750 f   NpImmediateMode.obj
 0001:000647e0       PxBatchConstraintsTGS      00000001800657e0 f   NpImmediateMode.obj
 0001:00064880       PxCreateContactConstraintsTGS 0000000180065880 f   NpImmediateMode.obj
 0001:00064b20       PxCreateJointConstraintsTGS 0000000180065b20 f   NpImmediateMode.obj
 0001:00064d40       PxCreateJointConstraintsWithShadersTGS 0000000180065d40 f   NpImmediateMode.obj
 0001:00064d50       PxCreateJointConstraintsWithImmediateShadersTGS 0000000180065d50 f   NpImmediateMode.obj
 0001:00064d60       PxSolveConstraintsTGS      0000000180065d60 f   NpImmediateMode.obj
 0001:00065240       PxIntegrateSolverBodiesTGS 0000000180066240 f   NpImmediateMode.obj
 0001:00066e20       ??0ArticulationJointCore@Dy@physx@@QEAA@XZ 0000000180067e20 f i NpImmediateMode.obj
 0001:00066ea0       ??0ContactPatchData@CorrelationBuffer@Dy@physx@@QEAA@XZ 0000000180067ea0 f i NpImmediateMode.obj
 0001:00066eb0       ??0ContactPoint@Gu@physx@@QEAA@XZ 0000000180067eb0 f i NpImmediateMode.obj
 0001:00066ec0       ??0FrictionPatch@Dy@physx@@QEAA@XZ 0000000180067ec0 f i NpImmediateMode.obj
 0001:00066ed0       ??0PersistentContact@Gu@physx@@QEAA@XZ 0000000180067ed0 f i NpImmediateMode.obj
 0001:00066ee0       ??0Px1DConstraint@physx@@QEAA@XZ 0000000180067ee0 f i NpImmediateMode.obj
 0001:00066ef0       ??0PxsBodyCore@physx@@QEAA@XZ 0000000180067ef0 f i NpImmediateMode.obj
 0001:00066f10       ??0SpatialVectorF@Cm@physx@@QEAA@XZ 0000000180067f10 f i NpImmediateMode.obj
 0001:00067410       ??1SpatialVectorF@Cm@physx@@QEAA@XZ 0000000180068410 f i NpImmediateMode.obj
 0001:000674a0       ?addBody@ArticulationV@Dy@physx@@UEAAXXZ 00000001800684a0 f i NpImmediateMode.obj
 0001:00067740       ?allocate@?$Array@PEAEV?$ReflectionAllocator@PEAE@shdfnd@physx@@@shdfnd@physx@@IEAAPEAPEAEI@Z 0000000180068740 f i NpImmediateMode.obj
 0001:00067840       ?growAndPushBack@?$Array@VSpatialVector@Cm@physx@@V?$ReflectionAllocator@VSpatialVector@Cm@physx@@@shdfnd@3@@shdfnd@physx@@IEAAAEAVSpatialVector@Cm@3@AEBV453@@Z 0000000180068840 f i NpImmediateMode.obj
 0001:00067fe0       ?recreate@?$Array@PEAEV?$ReflectionAllocator@PEAE@shdfnd@physx@@@shdfnd@physx@@IEAAXI@Z 0000000180068fe0 f i NpImmediateMode.obj
 0001:00068080       ?recreate@?$Array@UArticulationLink@Dy@physx@@V?$ReflectionAllocator@UArticulationLink@Dy@physx@@@shdfnd@3@@shdfnd@physx@@IEAAXI@Z 0000000180069080 f i NpImmediateMode.obj
 0001:000681a0       ?removeBody@ArticulationV@Dy@physx@@UEAAXXZ 00000001800691a0 f i NpImmediateMode.obj
 0001:000681b0       ?willStoreStaticConstraint@FeatherstoneArticulation@Dy@physx@@UEAA_NXZ 00000001800691b0 f i NpImmediateMode.obj
 0001:000681c0       ??0PhysXIndicator@physx@@QEAA@_N@Z 00000001800691c0 f   PhysXIndicatorWindows.obj
 0001:00068360       ??1PhysXIndicator@physx@@QEAA@XZ 0000000180069360 f   PhysXIndicatorWindows.obj
 0001:000683c0       ?setIsGpu@PhysXIndicator@physx@@QEAAX_N@Z 00000001800693c0 f   PhysXIndicatorWindows.obj
 0001:00068400       __local_stdio_printf_options 0000000180069400 f i PhysXIndicatorWindows.obj
 0001:00068410       sprintf                    0000000180069410 f i PhysXIndicatorWindows.obj
 0001:00068470       PxGetSuggestedCudaDeviceOrdinal 0000000180069470 f   PxGpu.obj
 0001:000684c0       PxCreateCudaContextManager 00000001800694c0 f   PxGpu.obj
 0001:00068530       PxCreateCudaClientContextManager 0000000180069530 f   PxGpu.obj
 0001:00068580       PxSetPhysXGpuLoadHook      0000000180069580 f   PxPhysXGpuModuleLoader.obj
 0001:000685a0       ?PxLoadPhysxGPUModule@physx@@YAXPEBD@Z 00000001800695a0 f   PxPhysXGpuModuleLoader.obj
 0001:00068700       PxSetPhysXDelayLoadHook    0000000180069700 f   NpWindowsDelayLoadHook.obj
 0001:00068710       ?physxDelayHook@@YAP6A_JXZIPEAUDelayLoadInfo@@@Z 0000000180069710 f   NpWindowsDelayLoadHook.obj
 0001:00068ac0       ?PxvRegisterHeightFields@physx@@YAXXZ 0000000180069ac0 f   LowLevel_static_64:PxcContactMethodImpl.obj
 0001:00068b40       ??0PxsContext@physx@@QEAA@AEBVPxSceneDesc@1@PEAVPxTaskManager@1@AEAVFlushPool@Cm@1@PEAVPxCudaContextManager@1@_K@Z 0000000180069b40 f   LowLevel_static_64:PxsContext.obj
 0001:00069040       ??1PxsContext@physx@@QEAA@XZ 000000018006a040 f   LowLevel_static_64:PxsContext.obj
 0001:00069270       ?createTransformCache@PxsContext@physx@@QEAAXAEAVVirtualAllocatorCallback@shdfnd@2@@Z 000000018006a270 f   LowLevel_static_64:PxsContext.obj
 0001:000692f0       ?createContactManager@PxsContext@physx@@QEAAPEAVPxsContactManager@2@PEAV32@_N@Z 000000018006a2f0 f   LowLevel_static_64:PxsContext.obj
 0001:00069450       ?createCache@PxsContext@physx@@QEAAXAEAUCache@Gu@2@PEAVPxsContactManager@2@EE@Z 000000018006a450 f   LowLevel_static_64:PxsContext.obj
 0001:000696f0       ?destroyCache@PxsContext@physx@@QEAAXAEAUCache@Gu@2@@Z 000000018006a6f0 f   LowLevel_static_64:PxsContext.obj
 0001:00069760       ?destroyContactManager@PxsContext@physx@@QEAAXPEAVPxsContactManager@2@@Z 000000018006a760 f   LowLevel_static_64:PxsContext.obj
 0001:000698a0       ?setScratchBlock@PxsContext@physx@@QEAAXPEAXI@Z 000000018006a8a0 f   LowLevel_static_64:PxsContext.obj
 0001:00069900       ?setContactDistance@PxsContext@physx@@QEAAXPEAV?$Array@MVVirtualAllocator@shdfnd@physx@@@shdfnd@2@@Z 000000018006a900 f   LowLevel_static_64:PxsContext.obj
 0001:00069910       ?updateContactManager@PxsContext@physx@@QEAAXM_N0PEAVPxBaseTask@2@1@Z 000000018006a910 f   LowLevel_static_64:PxsContext.obj
 0001:00069930       ?secondPassUpdateContactManager@PxsContext@physx@@QEAAXMPEAVPxBaseTask@2@@Z 000000018006a930 f   LowLevel_static_64:PxsContext.obj
 0001:00069950       ?fetchUpdateContactManager@PxsContext@physx@@QEAAXXZ 000000018006a950 f   LowLevel_static_64:PxsContext.obj
 0001:00069980       ?swapStreams@PxsContext@physx@@QEAAXXZ 000000018006a980 f   LowLevel_static_64:PxsContext.obj
 0001:00069990       ?resetThreadContexts@PxsContext@physx@@QEAAXXZ 000000018006a990 f   LowLevel_static_64:PxsContext.obj
 0001:00069a20       ?getManagerTouchEventCount@PxsContext@physx@@QEBA_NPEAH00@Z 000000018006aa20 f   LowLevel_static_64:PxsContext.obj
 0001:00069a60       ?fillManagerTouchEvents@PxsContext@physx@@QEAA_NPEAUPxvContactManagerTouchEvent@2@AEAH0101@Z 000000018006aa60 f   LowLevel_static_64:PxsContext.obj
 0001:00069be0       ?fillManagerPatchChangedEvents@PxsContext@physx@@QEAA_NPEAPEAVPxsContactManager@2@AEAI01@Z 000000018006abe0 f   LowLevel_static_64:PxsContext.obj
 0001:00069d50       ?beginUpdate@PxsContext@physx@@QEAAXXZ 000000018006ad50 f   LowLevel_static_64:PxsContext.obj
 0001:00069d70       ?getVisualizationParameter@PxsContext@physx@@QEBAMW4Enum@PxVisualizationParameter@2@@Z 000000018006ad70 f   LowLevel_static_64:PxsContext.obj
 0001:00069d90       ?setVisualizationParameter@PxsContext@physx@@QEAAXW4Enum@PxVisualizationParameter@2@M@Z 000000018006ad90 f   LowLevel_static_64:PxsContext.obj
 0001:00069db0       ?shiftOrigin@PxsContext@physx@@QEAAXAEBVPxVec3@2@@Z 000000018006adb0 f   LowLevel_static_64:PxsContext.obj
 0001:00069f10       ?setCreateContactStream@PxsContext@physx@@QEAAX_N@Z 000000018006af10 f   LowLevel_static_64:PxsContext.obj
 0001:00069f90       ?mergeCMDiscreteUpdateResults@PxsContext@physx@@AEAAXPEAVPxBaseTask@2@@Z 000000018006af90 f   LowLevel_static_64:PxsContext.obj
 0001:0006a390       ??$sort@PEAXU?$Less@PEAX@shdfnd@physx@@V?$ReflectionAllocator@VLargePersistentContactManifold@Gu@physx@@@23@@shdfnd@physx@@YAXPEAPEAXIAEBU?$Less@PEAX@01@AEBV?$ReflectionAllocator@VLargePersistentContactManifold@Gu@physx@@@01@I@Z 000000018006b390 f i LowLevel_static_64:PxsContext.obj
 0001:0006a750       ??$sort@PEAXU?$Less@PEAX@shdfnd@physx@@V?$ReflectionAllocator@VSpherePersistentContactManifold@Gu@physx@@@23@@shdfnd@physx@@YAXPEAPEAXIAEBU?$Less@PEAX@01@AEBV?$ReflectionAllocator@VSpherePersistentContactManifold@Gu@physx@@@01@I@Z 000000018006b750 f i LowLevel_static_64:PxsContext.obj
 0001:0006ab10       ??1?$Array@PEAXV?$InlineAllocator@$0CAA@V?$ReflectionAllocator@VLargePersistentContactManifold@Gu@physx@@@shdfnd@physx@@@shdfnd@physx@@@shdfnd@physx@@QEAA@XZ 000000018006bb10 f i LowLevel_static_64:PxsContext.obj
 0001:0006ab80       ??1?$Array@PEAXV?$InlineAllocator@$0CAA@V?$ReflectionAllocator@VSpherePersistentContactManifold@Gu@physx@@@shdfnd@physx@@@shdfnd@physx@@@shdfnd@physx@@QEAA@XZ 000000018006bb80 f i LowLevel_static_64:PxsContext.obj
 0001:0006abf0       ??1?$PoolBase@VLargePersistentContactManifold@Gu@physx@@V?$ReflectionAllocator@VLargePersistentContactManifold@Gu@physx@@@shdfnd@3@@shdfnd@physx@@QEAA@XZ 000000018006bbf0 f i LowLevel_static_64:PxsContext.obj
 0001:0006ad50       ??1?$PoolBase@VSpherePersistentContactManifold@Gu@physx@@V?$ReflectionAllocator@VSpherePersistentContactManifold@Gu@physx@@@shdfnd@3@@shdfnd@physx@@QEAA@XZ 000000018006bd50 f i LowLevel_static_64:PxsContext.obj
 0001:0006aeb0       ??1?$PxcThreadCoherentCache@VPxcNpThreadContext@physx@@UPxcNpContext@2@@physx@@QEAA@XZ 000000018006beb0 f i LowLevel_static_64:PxsContext.obj
 0001:0006af40       ??1PxcScratchAllocator@physx@@QEAA@XZ 000000018006bf40 f i LowLevel_static_64:PxsContext.obj
 0001:0006afb0       ?allocate@?$ReflectionAllocator@VLargePersistentContactManifold@Gu@physx@@@shdfnd@physx@@QEAAPEAX_KPEBDH@Z 000000018006bfb0 f i LowLevel_static_64:PxsContext.obj
 0001:0006b050       ?allocate@?$ReflectionAllocator@VPxsContactManager@physx@@@shdfnd@physx@@QEAAPEAX_KPEBDH@Z 000000018006c050 f i LowLevel_static_64:PxsContext.obj
 0001:0006b0f0       ?allocate@?$ReflectionAllocator@VSpherePersistentContactManifold@Gu@physx@@@shdfnd@physx@@QEAAPEAX_KPEBDH@Z 000000018006c0f0 f i LowLevel_static_64:PxsContext.obj
 0001:0006b190       ?destroy@?$PoolList@VPxsContactManager@physx@@VPxsContext@2@@Cm@physx@@QEAAXXZ 000000018006c190 f i LowLevel_static_64:PxsContext.obj
 0001:0006b2a0       ?extend@?$BitMapBase@VNonTrackingAllocator@shdfnd@physx@@@Cm@physx@@IEAAXI@Z 000000018006c2a0 f i LowLevel_static_64:PxsContext.obj
 0001:0006b380       ?extend@?$PoolList@VPxsContactManager@physx@@VPxsContext@2@@Cm@physx@@QEAA_NXZ 000000018006c380 f i LowLevel_static_64:PxsContext.obj
 0001:0006b500       ?growAndPushBack@?$Array@PEAXV?$InlineAllocator@$0CAA@V?$ReflectionAllocator@VLargePersistentContactManifold@Gu@physx@@@shdfnd@physx@@@shdfnd@physx@@@shdfnd@physx@@IEAAAEAPEAXAEBQEAX@Z 000000018006c500 f i LowLevel_static_64:PxsContext.obj
 0001:0006b620       ?growAndPushBack@?$Array@PEAXV?$InlineAllocator@$0CAA@V?$ReflectionAllocator@VSpherePersistentContactManifold@Gu@physx@@@shdfnd@physx@@@shdfnd@physx@@@shdfnd@physx@@IEAAAEAPEAXAEBQEAX@Z 000000018006c620 f i LowLevel_static_64:PxsContext.obj
 0001:0006b740       ?growAndPushBack@?$Array@PEAXV?$ReflectionAllocator@VLargePersistentContactManifold@Gu@physx@@@shdfnd@physx@@@shdfnd@physx@@IEAAAEAPEAXAEBQEAX@Z 000000018006c740 f i LowLevel_static_64:PxsContext.obj
 0001:0006b820       ?growAndPushBack@?$Array@PEAXV?$ReflectionAllocator@VSpherePersistentContactManifold@Gu@physx@@@shdfnd@physx@@@shdfnd@physx@@IEAAAEAPEAXAEBQEAX@Z 000000018006c820 f i LowLevel_static_64:PxsContext.obj
 0001:0006b900       ??0PxcNpMemBlockPool@physx@@QEAA@AEAVPxcScratchAllocator@1@@Z 000000018006c900 f   LowLevel_static_64:PxcNpMemBlockPool.obj
 0001:0006ba60       ??1PxcNpMemBlockPool@physx@@QEAA@XZ 000000018006ca60 f   LowLevel_static_64:PxcNpMemBlockPool.obj
 0001:0006bda0       ?init@PxcNpMemBlockPool@physx@@QEAAXII@Z 000000018006cda0 f   LowLevel_static_64:PxcNpMemBlockPool.obj
 0001:0006bf20       ?setBlockCount@PxcNpMemBlockPool@physx@@QEAAXI@Z 000000018006cf20 f   LowLevel_static_64:PxcNpMemBlockPool.obj
 0001:0006bfe0       ?getUsedBlockCount@PxcNpMemBlockPool@physx@@QEBAIXZ 000000018006cfe0 f   LowLevel_static_64:PxcNpMemBlockPool.obj
 0001:0006bff0       ?getMaxUsedBlockCount@PxcNpMemBlockPool@physx@@QEBAIXZ 000000018006cff0 f   LowLevel_static_64:PxcNpMemBlockPool.obj
 0001:0006c000       ?getPeakConstraintBlockCount@PxcNpMemBlockPool@physx@@QEBAIXZ 000000018006d000 f   LowLevel_static_64:PxcNpMemBlockPool.obj
 0001:0006c010       ?releaseUnusedBlocks@PxcNpMemBlockPool@physx@@QEAAXXZ 000000018006d010 f   LowLevel_static_64:PxcNpMemBlockPool.obj
 0001:0006c090       ?acquireConstraintBlock@PxcNpMemBlockPool@physx@@QEAAPEAUPxcNpMemBlock@2@XZ 000000018006d090 f   LowLevel_static_64:PxcNpMemBlockPool.obj
 0001:0006c0c0       ?acquireConstraintBlock@PxcNpMemBlockPool@physx@@QEAAPEAUPxcNpMemBlock@2@AEAV?$Array@PEAUPxcNpMemBlock@physx@@V?$ReflectionAllocator@PEAUPxcNpMemBlock@physx@@@shdfnd@2@@shdfnd@2@@Z 000000018006d0c0 f   LowLevel_static_64:PxcNpMemBlockPool.obj
 0001:0006c0f0       ?acquireContactBlock@PxcNpMemBlockPool@physx@@QEAAPEAUPxcNpMemBlock@2@XZ 000000018006d0f0 f   LowLevel_static_64:PxcNpMemBlockPool.obj
 0001:0006c120       ?acquireFrictionBlock@PxcNpMemBlockPool@physx@@QEAAPEAUPxcNpMemBlock@2@XZ 000000018006d120 f   LowLevel_static_64:PxcNpMemBlockPool.obj
 0001:0006c150       ?acquireNpCacheBlock@PxcNpMemBlockPool@physx@@QEAAPEAUPxcNpMemBlock@2@XZ 000000018006d150 f   LowLevel_static_64:PxcNpMemBlockPool.obj
 0001:0006c180       ?acquireExceptionalConstraintMemory@PxcNpMemBlockPool@physx@@QEAAPEAEI@Z 000000018006d180 f   LowLevel_static_64:PxcNpMemBlockPool.obj
 0001:0006c230       ?acquireConstraintMemory@PxcNpMemBlockPool@physx@@QEAAXXZ 000000018006d230 f   LowLevel_static_64:PxcNpMemBlockPool.obj
 0001:0006c320       ?releaseConstraintMemory@PxcNpMemBlockPool@physx@@QEAAXXZ 000000018006d320 f   LowLevel_static_64:PxcNpMemBlockPool.obj
 0001:0006c520       ?releaseConstraintBlocks@PxcNpMemBlockPool@physx@@QEAAXAEAV?$Array@PEAUPxcNpMemBlock@physx@@V?$ReflectionAllocator@PEAUPxcNpMemBlock@physx@@@shdfnd@2@@shdfnd@2@@Z 000000018006d520 f   LowLevel_static_64:PxcNpMemBlockPool.obj
 0001:0006c610       ?releaseContacts@PxcNpMemBlockPool@physx@@QEAAXXZ 000000018006d610 f   LowLevel_static_64:PxcNpMemBlockPool.obj
 0001:0006c660       ?swapFrictionStreams@PxcNpMemBlockPool@physx@@QEAAXXZ 000000018006d660 f   LowLevel_static_64:PxcNpMemBlockPool.obj
 0001:0006c6b0       ?swapNpCacheStreams@PxcNpMemBlockPool@physx@@QEAAXXZ 000000018006d6b0 f   LowLevel_static_64:PxcNpMemBlockPool.obj
 0001:0006c700       ?flushUnused@PxcNpMemBlockPool@physx@@QEAAXXZ 000000018006d700 f   LowLevel_static_64:PxcNpMemBlockPool.obj
 0001:0006c770       ?acquire@PxcNpMemBlockPool@physx@@AEAAPEAUPxcNpMemBlock@2@AEAV?$Array@PEAUPxcNpMemBlock@physx@@V?$ReflectionAllocator@PEAUPxcNpMemBlock@physx@@@shdfnd@2@@shdfnd@2@PEAI1_N@Z 000000018006d770 f   LowLevel_static_64:PxcNpMemBlockPool.obj
 0001:0006c930       ?release@PxcNpMemBlockPool@physx@@AEAAXAEAV?$Array@PEAUPxcNpMemBlock@physx@@V?$ReflectionAllocator@PEAUPxcNpMemBlock@physx@@@shdfnd@2@@shdfnd@2@PEAI@Z 000000018006d930 f   LowLevel_static_64:PxcNpMemBlockPool.obj
 0001:0006c9e0       ??1?$Array@PEAUPxcNpMemBlock@physx@@V?$ReflectionAllocator@PEAUPxcNpMemBlock@physx@@@shdfnd@2@@shdfnd@physx@@QEAA@XZ 000000018006d9e0 f i LowLevel_static_64:PxcNpMemBlockPool.obj
 0001:0006ca30       ??_F?$Array@PEAUPxcNpMemBlock@physx@@V?$ReflectionAllocator@PEAUPxcNpMemBlock@physx@@@shdfnd@2@@shdfnd@physx@@QEAAXXZ 000000018006da30 f i LowLevel_static_64:PxcNpMemBlockPool.obj
 0001:0006ca40       ?allocate@?$Array@PEAUPxcNpMemBlock@physx@@V?$ReflectionAllocator@PEAUPxcNpMemBlock@physx@@@shdfnd@2@@shdfnd@physx@@IEAAPEAPEAUPxcNpMemBlock@3@I@Z 000000018006da40 f i LowLevel_static_64:PxcNpMemBlockPool.obj
 0001:0006cae0       ?growAndPushBack@?$Array@PEAUPxcNpMemBlock@physx@@V?$ReflectionAllocator@PEAUPxcNpMemBlock@physx@@@shdfnd@2@@shdfnd@physx@@IEAAAEAPEAUPxcNpMemBlock@3@AEBQEAU43@@Z 000000018006dae0 f i LowLevel_static_64:PxcNpMemBlockPool.obj
 0001:0006cba0       ?recreate@?$Array@PEAUPxcNpMemBlock@physx@@V?$ReflectionAllocator@PEAUPxcNpMemBlock@physx@@@shdfnd@2@@shdfnd@physx@@IEAAXI@Z 000000018006dba0 f i LowLevel_static_64:PxcNpMemBlockPool.obj
 0001:0006cc40       ?resize@?$Array@PEAUPxcNpMemBlock@physx@@V?$ReflectionAllocator@PEAUPxcNpMemBlock@physx@@@shdfnd@2@@shdfnd@physx@@QEAAXIAEBQEAUPxcNpMemBlock@3@@Z 000000018006dc40 f i LowLevel_static_64:PxcNpMemBlockPool.obj
 0001:0006cd00       ??0PxcNpThreadContext@physx@@QEAA@PEAUPxcNpContext@1@@Z 000000018006dd00 f   LowLevel_static_64:PxcNpThreadContext.obj
 0001:0006ce60       ??1PxcNpThreadContext@physx@@QEAA@XZ 000000018006de60 f   LowLevel_static_64:PxcNpThreadContext.obj
 0001:0006cf20       ?clearStats@PxcNpThreadContext@physx@@QEAAXXZ 000000018006df20 f   LowLevel_static_64:PxcNpThreadContext.obj
 0001:0006cf60       ?reset@PxcNpThreadContext@physx@@QEAAXI@Z 000000018006df60 f   LowLevel_static_64:PxcNpThreadContext.obj
 0001:0006d010       ?resize@?$BitMapBase@VNonTrackingAllocator@shdfnd@physx@@@Cm@physx@@QEAAXI_N@Z 000000018006e010 f i LowLevel_static_64:PxcNpThreadContext.obj
 0001:0006d0f0       ??0PxsContactManager@physx@@QEAA@PEAVPxsContext@1@I@Z 000000018006e0f0 f   LowLevel_static_64:PxsContactManager.obj
 0001:0006d120       ??1PxsContactManager@physx@@QEAA@XZ 000000018006e120 f   LowLevel_static_64:PxsContactManager.obj
 0001:0006d130       ?setCCD@PxsContactManager@physx@@QEAAX_N@Z 000000018006e130 f   LowLevel_static_64:PxsContactManager.obj
 0001:0006d160       ?resetCachedState@PxsContactManager@physx@@QEAAXXZ 000000018006e160 f   LowLevel_static_64:PxsContactManager.obj
 0001:0006d180       ?resetFrictionCachedState@PxsContactManager@physx@@QEAAXXZ 000000018006e180 f   LowLevel_static_64:PxsContactManager.obj
 0001:0006d190       ??0PxcNpCacheStreamPair@physx@@QEAA@AEAVPxcNpMemBlockPool@1@@Z 000000018006e190 f   LowLevel_static_64:PxcNpCacheStreamPair.obj
 0001:0006d1b0       ?reserve@PxcNpCacheStreamPair@physx@@QEAAPEAEI@Z 000000018006e1b0 f   LowLevel_static_64:PxcNpCacheStreamPair.obj
 0001:0006d250       ?reset@PxcNpCacheStreamPair@physx@@QEAAXXZ 000000018006e250 f   LowLevel_static_64:PxcNpCacheStreamPair.obj
 0001:0006d260       ?resize@ArticulationV@Dy@physx@@UEAA_NI@Z 000000018006e260 f   LowLevelDynamics_static_64:DyArticulation.obj
 0001:0006d2a0       ??0Articulation@Dy@physx@@QEAA@PEAX@Z 000000018006e2a0 f   LowLevelDynamics_static_64:DyArticulation.obj
 0001:0006d350       ??1Articulation@Dy@physx@@UEAA@XZ 000000018006e350 f   LowLevelDynamics_static_64:DyArticulation.obj
 0001:0006d510       ?resize@Articulation@Dy@physx@@UEAA_NI@Z 000000018006e510 f   LowLevelDynamics_static_64:DyArticulation.obj
 0001:0006d760       ?getDataSizes@Articulation@Dy@physx@@UEAAXIAEAI00@Z 000000018006e760 f   LowLevelDynamics_static_64:DyArticulation.obj
 0001:0006d7a0       ?getImpulseResponse@Articulation@Dy@physx@@UEBAXIPEAUSpatialVectorF@Cm@3@AEBVSpatialVector@53@AEAV653@@Z 000000018006e7a0 f   LowLevelDynamics_static_64:DyArticulation.obj
 0001:0006d7c0       ?getImpulseResponse@Articulation@Dy@physx@@UEBAXIPEAUSpatialVectorV@Cm@3@AEBU453@AEAU453@@Z 000000018006e7c0 f   LowLevelDynamics_static_64:DyArticulation.obj
 0001:0006d7e0       ?getImpulseSelfResponse@Articulation@Dy@physx@@UEBAXIIPEAUSpatialVectorF@Cm@3@AEBVSpatialVector@53@1AEAV653@2@Z 000000018006e7e0 f   LowLevelDynamics_static_64:DyArticulation.obj
 0001:0006d830       ?getLinkVelocity@Articulation@Dy@physx@@UEBA?AUSpatialVectorV@Cm@3@I@Z 000000018006e830 f   LowLevelDynamics_static_64:DyArticulation.obj
 0001:0006d860       ?getLinkMotionVector@Articulation@Dy@physx@@UEBA?AUSpatialVectorV@Cm@3@I@Z 000000018006e860 f   LowLevelDynamics_static_64:DyArticulation.obj
 0001:0006d8a0       ?getMotionVelocity@Articulation@Dy@physx@@UEBA?AVSpatialVector@Cm@3@I@Z 000000018006e8a0 f   LowLevelDynamics_static_64:DyArticulation.obj
 0001:0006d900       ?getMotionAcceleration@Articulation@Dy@physx@@UEBA?AVSpatialVector@Cm@3@I@Z 000000018006e900 f   LowLevelDynamics_static_64:DyArticulation.obj
 0001:0006d920       ?fillIndexedManager@Articulation@Dy@physx@@UEAAXIAEA_KAEAE@Z 000000018006e920 f   LowLevelDynamics_static_64:DyArticulation.obj
 0001:0006d940       ?getLinkMaxPenBias@Articulation@Dy@physx@@UEBAMI@Z 000000018006e940 f   LowLevelDynamics_static_64:DyArticulation.obj
 0001:0006d980       ?computeUnconstrainedVelocities@Articulation@Dy@physx@@SAIAEBUArticulationSolverDesc@23@MAEAVPxConstraintAllocator@3@PEAUPxSolverConstraintDesc@3@AEAIAEBVPxVec3@3@_KPEAUSpatialVectorF@Cm@3@6@Z 000000018006e980 f   LowLevelDynamics_static_64:DyArticulation.obj
 0001:0006da70       ?computeUnconstrainedVelocitiesTGS@Articulation@Dy@physx@@SAXAEBUArticulationSolverDesc@23@MAEBVPxVec3@3@_KPEAUSpatialVectorF@Cm@3@3@Z 000000018006ea70 f   LowLevelDynamics_static_64:DyArticulation.obj
 0001:0006dae0       ?saveVelocity@Articulation@Dy@physx@@SAXAEBUArticulationSolverDesc@23@PEAUSpatialVectorF@Cm@3@@Z 000000018006eae0 f   LowLevelDynamics_static_64:DyArticulation.obj
 0001:0006dc70       ?saveVelocityTGS@Articulation@Dy@physx@@SAXAEBUArticulationSolverDesc@23@M@Z 000000018006ec70 f   LowLevelDynamics_static_64:DyArticulation.obj
 0001:0006de30       ?updateBodies@Articulation@Dy@physx@@SAXAEBUArticulationSolverDesc@23@M@Z 000000018006ee30 f   LowLevelDynamics_static_64:DyArticulation.obj
 0001:0006f020       ?recordDeltaMotion@Articulation@Dy@physx@@SAXAEBUArticulationSolverDesc@23@MPEAUSpatialVectorF@Cm@3@@Z 0000000180070020 f   LowLevelDynamics_static_64:DyArticulation.obj
 0001:0006f310       ?deltaMotionToMotionVelocity@Articulation@Dy@physx@@SAXAEBUArticulationSolverDesc@23@M@Z 0000000180070310 f   LowLevelDynamics_static_64:DyArticulation.obj
 0001:0006f3a0       ?pxcFsApplyImpulse@Articulation@Dy@physx@@UEAAXIT__m128@@0PEAUSpatialVectorF@Cm@3@1@Z 00000001800703a0 f   LowLevelDynamics_static_64:DyArticulation.obj
 0001:0006f520       ?pxcFsApplyImpulses@Articulation@Dy@physx@@UEAAXIAEBT__m128@@0I00PEAUSpatialVectorF@Cm@3@1@Z 0000000180070520 f   LowLevelDynamics_static_64:DyArticulation.obj
 0001:0006f5d0       ?solveInternalConstraints@Articulation@Dy@physx@@UEAAXMMPEAUSpatialVectorF@Cm@3@0_N1M@Z 00000001800705d0 f   LowLevelDynamics_static_64:DyArticulation.obj
 0001:0006f5e0       ?pxcFsGetVelocity@Articulation@Dy@physx@@UEAA?AUSpatialVectorV@Cm@3@I@Z 00000001800705e0 f   LowLevelDynamics_static_64:DyArticulation.obj
 0001:0006fb30       ?pxcFsGetVelocities@Articulation@Dy@physx@@UEAAXIIAEAUSpatialVectorV@Cm@3@0@Z 0000000180070b30 f   LowLevelDynamics_static_64:DyArticulation.obj
 0001:0006fbb0       ?prepareDataBlock@Articulation@Dy@physx@@SAXAEAUFsData@23@PEBUArticulationLink@23@GPEAVPxTransform@3@PEAVPxQuat@3@PEAUFsInertia@23@PEAUArticulationJointTransforms@23@I@Z 0000000180070bb0 f   LowLevelDynamics_static_64:DyArticulation.obj
 0001:00070300       ?prepareFsData@Articulation@Dy@physx@@SAXAEAUFsData@23@PEBUArticulationLink@23@@Z 0000000180071300 f   LowLevelDynamics_static_64:DyArticulation.obj
 0001:000704b0       ?getResistance@Articulation@Dy@physx@@SAMM@Z 00000001800714b0 f   LowLevelDynamics_static_64:DyArticulation.obj
 0001:000704d0       ?getFsDataSize@Articulation@Dy@physx@@SAII@Z 00000001800714d0 f   LowLevelDynamics_static_64:DyArticulation.obj
 0001:000704f0       ?getLtbDataSize@Articulation@Dy@physx@@SAII@Z 00000001800714f0 f   LowLevelDynamics_static_64:DyArticulation.obj
 0001:00070500       ?setInertia@Articulation@Dy@physx@@SAXAEAUFsInertia@23@AEBUPxsBodyCore@3@AEBVPxTransform@3@@Z 0000000180071500 f   LowLevelDynamics_static_64:DyArticulation.obj
 0001:000708c0       ?setJointTransforms@Articulation@Dy@physx@@SAXAEAUArticulationJointTransforms@23@AEBVPxTransform@3@1AEBUArticulationJointCore@23@@Z 00000001800718c0 f   LowLevelDynamics_static_64:DyArticulation.obj
 0001:00070e00       ?applyImpulses@Articulation@Dy@physx@@SAXAEBUFsData@23@PEAUSpatialVectorV@Cm@3@1@Z 0000000180071e00 f   LowLevelDynamics_static_64:DyArticulation.obj
 0001:00071310       ?computeUnconstrainedVelocitiesInternal@Articulation@Dy@physx@@AEAAXAEBUArticulationSolverDesc@23@MAEBVPxVec3@3@_KPEIAUFsInertia@23@PEIAUArticulationJointTransforms@23@AEAUPxcFsScratchAllocator@23@@Z 0000000180072310 f   LowLevelDynamics_static_64:DyArticulation.obj
 0001:00071bc0       ?prepareLtbMatrix@Articulation@Dy@physx@@AEAAXAEAUFsData@23@PEBUFsInertia@23@PEBVPxTransform@3@PEBUArticulationJointTransforms@23@M@Z 0000000180072bc0 f   LowLevelDynamics_static_64:DyArticulation.obj
 0001:00072060       ?computeJointDrives@Articulation@Dy@physx@@AEAAXAEAUFsData@23@PEAT__m128@@PEBUArticulationLink@23@PEBVPxTransform@3@PEBUArticulationJointTransforms@23@PEBUMat33V@aos@shdfnd@3@M@Z 0000000180073060 f   LowLevelDynamics_static_64:DyArticulation.obj
 0001:00072680       ?initialize@PxvArticulationDriveCache@Dy@physx@@SAXAEAUFsData@23@GPEBUArticulationLink@23@MIPEADI@Z 0000000180073680 f   LowLevelDynamics_static_64:DyArticulation.obj
 0001:000728c0       ?getLinkCount@PxvArticulationDriveCache@Dy@physx@@SAIAEBUFsData@23@@Z 00000001800738c0 f   LowLevelDynamics_static_64:DyArticulation.obj
 0001:000728d0       ?applyImpulses@PxvArticulationDriveCache@Dy@physx@@SAXAEBUFsData@23@PEAUSpatialVectorV@Cm@3@1@Z 00000001800738d0 f   LowLevelDynamics_static_64:DyArticulation.obj
 0001:000728e0       ?getImpulseResponse@PxvArticulationDriveCache@Dy@physx@@SAXAEBUFsData@23@IAEBUSpatialVectorV@Cm@3@AEAU563@@Z 00000001800738e0 f   LowLevelDynamics_static_64:DyArticulation.obj
 0001:000728f0       ?PxvRegisterArticulations@Dy@physx@@YAXXZ 00000001800738f0 f   LowLevelDynamics_static_64:DyArticulation.obj
 0001:00072980       ?PxcLtbFactor@Dy@physx@@YAXAEAUFsData@12@@Z 0000000180073980 f   LowLevelDynamics_static_64:DyArticulation.obj
 0001:00073a80       ?PxcLtbComputeJv@Dy@physx@@YAXPEAT__m128@@AEBUFsData@12@PEBUSpatialVectorV@Cm@2@@Z 0000000180074a80 f   LowLevelDynamics_static_64:DyArticulation.obj
 0001:00073b40       ?PxcLtbSolve@Dy@physx@@YAXAEBUFsData@12@PEAT__m128@@PEAUSpatialVectorV@Cm@2@@Z 0000000180074b40 f   LowLevelDynamics_static_64:DyArticulation.obj
 0001:00074100       ?PxcLtbProject@Dy@physx@@YAXAEBUFsData@12@PEAUSpatialVectorV@Cm@2@PEAT__m128@@@Z 0000000180075100 f   LowLevelDynamics_static_64:DyArticulation.obj
 0001:00074180       ?PxcFsComputeJointLoadsSimd@Dy@physx@@YAXAEBUFsData@12@PEIBUFsInertia@12@PEIAUMat33V@aos@shdfnd@2@PEIBMIIUPxcFsScratchAllocator@12@@Z 0000000180075180 f   LowLevelDynamics_static_64:DyArticulation.obj
 0001:000761d0       ?PxcFsPropagateDrivenInertiaSimd@Dy@physx@@YAXAEAUFsData@12@PEBUFsInertia@12@PEBMPEBUMat33V@aos@shdfnd@2@UPxcFsScratchAllocator@12@@Z 00000001800771d0 f   LowLevelDynamics_static_64:DyArticulation.obj
 0001:000771f0       ?PxcFsApplyJointDrives@Dy@physx@@YAXAEAUFsData@12@PEBT__m128@@@Z 00000001800781f0 f   LowLevelDynamics_static_64:DyArticulation.obj
 0001:000776e0       ??0SpatialVectorV@Cm@physx@@QEAA@XZ 00000001800786e0 f i LowLevelDynamics_static_64:DyArticulation.obj
 0001:000776f0       ??1ArticulationV@Dy@physx@@UEAA@XZ 00000001800786f0 f i LowLevelDynamics_static_64:DyArticulation.obj
 0001:00077750       ??1SpatialVector@Cm@physx@@QEAA@XZ 0000000180078750 f i LowLevelDynamics_static_64:DyArticulation.obj
 0001:00077760       ??_GArticulation@Dy@physx@@UEAAPEAXI@Z 0000000180078760 f i LowLevelDynamics_static_64:DyArticulation.obj
 0001:00077760       ??_EArticulation@Dy@physx@@UEAAPEAXI@Z 0000000180078760 f i LowLevelDynamics_static_64:DyArticulation.obj
 0001:000777a0       ??_GArticulationV@Dy@physx@@UEAAPEAXI@Z 00000001800787a0 f i LowLevelDynamics_static_64:DyArticulation.obj
 0001:000777a0       ??_EArticulationV@Dy@physx@@UEAAPEAXI@Z 00000001800787a0 f i LowLevelDynamics_static_64:DyArticulation.obj
 0001:00077820       ?applyCache@ArticulationV@Dy@physx@@UEAA_NAEAVPxArticulationCache@3@V?$PxFlags@W4Enum@PxArticulationCache@physx@@E@3@@Z 0000000180078820 f i LowLevelDynamics_static_64:DyArticulation.obj
 0001:00077830       ?computeSIS@ArticulationFnsSimdBase@Dy@physx@@SA?AUMat33V@aos@shdfnd@3@AEBUFsInertia@23@QEBUSpatialVectorV@Cm@3@QEAU893@@Z 0000000180078830 f i LowLevelDynamics_static_64:DyArticulation.obj
 0001:00077d50       ?copyInternalStateToCache@ArticulationV@Dy@physx@@UEAAXAEAVPxArticulationCache@3@V?$PxFlags@W4Enum@PxArticulationCache@physx@@E@3@@Z 0000000180078d50 f i LowLevelDynamics_static_64:DyArticulation.obj
 0001:00077d60       ?getCoefficientMatrix@ArticulationV@Dy@physx@@UEAAXMIPEBVPxContactJoint@3@IAEAVPxArticulationCache@3@@Z 0000000180078d60 f i LowLevelDynamics_static_64:DyArticulation.obj
 0001:00077d70       ?getCoefficientMatrixWithLoopJoints@ArticulationV@Dy@physx@@UEAAXPEAUArticulationLoopConstraint@23@IAEAVPxArticulationCache@3@@Z 0000000180078d70 f i LowLevelDynamics_static_64:DyArticulation.obj
 0001:00077d80       ?getCoriolisAndCentrifugalForce@ArticulationV@Dy@physx@@UEAAXAEAVPxArticulationCache@3@@Z 0000000180078d80 f i LowLevelDynamics_static_64:DyArticulation.obj
 0001:00077d90       ?getCurrentTransform@Articulation@Dy@physx@@UEBAAEBVPxTransform@3@I@Z 0000000180078d90 f i LowLevelDynamics_static_64:DyArticulation.obj
 0001:00077da0       ?getDeltaQ@Articulation@Dy@physx@@UEBAAEBVPxQuat@3@I@Z 0000000180078da0 f i LowLevelDynamics_static_64:DyArticulation.obj
 0001:00077db0       ?getDenseJacobian@ArticulationV@Dy@physx@@UEAAXAEAVPxArticulationCache@3@AEAI1@Z 0000000180078db0 f i LowLevelDynamics_static_64:DyArticulation.obj
 0001:00077dc0       ?getDof@ArticulationV@Dy@physx@@UEAAII@Z 0000000180078dc0 f i LowLevelDynamics_static_64:DyArticulation.obj
 0001:00077dd0       ?getDofs@ArticulationV@Dy@physx@@UEAAIXZ 0000000180078dd0 f i LowLevelDynamics_static_64:DyArticulation.obj
 0001:00077de0       ?getGeneralizedExternalForce@ArticulationV@Dy@physx@@UEAAXAEAVPxArticulationCache@3@@Z 0000000180078de0 f i LowLevelDynamics_static_64:DyArticulation.obj
 0001:00077df0       ?getGeneralizedGravityForce@ArticulationV@Dy@physx@@UEAAXAEBVPxVec3@3@AEAVPxArticulationCache@3@@Z 0000000180078df0 f i LowLevelDynamics_static_64:DyArticulation.obj
 0001:00077e00       ?getGeneralizedMassMatrix@ArticulationV@Dy@physx@@UEAAXAEAVPxArticulationCache@3@@Z 0000000180078e00 f i LowLevelDynamics_static_64:DyArticulation.obj
 0001:00077e10       ?getGeneralizedMassMatrixCRB@ArticulationV@Dy@physx@@UEAAXAEAVPxArticulationCache@3@@Z 0000000180078e10 f i LowLevelDynamics_static_64:DyArticulation.obj
 0001:00077e20       ?getJointAcceleration@ArticulationV@Dy@physx@@UEAAXAEBVPxVec3@3@AEAVPxArticulationCache@3@@Z 0000000180078e20 f i LowLevelDynamics_static_64:DyArticulation.obj
 0001:00077e30       ?getJointForce@ArticulationV@Dy@physx@@UEAAXAEAVPxArticulationCache@3@@Z 0000000180078e30 f i LowLevelDynamics_static_64:DyArticulation.obj
 0001:00077e40       ?getLambda@ArticulationV@Dy@physx@@UEAA_NPEAUArticulationLoopConstraint@23@IAEAVPxArticulationCache@3@1PEBMAEBVPxVec3@3@I@Z 0000000180078e40 f i LowLevelDynamics_static_64:DyArticulation.obj
 0001:00077e50       ?initializeCommonData@ArticulationV@Dy@physx@@UEAAXXZ 0000000180078e50 f i LowLevelDynamics_static_64:DyArticulation.obj
 0001:00077e60       ?onUpdateSolverDesc@Articulation@Dy@physx@@UEAAXXZ 0000000180078e60 f i LowLevelDynamics_static_64:DyArticulation.obj
 0001:00077eb0       ?onUpdateSolverDesc@ArticulationV@Dy@physx@@UEAAXXZ 0000000180078eb0 f i LowLevelDynamics_static_64:DyArticulation.obj
 0001:00077ec0       ?packJointData@ArticulationV@Dy@physx@@UEAAXPEBMPEAM@Z 0000000180078ec0 f i LowLevelDynamics_static_64:DyArticulation.obj
 0001:00077ed0       ?prepareStaticConstraints@ArticulationV@Dy@physx@@UEAAXMMAEAVPxsContactManagerOutputIterator@3@AEAVThreadContext@23@MMMMMPEAUPxSolverBodyData@3@AEAVPxsConstraintBlockManager@3@PEAUConstraintWriteback@23@@Z 0000000180078ed0 f i LowLevelDynamics_static_64:DyArticulation.obj
 0001:00077ee0       ?prepareStaticConstraintsTGS@ArticulationV@Dy@physx@@UEAAXMMMMAEAVPxsContactManagerOutputIterator@3@AEAVThreadContext@23@MMMPEAUPxTGSSolverBodyData@3@PEAUPxTGSSolverBodyTxInertia@3@AEAVPxsConstraintBlockManager@3@PEAUConstraintWriteback@23@IM@Z 0000000180078ee0 f i LowLevelDynamics_static_64:DyArticulation.obj
 0001:00077ef0       ?pxcFsGetVelocityTGS@Articulation@Dy@physx@@UEAA?AUSpatialVectorV@Cm@3@I@Z 0000000180078ef0 f i LowLevelDynamics_static_64:DyArticulation.obj
 0001:00077f10       ?recreate@?$Array@UMat33V@aos@shdfnd@physx@@V?$ReflectionAllocator@UMat33V@aos@shdfnd@physx@@@34@@shdfnd@physx@@IEAAXI@Z 0000000180078f10 f i LowLevelDynamics_static_64:DyArticulation.obj
 0001:00078040       ?recreate@?$Array@USpatialVectorV@Cm@physx@@V?$ReflectionAllocator@USpatialVectorV@Cm@physx@@@shdfnd@3@@shdfnd@physx@@IEAAXI@Z 0000000180079040 f i LowLevelDynamics_static_64:DyArticulation.obj
 0001:00078160       ?recreate@?$Array@VPxQuat@physx@@V?$ReflectionAllocator@VPxQuat@physx@@@shdfnd@2@@shdfnd@physx@@IEAAXI@Z 0000000180079160 f i LowLevelDynamics_static_64:DyArticulation.obj
 0001:00078330       ?recreate@?$Array@VPxTransform@physx@@V?$ReflectionAllocator@VPxTransform@physx@@@shdfnd@2@@shdfnd@physx@@IEAAXI@Z 0000000180079330 f i LowLevelDynamics_static_64:DyArticulation.obj
 0001:00078570       ?resize@?$Array@DV?$ReflectionAllocator@D@shdfnd@physx@@@shdfnd@physx@@QEAAXIAEBD@Z 0000000180079570 f i LowLevelDynamics_static_64:DyArticulation.obj
 0001:00078630       ?resize@?$Array@UMat33V@aos@shdfnd@physx@@V?$ReflectionAllocator@UMat33V@aos@shdfnd@physx@@@34@@shdfnd@physx@@QEAAXIAEBUMat33V@aos@23@@Z 0000000180079630 f i LowLevelDynamics_static_64:DyArticulation.obj
 0001:000786c0       ?resize@?$Array@USpatialVectorV@Cm@physx@@V?$ReflectionAllocator@USpatialVectorV@Cm@physx@@@shdfnd@3@@shdfnd@physx@@QEAAXIAEBUSpatialVectorV@Cm@3@@Z 00000001800796c0 f i LowLevelDynamics_static_64:DyArticulation.obj
 0001:00078730       ?resize@?$Array@VPxQuat@physx@@V?$ReflectionAllocator@VPxQuat@physx@@@shdfnd@2@@shdfnd@physx@@QEAAXIAEBVPxQuat@3@@Z 0000000180079730 f i LowLevelDynamics_static_64:DyArticulation.obj
 0001:00078850       ?resize@?$Array@VPxTransform@physx@@V?$ReflectionAllocator@VPxTransform@physx@@@shdfnd@2@@shdfnd@physx@@QEAAXIAEBVPxTransform@3@@Z 0000000180079850 f i LowLevelDynamics_static_64:DyArticulation.obj
 0001:000789d0       ?storeStaticConstraint@ArticulationV@Dy@physx@@UEAA_NAEBUPxSolverConstraintDesc@3@@Z 00000001800799d0 f i LowLevelDynamics_static_64:DyArticulation.obj
 0001:000789e0       ?teleportRootLink@ArticulationV@Dy@physx@@UEAAXXZ 00000001800799e0 f i LowLevelDynamics_static_64:DyArticulation.obj
 0001:000789f0       ?unpackJointData@ArticulationV@Dy@physx@@UEAAXPEBMPEAM@Z 00000001800799f0 f i LowLevelDynamics_static_64:DyArticulation.obj
 0001:00078a00       ?willStoreStaticConstraint@ArticulationV@Dy@physx@@UEAA_NXZ 0000000180079a00 f i LowLevelDynamics_static_64:DyArticulation.obj
 0001:00078a10       ?writebackInternalConstraints@Articulation@Dy@physx@@UEAAX_N@Z 0000000180079a10 f i LowLevelDynamics_static_64:DyArticulation.obj
 0001:00078a20       ?setJointPose@ArticulationJointCore@Dy@physx@@QEAAXAEAVArticulationJointCoreData@23@AEAUSpatialSubspaceMatrix@23@_NAEAVPxQuat@3@@Z 0000000180079a20 f   LowLevelDynamics_static_64:DyFeatherstoneArticulation.obj
 0001:00079150       ??1ArticulationData@Dy@physx@@QEAA@XZ 000000018007a150 f   LowLevelDynamics_static_64:DyFeatherstoneArticulation.obj
 0001:000796e0       ?resizeLinkData@ArticulationData@Dy@physx@@QEAAXI@Z 000000018007a6e0 f   LowLevelDynamics_static_64:DyFeatherstoneArticulation.obj
 0001:00079bc0       ?resizeJointData@ArticulationData@Dy@physx@@QEAAXI@Z 000000018007abc0 f   LowLevelDynamics_static_64:DyFeatherstoneArticulation.obj
 0001:00079d00       ?getLinkData@ArticulationData@Dy@physx@@QEBAAEAVArticulationLinkData@23@I@Z 000000018007ad00 f   LowLevelDynamics_static_64:DyFeatherstoneArticulation.obj
 0001:00079d20       ??0FeatherstoneArticulation@Dy@physx@@QEAA@PEAX@Z 000000018007ad20 f   LowLevelDynamics_static_64:DyFeatherstoneArticulation.obj
 0001:00079db0       ??1FeatherstoneArticulation@Dy@physx@@UEAA@XZ 000000018007adb0 f   LowLevelDynamics_static_64:DyFeatherstoneArticulation.obj
 0001:00079e90       ?getDataSizes@FeatherstoneArticulation@Dy@physx@@UEAAXIAEAI00@Z 000000018007ae90 f   LowLevelDynamics_static_64:DyFeatherstoneArticulation.obj
 0001:00079eb0       ?resize@FeatherstoneArticulation@Dy@physx@@UEAA_NI@Z 000000018007aeb0 f   LowLevelDynamics_static_64:DyFeatherstoneArticulation.obj
 0001:00079f50       ?onUpdateSolverDesc@FeatherstoneArticulation@Dy@physx@@UEAAXXZ 000000018007af50 f   LowLevelDynamics_static_64:DyFeatherstoneArticulation.obj
 0001:00079fb0       ?getDofs@FeatherstoneArticulation@Dy@physx@@UEAAIXZ 000000018007afb0 f   LowLevelDynamics_static_64:DyFeatherstoneArticulation.obj
 0001:00079fe0       ?getDof@FeatherstoneArticulation@Dy@physx@@UEAAII@Z 000000018007afe0 f   LowLevelDynamics_static_64:DyFeatherstoneArticulation.obj
 0001:0007a000       ?applyCache@FeatherstoneArticulation@Dy@physx@@UEAA_NAEAVPxArticulationCache@3@V?$PxFlags@W4Enum@PxArticulationCache@physx@@E@3@@Z 000000018007b000 f   LowLevelDynamics_static_64:DyFeatherstoneArticulation.obj
 0001:0007a060       ?copyInternalStateToCache@FeatherstoneArticulation@Dy@physx@@UEAAXAEAVPxArticulationCache@3@V?$PxFlags@W4Enum@PxArticulationCache@physx@@E@3@@Z 000000018007b060 f   LowLevelDynamics_static_64:DyFeatherstoneArticulation.obj
 0001:0007a7f0       ?getDenseJacobian@FeatherstoneArticulation@Dy@physx@@UEAAXAEAVPxArticulationCache@3@AEAI1@Z 000000018007b7f0 f   LowLevelDynamics_static_64:DyFeatherstoneArticulation.obj
 0001:0007b030       ?storeStaticConstraint@FeatherstoneArticulation@Dy@physx@@UEAA_NAEBUPxSolverConstraintDesc@3@@Z 000000018007c030 f   LowLevelDynamics_static_64:DyFeatherstoneArticulation.obj
 0001:0007b090       ?teleportRootLink@FeatherstoneArticulation@Dy@physx@@UEAAXXZ 000000018007c090 f   LowLevelDynamics_static_64:DyFeatherstoneArticulation.obj
 0001:0007bef0       ?getImpulseResponse@FeatherstoneArticulation@Dy@physx@@UEBAXIPEAUSpatialVectorF@Cm@3@AEBVSpatialVector@53@AEAV653@@Z 000000018007cef0 f   LowLevelDynamics_static_64:DyFeatherstoneArticulation.obj
 0001:0007c080       ?getImpulseResponse@FeatherstoneArticulation@Dy@physx@@UEBAXIPEAUSpatialVectorV@Cm@3@AEBU453@AEAU453@@Z 000000018007d080 f   LowLevelDynamics_static_64:DyFeatherstoneArticulation.obj
 0001:0007c1f0       ?getImpulseSelfResponse@FeatherstoneArticulation@Dy@physx@@UEBAXIIPEAUSpatialVectorF@Cm@3@AEBVSpatialVector@53@1AEAV653@2@Z 000000018007d1f0 f   LowLevelDynamics_static_64:DyFeatherstoneArticulation.obj
 0001:0007c270       ?getLinkVelocity@FeatherstoneArticulation@Dy@physx@@UEBA?AUSpatialVectorV@Cm@3@I@Z 000000018007d270 f   LowLevelDynamics_static_64:DyFeatherstoneArticulation.obj
 0001:0007c2a0       ?getLinkMotionVector@FeatherstoneArticulation@Dy@physx@@UEBA?AUSpatialVectorV@Cm@3@I@Z 000000018007d2a0 f   LowLevelDynamics_static_64:DyFeatherstoneArticulation.obj
 0001:0007c2e0       ?getMotionVelocity@FeatherstoneArticulation@Dy@physx@@UEBA?AVSpatialVector@Cm@3@I@Z 000000018007d2e0 f   LowLevelDynamics_static_64:DyFeatherstoneArticulation.obj
 0001:0007c330       ?getMotionAcceleration@FeatherstoneArticulation@Dy@physx@@UEBA?AVSpatialVector@Cm@3@I@Z 000000018007d330 f   LowLevelDynamics_static_64:DyFeatherstoneArticulation.obj
 0001:0007c360       ?fillIndexedManager@FeatherstoneArticulation@Dy@physx@@UEAAXIAEA_KAEAE@Z 000000018007d360 f   LowLevelDynamics_static_64:DyFeatherstoneArticulation.obj
 0001:0007c3a0       ?getLinkMaxPenBias@FeatherstoneArticulation@Dy@physx@@UEBAMI@Z 000000018007d3a0 f   LowLevelDynamics_static_64:DyFeatherstoneArticulation.obj
 0001:0007c3d0       ?setupSolverConstraintsTGS@FeatherstoneArticulation@Dy@physx@@SAIAEBUArticulationSolverDesc@23@AEAVPxcConstraintBlockStream@3@PEAUPxSolverConstraintDesc@3@MMMAEAIAEAVPxsConstraintBlockManager@3@PEAUSpatialVectorF@Cm@3@@Z 000000018007d3d0 f   LowLevelDynamics_static_64:DyFeatherstoneArticulation.obj
 0001:0007c470       ?saveVelocity@FeatherstoneArticulation@Dy@physx@@SAXAEBUArticulationSolverDesc@23@PEAUSpatialVectorF@Cm@3@@Z 000000018007d470 f   LowLevelDynamics_static_64:DyFeatherstoneArticulation.obj
 0001:0007c530       ?saveVelocityTGS@FeatherstoneArticulation@Dy@physx@@SAXAEBUArticulationSolverDesc@23@M@Z 000000018007d530 f   LowLevelDynamics_static_64:DyFeatherstoneArticulation.obj
 0001:0007c540       ?recordDeltaMotion@FeatherstoneArticulation@Dy@physx@@SAXAEBUArticulationSolverDesc@23@MPEAUSpatialVectorF@Cm@3@@Z 000000018007d540 f   LowLevelDynamics_static_64:DyFeatherstoneArticulation.obj
 0001:0007ccf0       ?deltaMotionToMotionVelocity@FeatherstoneArticulation@Dy@physx@@SAXAEBUArticulationSolverDesc@23@M@Z 000000018007dcf0 f   LowLevelDynamics_static_64:DyFeatherstoneArticulation.obj
 0001:0007d190       ?pxcFsApplyImpulse@FeatherstoneArticulation@Dy@physx@@UEAAXIT__m128@@0PEAUSpatialVectorF@Cm@3@1@Z 000000018007e190 f   LowLevelDynamics_static_64:DyFeatherstoneArticulation.obj
 0001:0007d3a0       ?pxcFsApplyImpulses@FeatherstoneArticulation@Dy@physx@@UEAAXIAEBT__m128@@0I00PEAUSpatialVectorF@Cm@3@1@Z 000000018007e3a0 f   LowLevelDynamics_static_64:DyFeatherstoneArticulation.obj
 0001:0007da50       ?pxcFsApplyImpulses@FeatherstoneArticulation@Dy@physx@@UEAAXPEAUSpatialVectorF@Cm@3@@Z 000000018007ea50 f   LowLevelDynamics_static_64:DyFeatherstoneArticulation.obj
 0001:0007dc60       ?pxcFsGetVelocity@FeatherstoneArticulation@Dy@physx@@UEAA?AUSpatialVectorV@Cm@3@I@Z 000000018007ec60 f   LowLevelDynamics_static_64:DyFeatherstoneArticulation.obj
 0001:0007e220       ?pxcFsGetVelocities@FeatherstoneArticulation@Dy@physx@@UEAAXIIAEAUSpatialVectorV@Cm@3@0@Z 000000018007f220 f   LowLevelDynamics_static_64:DyFeatherstoneArticulation.obj
 0001:0007ec30       ?pxcFsGetVelocityTGS@FeatherstoneArticulation@Dy@physx@@UEAA?AUSpatialVectorV@Cm@3@I@Z 000000018007fc30 f   LowLevelDynamics_static_64:DyFeatherstoneArticulation.obj
 0001:0007ec60       ?getCurrentTransform@FeatherstoneArticulation@Dy@physx@@UEBAAEBVPxTransform@3@I@Z 000000018007fc60 f   LowLevelDynamics_static_64:DyFeatherstoneArticulation.obj
 0001:0007ec80       ?getDeltaQ@FeatherstoneArticulation@Dy@physx@@UEBAAEBVPxQuat@3@I@Z 000000018007fc80 f   LowLevelDynamics_static_64:DyFeatherstoneArticulation.obj
 0001:0007eca0       ?applyImpulses@FeatherstoneArticulation@Dy@physx@@QEAAXPEAUSpatialVectorF@Cm@3@0@Z 000000018007fca0 f   LowLevelDynamics_static_64:DyFeatherstoneArticulation.obj
 0001:0007ede0       ?getDeltaV@FeatherstoneArticulation@Dy@physx@@QEAAXPEAUSpatialVectorF@Cm@3@0@Z 000000018007fde0 f   LowLevelDynamics_static_64:DyFeatherstoneArticulation.obj
 0001:0007f540       ?propagateVelocityW@FeatherstoneArticulation@Dy@physx@@SA?AUSpatialVectorF@Cm@3@AEBVPxVec3@3@AEBUSpatialMatrix@23@AEBUInvStIs@23@AEBUSpatialSubspaceMatrix@23@AEBU453@PEAM4@Z 0000000180080540 f   LowLevelDynamics_static_64:DyFeatherstoneArticulation.obj
 0001:0007fd80       ?propagateVelocityTestImpulseW@FeatherstoneArticulation@Dy@physx@@SA?AUSpatialVectorF@Cm@3@AEBVPxVec3@3@AEBUSpatialMatrix@23@AEBUInvStIs@23@AEBUSpatialSubspaceMatrix@23@AEBU453@4@Z 0000000180080d80 f   LowLevelDynamics_static_64:DyFeatherstoneArticulation.obj
 0001:00080530       ?propagateImpulseW@FeatherstoneArticulation@Dy@physx@@SA?AUSpatialVectorF@Cm@3@AEBUIsInvD@23@AEBVPxVec3@3@AEBUSpatialSubspaceMatrix@23@AEBU453@@Z 0000000180081530 f   LowLevelDynamics_static_64:DyFeatherstoneArticulation.obj
 0001:00080c50       ?copyJointData@FeatherstoneArticulation@Dy@physx@@IEAAXAEAVArticulationData@23@PEAMPEBM@Z 0000000180081c50 f   LowLevelDynamics_static_64:DyFeatherstoneArticulation.obj
 0001:00080c70       ?computeDofs@FeatherstoneArticulation@Dy@physx@@IEAAXXZ 0000000180081c70 f   LowLevelDynamics_static_64:DyFeatherstoneArticulation.obj
 0001:00080df0       ?jcalc@FeatherstoneArticulation@Dy@physx@@IEAAXAEAVArticulationData@23@_N@Z 0000000180081df0 f   LowLevelDynamics_static_64:DyFeatherstoneArticulation.obj
 0001:000811b0       ?computeSpatialInertia@FeatherstoneArticulation@Dy@physx@@IEAAXAEAVArticulationData@23@@Z 00000001800821b0 f   LowLevelDynamics_static_64:DyFeatherstoneArticulation.obj
 0001:00081570       ?computeZ@FeatherstoneArticulation@Dy@physx@@IEAAXAEAVArticulationData@23@AEBVPxVec3@3@AEAUScratchData@23@@Z 0000000180082570 f   LowLevelDynamics_static_64:DyFeatherstoneArticulation.obj
 0001:00081970       ?computeD@FeatherstoneArticulation@Dy@physx@@IEAAXAEAVArticulationData@23@AEAUScratchData@23@PEAUSpatialVectorF@Cm@3@2@Z 0000000180082970 f   LowLevelDynamics_static_64:DyFeatherstoneArticulation.obj
 0001:000823c0       ?solveInternalConstraints@FeatherstoneArticulation@Dy@physx@@MEAAXMMPEAUSpatialVectorF@Cm@3@0_N1M@Z 00000001800833c0 f   LowLevelDynamics_static_64:DyFeatherstoneArticulation.obj
 0001:00083090       ?solveInternalConstraintRecursive@FeatherstoneArticulation@Dy@physx@@IEAA?AUSpatialVectorF@Cm@3@MMPEAU453@0_N1MIAEBU453@AEAI3@Z 0000000180084090 f   LowLevelDynamics_static_64:DyFeatherstoneArticulation.obj
 0001:000844e0       ?writebackInternalConstraints@FeatherstoneArticulation@Dy@physx@@MEAAX_N@Z 00000001800854e0 f   LowLevelDynamics_static_64:DyFeatherstoneArticulation.obj
 0001:00084590       ?concludeInternalConstraints@FeatherstoneArticulation@Dy@physx@@IEAAX_N@Z 0000000180085590 f   LowLevelDynamics_static_64:DyFeatherstoneArticulation.obj
 0001:00084600       ?computeC@FeatherstoneArticulation@Dy@physx@@IEAAXAEAVArticulationData@23@AEAUScratchData@23@@Z 0000000180085600 f   LowLevelDynamics_static_64:DyFeatherstoneArticulation.obj
 0001:00084cf0       ?computeRelativeTransformC2P@FeatherstoneArticulation@Dy@physx@@IEAAXAEAVArticulationData@23@@Z 0000000180085cf0 f   LowLevelDynamics_static_64:DyFeatherstoneArticulation.obj
 0001:00085400       ?computeRelativeTransformC2B@FeatherstoneArticulation@Dy@physx@@IEAAXAEAVArticulationData@23@@Z 0000000180086400 f   LowLevelDynamics_static_64:DyFeatherstoneArticulation.obj
 0001:000855f0       ?computeLinkVelocities@FeatherstoneArticulation@Dy@physx@@IEAAXAEAVArticulationData@23@AEAUScratchData@23@@Z 00000001800865f0 f   LowLevelDynamics_static_64:DyFeatherstoneArticulation.obj
 0001:00085cf0       ?transformInertia@FeatherstoneArticulation@Dy@physx@@KAXAEBUSpatialTransform@23@AEAUSpatialMatrix@23@@Z 0000000180086cf0 f   LowLevelDynamics_static_64:DyFeatherstoneArticulation.obj
 0001:00086820       ?translateInertia@FeatherstoneArticulation@Dy@physx@@KAXAEBVPxMat33@3@AEAUSpatialMatrix@23@@Z 0000000180087820 f   LowLevelDynamics_static_64:DyFeatherstoneArticulation.obj
 0001:00086d30       ?getDeltaVWithDeltaJV@FeatherstoneArticulation@Dy@physx@@KA?AUSpatialVectorF@Cm@3@_NIAEBVArticulationData@23@PEAU453@PEAM@Z 0000000180087d30 f   LowLevelDynamics_static_64:DyFeatherstoneArticulation.obj
 0001:00087340       ?getDeltaV@FeatherstoneArticulation@Dy@physx@@KA?AUSpatialVectorF@Cm@3@_NIAEBVArticulationData@23@PEAU453@@Z 0000000180088340 f   LowLevelDynamics_static_64:DyFeatherstoneArticulation.obj
 0001:000878e0       ?getZ@FeatherstoneArticulation@Dy@physx@@KAXIAEBVArticulationData@23@PEAUSpatialVectorF@Cm@3@AEBU563@@Z 00000001800888e0 f   LowLevelDynamics_static_64:DyFeatherstoneArticulation.obj
 0001:00087a50       ?getImpulseResponseW@FeatherstoneArticulation@Dy@physx@@KA?AUSpatialVectorF@Cm@3@IAEBVArticulationData@23@AEBU453@@Z 0000000180088a50 f   LowLevelDynamics_static_64:DyFeatherstoneArticulation.obj
 0001:00087ba0       ?getImpulseResponseWithJ@FeatherstoneArticulation@Dy@physx@@KA?AUSpatialVectorF@Cm@3@I_NAEBVArticulationData@23@PEAU453@AEBU453@PEAM@Z 0000000180088ba0 f   LowLevelDynamics_static_64:DyFeatherstoneArticulation.obj
 0001:00087d60       ?getImpulseSelfResponse@FeatherstoneArticulation@Dy@physx@@SAXPEAUArticulationLink@23@_NPEAUSpatialVectorF@Cm@3@AEBVArticulationData@23@IAEBUSpatialVectorV@63@AEAU863@I45@Z 0000000180088d60 f   LowLevelDynamics_static_64:DyFeatherstoneArticulation.obj
 0001:00088130       ?getImpulseResponseSlow@FeatherstoneArticulation@Dy@physx@@SAXPEAUArticulationLink@23@AEBVArticulationData@23@IAEBVSpatialVector@Cm@3@AEAV673@I23PEAUSpatialVectorF@73@@Z 0000000180089130 f   LowLevelDynamics_static_64:DyFeatherstoneArticulation.obj
 0001:00088a60       ?createHardLimit@FeatherstoneArticulation@Dy@physx@@QEAAXPEAUArticulationLink@23@_NPEAUSpatialVectorF@Cm@3@AEAVArticulationData@23@IAEAUSolverConstraint1DExt@23@AEBVPxVec3@3@MM@Z 0000000180089a60 f   LowLevelDynamics_static_64:DyFeatherstoneArticulation.obj
 0001:00088d10       ?createHardLimits@FeatherstoneArticulation@Dy@physx@@QEAAXAEAUSolverConstraint1DExt@23@0AEBVPxVec3@3@MMMAEBUSpatialVectorV@Cm@3@2M@Z 0000000180089d10 f   LowLevelDynamics_static_64:DyFeatherstoneArticulation.obj
 0001:00088ea0       ?createTangentialSpring@FeatherstoneArticulation@Dy@physx@@QEAAXPEAUArticulationLink@23@_NPEAUSpatialVectorF@Cm@3@AEAVArticulationData@23@IAEAUSolverConstraint1DExt@23@AEBVPxVec3@3@MMM@Z 0000000180089ea0 f   LowLevelDynamics_static_64:DyFeatherstoneArticulation.obj
 0001:00089180       ?setupSolverConstraints@FeatherstoneArticulation@Dy@physx@@QEAAIPEAUArticulationLink@23@I_NAEAVArticulationData@23@PEAUSpatialVectorF@Cm@3@AEAI@Z 000000018008a180 f   LowLevelDynamics_static_64:DyFeatherstoneArticulation.obj
 0001:00089200       ?setupInternalConstraints@FeatherstoneArticulation@Dy@physx@@QEAAXPEAUArticulationLink@23@I_NAEAVArticulationData@23@PEAUSpatialVectorF@Cm@3@MMMM_N@Z 000000018008a200 f   LowLevelDynamics_static_64:DyFeatherstoneArticulation.obj
 0001:00089400       ?setupInternalConstraintsRecursive@FeatherstoneArticulation@Dy@physx@@QEAAXPEAUArticulationLink@23@I_NAEAVArticulationData@23@PEAUSpatialVectorF@Cm@3@MMMMM1IM@Z 000000018008a400 f   LowLevelDynamics_static_64:DyFeatherstoneArticulation.obj
 0001:0008ab50       ?prepareStaticConstraints@FeatherstoneArticulation@Dy@physx@@UEAAXMMAEAVPxsContactManagerOutputIterator@3@AEAVThreadContext@23@MMMMMPEAUPxSolverBodyData@3@AEAVPxsConstraintBlockManager@3@PEAUConstraintWriteback@23@@Z 000000018008bb50 f   LowLevelDynamics_static_64:DyFeatherstoneArticulation.obj
 0001:0008b2f0       ?prepareStaticConstraintsTGS@FeatherstoneArticulation@Dy@physx@@UEAAXMMMMAEAVPxsContactManagerOutputIterator@3@AEAVThreadContext@23@MMMPEAUPxTGSSolverBodyData@3@PEAUPxTGSSolverBodyTxInertia@3@AEAVPxsConstraintBlockManager@3@PEAUConstraintWriteback@23@IM@Z 000000018008c2f0 f   LowLevelDynamics_static_64:DyFeatherstoneArticulation.obj
 0001:0008bb30       ?createHardLimitTGS@FeatherstoneArticulation@Dy@physx@@QEAAXAEAUSolverConstraint1DExtStep@23@AEBVPxVec3@3@MMAEBUSpatialVectorV@Cm@3@2M@Z 000000018008cb30 f   LowLevelDynamics_static_64:DyFeatherstoneArticulation.obj
 0001:0008bc10       ?createTangentialSpringTGS@FeatherstoneArticulation@Dy@physx@@QEAAXPEAUArticulationLink@23@_NPEAUSpatialVectorF@Cm@3@AEAVArticulationData@23@IAEAUSolverConstraint1DExtStep@23@AEBVPxVec3@3@MMM@Z 000000018008cc10 f   LowLevelDynamics_static_64:DyFeatherstoneArticulation.obj
 0001:0008bf10       ?teleportLinks@FeatherstoneArticulation@Dy@physx@@QEAAXAEAVArticulationData@23@@Z 000000018008cf10 f   LowLevelDynamics_static_64:DyFeatherstoneArticulation.obj
 0001:0008cfe0       ?computeLinkVelocities@FeatherstoneArticulation@Dy@physx@@QEAAXAEAVArticulationData@23@@Z 000000018008dfe0 f   LowLevelDynamics_static_64:DyFeatherstoneArticulation.obj
 0001:0008d7f0       ?allocateScratchSpatialData@FeatherstoneArticulation@Dy@physx@@QEAAPEAEPEAVPxcScratchAllocator@3@IAEAUScratchData@23@_N@Z 000000018008e7f0 f   LowLevelDynamics_static_64:DyFeatherstoneArticulation.obj
 0001:0008d910       ?propagateTransform@FeatherstoneArticulation@Dy@physx@@QEAA?AVPxTransform@3@IPEAUArticulationLink@23@AEAVArticulationJointCoreData@23@PEAUSpatialVectorF@Cm@3@MAEBV43@3PEAM44AEBUSpatialSubspaceMatrix@23@5@Z 000000018008e910 f   LowLevelDynamics_static_64:DyFeatherstoneArticulation.obj
 0001:0008e790       ?PxvRegisterArticulationsReducedCoordinate@Dy@physx@@YAXXZ 000000018008f790 f   LowLevelDynamics_static_64:DyFeatherstoneArticulation.obj
 0001:0008e830       ?PxcFsFlushVelocity@Dy@physx@@YAXAEAVFeatherstoneArticulation@12@PEAUSpatialVectorF@Cm@2@@Z 000000018008f830 f   LowLevelDynamics_static_64:DyFeatherstoneArticulation.obj
 0001:0008efc0       ?createDriveOrLimit@Dy@physx@@YAXAEAUSolverConstraint1DExt@12@MMM_N1AEBUSpatialVectorV@Cm@2@2M@Z 000000018008ffc0 f   LowLevelDynamics_static_64:DyFeatherstoneArticulation.obj
 0001:0008f080       ?createSpringDrive@Dy@physx@@YAXAEAUSolverConstraint1DExt@12@MMMMMMAEBUSpatialVectorV@Cm@2@1M@Z 0000000180090080 f   LowLevelDynamics_static_64:DyFeatherstoneArticulation.obj
 0001:0008f1d0       ?createSpringDrive@Dy@physx@@YAXAEAUSolverConstraint1DExtStep@12@MMMMMMMAEBUSpatialVectorV@Cm@2@1M@Z 00000001800901d0 f   LowLevelDynamics_static_64:DyFeatherstoneArticulation.obj
 0001:0008f340       ?createDriveOrLimit@Dy@physx@@YAXAEAUSolverConstraint1DExtStep@12@MMM_NMMM1AEBUSpatialVectorV@Cm@2@2M@Z 0000000180090340 f   LowLevelDynamics_static_64:DyFeatherstoneArticulation.obj
 0001:0008f410       ?solveStaticConstraint@Dy@physx@@YAXAEBUPxSolverConstraintDesc@2@AEAUSpatialVectorF@Cm@2@11AEBU452@AEBVPxQuat@2@_NMM@Z 0000000180090410 f   LowLevelDynamics_static_64:DyFeatherstoneArticulation.obj
 0001:0008f840       ??$median3@UPxSolverConstraintDesc@physx@@$$CBUArticulationStaticConstraintSortPredicate@Dy@2@@internal@shdfnd@physx@@YAXPEAUPxSolverConstraintDesc@2@HHAEBUArticulationStaticConstraintSortPredicate@Dy@2@@Z 0000000180090840 f i LowLevelDynamics_static_64:DyFeatherstoneArticulation.obj
 0001:0008f9f0       ??$sort@UPxSolverConstraintDesc@physx@@UArticulationStaticConstraintSortPredicate@Dy@2@@shdfnd@physx@@YAXPEAUPxSolverConstraintDesc@1@IAEBUArticulationStaticConstraintSortPredicate@Dy@1@@Z 00000001800909f0 f i LowLevelDynamics_static_64:DyFeatherstoneArticulation.obj
 0001:0008fa10       ??$sort@UPxSolverConstraintDesc@physx@@UArticulationStaticConstraintSortPredicate@Dy@2@V?$ReflectionAllocator@UPxSolverConstraintDesc@physx@@@shdfnd@2@@shdfnd@physx@@YAXPEAUPxSolverConstraintDesc@1@IAEBUArticulationStaticConstraintSortPredicate@Dy@1@AEBV?$ReflectionAllocator@UPxSolverConstraintDesc@physx@@@01@I@Z 0000000180090a10 f i LowLevelDynamics_static_64:DyFeatherstoneArticulation.obj
 0001:0008feb0       ??0ArticulationData@Dy@physx@@QEAA@XZ 0000000180090eb0 f i LowLevelDynamics_static_64:DyFeatherstoneArticulation.obj
 0001:00090050       ??0SpatialVector@Cm@physx@@QEAA@XZ 0000000180091050 f i LowLevelDynamics_static_64:DyFeatherstoneArticulation.obj
 0001:00090060       ??0SpatialVectorF@Cm@physx@@QEAA@AEBU012@@Z 0000000180091060 f i LowLevelDynamics_static_64:DyFeatherstoneArticulation.obj
 0001:000900a0       ??0UnAlignedSpatialVector@Cm@physx@@QEAA@AEBU012@@Z 00000001800910a0 f i LowLevelDynamics_static_64:DyFeatherstoneArticulation.obj
 0001:000900d0       ??0UnAlignedSpatialVector@Cm@physx@@QEAA@XZ 00000001800910d0 f i LowLevelDynamics_static_64:DyFeatherstoneArticulation.obj
 0001:000900e0       ??1PxConstraintAllocator@physx@@UEAA@XZ 00000001800910e0 f i LowLevelDynamics_static_64:DyFeatherstoneArticulation.obj
 0001:000900f0       ??1UnAlignedSpatialVector@Cm@physx@@QEAA@XZ 00000001800910f0 f i LowLevelDynamics_static_64:DyFeatherstoneArticulation.obj
 0001:00090100       ??_EBlockAllocator@Dy@physx@@UEAAPEAXI@Z 0000000180091100 f i LowLevelDynamics_static_64:DyFeatherstoneArticulation.obj
 0001:00090100       ??_GBlockAllocator@Dy@physx@@UEAAPEAXI@Z 0000000180091100 f i LowLevelDynamics_static_64:DyFeatherstoneArticulation.obj
 0001:00090130       ??_EFeatherstoneArticulation@Dy@physx@@UEAAPEAXI@Z 0000000180091130 f i LowLevelDynamics_static_64:DyFeatherstoneArticulation.obj
 0001:00090130       ??_GFeatherstoneArticulation@Dy@physx@@UEAAPEAXI@Z 0000000180091130 f i LowLevelDynamics_static_64:DyFeatherstoneArticulation.obj
 0001:00090220       ??_GPxConstraintAllocator@physx@@UEAAPEAXI@Z 0000000180091220 f i LowLevelDynamics_static_64:DyFeatherstoneArticulation.obj
 0001:00090220       ??_EPxConstraintAllocator@physx@@UEAAPEAXI@Z 0000000180091220 f i LowLevelDynamics_static_64:DyFeatherstoneArticulation.obj
 0001:00090250       ??__G@YAXPEAX0_K1P6APEAX00@Z@Z 0000000180091250 f i LowLevelDynamics_static_64:DyFeatherstoneArticulation.obj
 0001:000902b0       ?allocate@?$Array@IV?$ReflectionAllocator@I@shdfnd@physx@@@shdfnd@physx@@IEAAPEAII@Z 00000001800912b0 f i LowLevelDynamics_static_64:DyFeatherstoneArticulation.obj
 0001:00090350       ?allocate@?$ReflectionAllocator@UPxSolverConstraintDesc@physx@@@shdfnd@physx@@QEAAPEAX_KPEBDH@Z 0000000180091350 f i LowLevelDynamics_static_64:DyFeatherstoneArticulation.obj
 0001:000903f0       ?computeArticJacobianAxes@Dy@physx@@YAXQEAVPxVec3@2@AEBVPxQuat@2@1@Z 00000001800913f0 f i LowLevelDynamics_static_64:DyFeatherstoneArticulation.obj
 0001:00090650       ?copy@?$Array@UArticulationInternalLockedAxis@Dy@physx@@V?$ReflectionAllocator@UArticulationInternalLockedAxis@Dy@physx@@@shdfnd@3@@shdfnd@physx@@KAXPEAUArticulationInternalLockedAxis@Dy@3@0PEBU453@@Z 0000000180091650 f i LowLevelDynamics_static_64:DyFeatherstoneArticulation.obj
 0001:000909c0       ?exp@shdfnd@physx@@YA?AVPxQuat@2@AEBVPxVec3@2@@Z 00000001800919c0 f i LowLevelDynamics_static_64:DyFeatherstoneArticulation.obj
 0001:00090ab0       ?findInputPatches@BlockAllocator@Dy@physx@@UEAAPEAEPEAE@Z 0000000180091ab0 f i LowLevelDynamics_static_64:DyFeatherstoneArticulation.obj
 0001:00090ac0       ?growAndPushBack@?$Array@UPxSolverConstraintDesc@physx@@V?$ReflectionAllocator@UPxSolverConstraintDesc@physx@@@shdfnd@2@@shdfnd@physx@@IEAAAEAUPxSolverConstraintDesc@3@AEBU43@@Z 0000000180091ac0 f i LowLevelDynamics_static_64:DyFeatherstoneArticulation.obj
 0001:00090bd0       ?recreate@?$Array@IV?$ReflectionAllocator@I@shdfnd@physx@@@shdfnd@physx@@IEAAXI@Z 0000000180091bd0 f i LowLevelDynamics_static_64:DyFeatherstoneArticulation.obj
 0001:00090c70       ?recreate@?$Array@MV?$ReflectionAllocator@M@shdfnd@physx@@@shdfnd@physx@@IEAAXI@Z 0000000180091c70 f i LowLevelDynamics_static_64:DyFeatherstoneArticulation.obj
 0001:00090db0       ?recreate@?$Array@UArticulationInternalConstraint@Dy@physx@@V?$ReflectionAllocator@UArticulationInternalConstraint@Dy@physx@@@shdfnd@3@@shdfnd@physx@@IEAAXI@Z 0000000180091db0 f i LowLevelDynamics_static_64:DyFeatherstoneArticulation.obj
 0001:00090ff0       ?recreate@?$Array@UArticulationInternalLockedAxis@Dy@physx@@V?$ReflectionAllocator@UArticulationInternalLockedAxis@Dy@physx@@@shdfnd@3@@shdfnd@physx@@IEAAXI@Z 0000000180091ff0 f i LowLevelDynamics_static_64:DyFeatherstoneArticulation.obj
 0001:000910f0       ?recreate@?$Array@UInvStIs@Dy@physx@@V?$ReflectionAllocator@UInvStIs@Dy@physx@@@shdfnd@3@@shdfnd@physx@@IEAAXI@Z 00000001800920f0 f i LowLevelDynamics_static_64:DyFeatherstoneArticulation.obj
 0001:00091220       ?recreate@?$Array@UIsInvD@Dy@physx@@V?$ReflectionAllocator@UIsInvD@Dy@physx@@@shdfnd@3@@shdfnd@physx@@IEAAXI@Z 0000000180092220 f i LowLevelDynamics_static_64:DyFeatherstoneArticulation.obj
 0001:000913d0       ?recreate@?$Array@USpatialImpulseResponseMatrix@Dy@physx@@V?$ReflectionAllocator@USpatialImpulseResponseMatrix@Dy@physx@@@shdfnd@3@@shdfnd@physx@@IEAAXI@Z 00000001800923d0 f i LowLevelDynamics_static_64:DyFeatherstoneArticulation.obj
 0001:00091630       ?recreate@?$Array@USpatialMatrix@Dy@physx@@V?$ReflectionAllocator@USpatialMatrix@Dy@physx@@@shdfnd@3@@shdfnd@physx@@IEAAXI@Z 0000000180092630 f i LowLevelDynamics_static_64:DyFeatherstoneArticulation.obj
 0001:00091830       ?recreate@?$Array@USpatialSubspaceMatrix@Dy@physx@@V?$ReflectionAllocator@USpatialSubspaceMatrix@Dy@physx@@@shdfnd@3@@shdfnd@physx@@IEAAXI@Z 0000000180092830 f i LowLevelDynamics_static_64:DyFeatherstoneArticulation.obj
 0001:000919d0       ?recreate@?$Array@USpatialVectorF@Cm@physx@@V?$ReflectionAllocator@USpatialVectorF@Cm@physx@@@shdfnd@3@@shdfnd@physx@@IEAAXI@Z 00000001800929d0 f i LowLevelDynamics_static_64:DyFeatherstoneArticulation.obj
 0001:00091c50       ?resize@?$Array@USpatialSubspaceMatrix@Dy@physx@@V?$ReflectionAllocator@USpatialSubspaceMatrix@Dy@physx@@@shdfnd@3@@shdfnd@physx@@QEAAXIAEBUSpatialSubspaceMatrix@Dy@3@@Z 0000000180092c50 f i LowLevelDynamics_static_64:DyFeatherstoneArticulation.obj
 0001:00091d30       ?copyToSolverBodyData@Dy@physx@@YAXAEBVPxVec3@2@0M0AEBVPxTransform@2@MMIMAEAUPxSolverBodyData@2@I@Z 0000000180092d30 f   LowLevelDynamics_static_64:DyRigidBodyToSolverBody.obj
 0001:00092150       ?createFinalizeSolverContacts@Dy@physx@@YA_NAEAUPxSolverContactDesc@2@AEAUPxsContactManagerOutput@2@AEAVThreadContext@12@MMMMMAEAVPxConstraintAllocator@2@PEAUSpatialVectorF@Cm@2@@Z 0000000180093150 f   LowLevelDynamics_static_64:DyContactPrep.obj
 0001:00092540       ?createFinalizeSolverContacts@Dy@physx@@YA_NAEAUPxSolverContactDesc@2@AEAUCorrelationBuffer@12@MMMMMAEAVPxConstraintAllocator@2@PEAUSpatialVectorF@Cm@2@@Z 0000000180093540 f   LowLevelDynamics_static_64:DyContactPrep.obj
 0001:00093420       ?getContactManagerConstraintDesc@Dy@physx@@YAIAEBUPxsContactManagerOutput@2@AEBVPxsContactManager@2@AEAUPxSolverConstraintDesc@2@@Z 0000000180094420 f   LowLevelDynamics_static_64:DyContactPrep.obj
 0001:00093440       ?setupExtSolverContact@Dy@physx@@YA?AT__m128@@AEBVSolverExtBody@12@0AEBT3@111111111111AEBUContactPoint@Gu@2@AEAUSolverContactPointExt@12@1PEAUSpatialVectorF@Cm@2@AEBUSpatialVectorV@92@5@Z 0000000180094440 f   LowLevelDynamics_static_64:DyContactPrep.obj
 0001:00094980       ?createFinalizeSolverContacts4@Dy@physx@@YA?AW4Enum@SolverConstraintPrepState@12@PEAPEAUPxsContactManagerOutput@2@AEAVThreadContext@12@PEAUPxSolverContactDesc@2@MMMMMAEAVPxConstraintAllocator@2@@Z 0000000180095980 f   LowLevelDynamics_static_64:DyContactPrep4.obj
 0001:00094e50       ?createFinalizeSolverContacts4@Dy@physx@@YA?AW4Enum@SolverConstraintPrepState@12@AEAUCorrelationBuffer@12@PEAUPxSolverContactDesc@2@MMMMMAEAVPxConstraintAllocator@2@@Z 0000000180095e50 f   LowLevelDynamics_static_64:DyContactPrep4.obj
 0001:00095660       ?computeBlockStreamByteSizes4@Dy@physx@@YAXPEAUPxSolverContactDesc@2@AEAIPEAIAEBUCorrelationBuffer@12@@Z 0000000180096660 f   LowLevelDynamics_static_64:DyContactPrep4.obj
 0001:000959c0       ?getFrictionPatches@Dy@physx@@YA_NAEAUCorrelationBuffer@12@PEBEIAEBVPxTransform@2@2M@Z 00000001800969c0 f i LowLevelDynamics_static_64:DyContactPrep4.obj
 0001:00099310       ?setupSolverConstraint4@Dy@physx@@YA?AW4Enum@SolverConstraintPrepState@12@PEIAUSolverConstraintShaderPrepDesc@12@PEIAUPxSolverConstraintPrepDesc@2@MMAEAIAEAVPxConstraintAllocator@2@@Z 000000018009a310 f   LowLevelDynamics_static_64:DyConstraintSetupBlock.obj
 0001:00099500       ?setupSolverConstraint4@Dy@physx@@YA?AW4Enum@SolverConstraintPrepState@12@PEIAUPxSolverConstraintPrepDesc@2@MMAEAIAEAVPxConstraintAllocator@2@I@Z 000000018009a500 f   LowLevelDynamics_static_64:DyConstraintSetupBlock.obj
 0001:0009a7b0       ?SetupSolverConstraint@Dy@physx@@YAIAEAUSolverConstraintShaderPrepDesc@12@AEAUPxSolverConstraintPrepDesc@2@AEAVPxConstraintAllocator@2@MMPEAUSpatialVectorF@Cm@2@@Z 000000018009b7b0 f   LowLevelDynamics_static_64:DyConstraintSetup.obj
 0001:0009a9e0       ?setupSolverConstraint@ConstraintHelper@Dy@physx@@SAIAEAUPxSolverConstraintPrepDesc@3@AEAVPxConstraintAllocator@3@MMPEAUSpatialVectorF@Cm@3@@Z 000000018009b9e0 f   LowLevelDynamics_static_64:DyConstraintSetup.obj
 0001:0009b410       ?preprocessRows@Dy@physx@@YAXPEAPEAUPx1DConstraint@2@PEAU32@PEAVPxVec4@2@2IAEBVPxMat33@2@3MMAEBUPxConstraintInvMassScale@2@_N55@Z 000000018009c410 f   LowLevelDynamics_static_64:DyConstraintSetup.obj
 0001:0009cdb0       ?create@SolverCoreGeneral@Dy@physx@@SAPEAV123@_N@Z 000000018009ddb0 f   LowLevelDynamics_static_64:DySolverControl.obj
 0001:0009ce10       ?destroyV@SolverCoreGeneral@Dy@physx@@UEAAXXZ 000000018009de10 f   LowLevelDynamics_static_64:DySolverControl.obj
 0001:0009ce40       ?solveVParallelAndWriteBack@SolverCoreGeneral@Dy@physx@@UEBAHAEAUSolverIslandParams@23@PEAUSpatialVectorF@Cm@3@1@Z 000000018009de40 f   LowLevelDynamics_static_64:DySolverControl.obj
 0001:0009e170       ?solveV_Blocks@SolverCoreGeneral@Dy@physx@@UEBAXAEAUSolverIslandParams@23@@Z 000000018009f170 f   LowLevelDynamics_static_64:DySolverControl.obj
 0001:0009ed40       ?writeBackV@SolverCoreGeneral@Dy@physx@@UEBAXPEIBUPxSolverConstraintDesc@3@IPEAUPxConstraintBatchHeader@3@IPEIAUThresholdStreamElement@23@IAEAIPEAUPxSolverBodyData@3@QEAP6AXPEBU43@IAEAUSolverContext@23@@Z@Z 000000018009fd40 f   LowLevelDynamics_static_64:DySolverControl.obj
 0001:0009ee00       ?solveVBlock@Dy@physx@@YAXPEAVSolverCore@12@AEAUSolverIslandParams@12@@Z 000000018009fe00 f   LowLevelDynamics_static_64:DySolverControl.obj
 0001:0009ee10       ?getSolveBlockTable@Dy@physx@@YAPEAP6AXPEBUPxSolverConstraintDesc@2@IAEAUSolverContext@12@@ZXZ 000000018009fe10 f   LowLevelDynamics_static_64:DySolverControl.obj
 0001:0009ee20       ?getSolverConcludeBlockTable@Dy@physx@@YAPEAP6AXPEBUPxSolverConstraintDesc@2@IAEAUSolverContext@12@@ZXZ 000000018009fe20 f   LowLevelDynamics_static_64:DySolverControl.obj
 0001:0009ee30       ?getSolveWritebackBlockTable@Dy@physx@@YAPEAP6AXPEBUPxSolverConstraintDesc@2@IAEAUSolverContext@12@@ZXZ 000000018009fe30 f   LowLevelDynamics_static_64:DySolverControl.obj
 0001:0009ee40       ?SolverCoreRegisterArticulationFns@Dy@physx@@YAXXZ 000000018009fe40 f   LowLevelDynamics_static_64:DySolverControl.obj
 0001:0009eea0       ??0ThresholdStreamElement@Dy@physx@@QEAA@XZ 000000018009fea0 f i LowLevelDynamics_static_64:DySolverControl.obj
 0001:0009eec0       ??1SolverCore@Dy@physx@@UEAA@XZ 000000018009fec0 f i LowLevelDynamics_static_64:DySolverControl.obj
 0001:0009eed0       ??_GSolverCore@Dy@physx@@UEAAPEAXI@Z 000000018009fed0 f i LowLevelDynamics_static_64:DySolverControl.obj
 0001:0009eed0       ??_ESolverCore@Dy@physx@@UEAAPEAXI@Z 000000018009fed0 f i LowLevelDynamics_static_64:DySolverControl.obj
 0001:0009ef00       ??_GSolverCoreGeneral@Dy@physx@@UEAAPEAXI@Z 000000018009ff00 f i LowLevelDynamics_static_64:DySolverControl.obj
 0001:0009ef00       ??_ESolverCoreGeneral@Dy@physx@@UEAAPEAXI@Z 000000018009ff00 f i LowLevelDynamics_static_64:DySolverControl.obj
 0001:0009ef30       ?WaitForProgressCount@Dy@physx@@YAXPECHH@Z 000000018009ff30 f i LowLevelDynamics_static_64:DySolverControl.obj
 0001:0009efa0       ?setupSolverConstraintsTGS@Articulation@Dy@physx@@SAIAEBUArticulationSolverDesc@23@AEAVPxcConstraintBlockStream@3@PEAUPxSolverConstraintDesc@3@MMMAEAIAEAVPxsConstraintBlockManager@3@PEAUSpatialVectorF@Cm@3@@Z 000000018009ffa0 f   LowLevelDynamics_static_64:DyTGSContactPrep.obj
 0001:0009f8e0       ?createHardLimitTGS@ArticulationHelper@Dy@physx@@SAXAEBUFsData@23@PEBUArticulationLink@23@IAEAUSolverConstraint1DExtStep@23@AEBVPxVec3@3@MM@Z 00000001800a08e0 f   LowLevelDynamics_static_64:DyTGSContactPrep.obj
 0001:0009fb50       ?createTangentialSpringTGS@ArticulationHelper@Dy@physx@@SAXAEBUFsData@23@PEBUArticulationLink@23@IAEAUSolverConstraint1DExtStep@23@AEBVPxVec3@3@MMM@Z 00000001800a0b50 f   LowLevelDynamics_static_64:DyTGSContactPrep.obj
 0001:0009fe10       ?projectVelocity@SolverExtBodyStep@Dy@physx@@QEBAMAEBVPxVec3@3@0@Z 00000001800a0e10 f   LowLevelDynamics_static_64:DyTGSContactPrep.obj
 0001:0009ff80       ?getLinVel@SolverExtBodyStep@Dy@physx@@QEBA?AVPxVec3@3@XZ 00000001800a0f80 f   LowLevelDynamics_static_64:DyTGSContactPrep.obj
 0001:000a0000       ?getVelocity@SolverExtBodyStep@Dy@physx@@QEBA?AUSpatialVectorV@Cm@3@XZ 00000001800a1000 f   LowLevelDynamics_static_64:DyTGSContactPrep.obj
 0001:000a0060       ?createImpulseResponseVector@Dy@physx@@YA?AVSpatialVector@Cm@2@AEBVPxVec3@2@0AEBVSolverExtBodyStep@12@@Z 00000001800a1060 f   LowLevelDynamics_static_64:DyTGSContactPrep.obj
 0001:000a0160       ?createImpulseResponseVector@Dy@physx@@YA?AUSpatialVectorV@Cm@2@AEBT__m128@@0AEBVSolverExtBodyStep@12@@Z 00000001800a1160 f   LowLevelDynamics_static_64:DyTGSContactPrep.obj
 0001:000a01e0       ?getImpulseResponse@Dy@physx@@YAMAEBVSolverExtBodyStep@12@AEBVSpatialVector@Cm@2@AEAV452@MM012MM_N@Z 00000001800a11e0 f   LowLevelDynamics_static_64:DyTGSContactPrep.obj
 0001:000a06f0       ?getImpulseResponse@Dy@physx@@YA?AT__m128@@AEBVSolverExtBodyStep@12@AEBUSpatialVectorV@Cm@2@AEAU562@AEBT3@301233_N@Z 00000001800a16f0 f   LowLevelDynamics_static_64:DyTGSContactPrep.obj
 0001:000a0880       ?setupFinalizeExtSolverContactsStep@Dy@physx@@YAXPEBUContactPoint@Gu@2@AEBUCorrelationBuffer@12@AEBVPxTransform@2@2PEAEAEBVSolverExtBodyStep@12@4MMMMMMMM3MMM@Z 00000001800a1880 f   LowLevelDynamics_static_64:DyTGSContactPrep.obj
 0001:000a2170       ?createFinalizeSolverContactsStep@Dy@physx@@YA_NAEAUPxTGSSolverContactDesc@2@AEAUCorrelationBuffer@12@MMMMMAEAVPxConstraintAllocator@2@@Z 00000001800a3170 f   LowLevelDynamics_static_64:DyTGSContactPrep.obj
 0001:000a3110       ?createFinalizeSolverContactsStep@Dy@physx@@YA_NAEAUPxTGSSolverContactDesc@2@AEAUPxsContactManagerOutput@2@AEAVThreadContext@12@MMMMMAEAVPxConstraintAllocator@2@@Z 00000001800a4110 f   LowLevelDynamics_static_64:DyTGSContactPrep.obj
 0001:000a3550       ?solveContact@Dy@physx@@YAXAEBUPxSolverConstraintDesc@2@_NMM@Z 00000001800a4550 f   LowLevelDynamics_static_64:DyTGSContactPrep.obj
 0001:000a3ca0       ?writeBackContact@Dy@physx@@YAXAEBUPxSolverConstraintDesc@2@PEAUSolverContext@12@@Z 00000001800a4ca0 f   LowLevelDynamics_static_64:DyTGSContactPrep.obj
 0001:000a3dc0       ?setSolverConstantsStep@Dy@physx@@YAXAEAM000000AEBUPx1DConstraint@2@MMMMMMMMM@Z 00000001800a4dc0 f   LowLevelDynamics_static_64:DyTGSContactPrep.obj
 0001:000a4010       ?setupSolverConstraintStep@Dy@physx@@YAIAEBUPxTGSSolverConstraintPrepDesc@2@AEAVPxConstraintAllocator@2@MMMMM@Z 00000001800a5010 f   LowLevelDynamics_static_64:DyTGSContactPrep.obj
 0001:000a4d20       ?SetupSolverConstraintStep@Dy@physx@@YAIAEAUSolverConstraintShaderPrepDesc@12@AEAUPxTGSSolverConstraintPrepDesc@2@AEAVPxConstraintAllocator@2@MMMMM@Z 00000001800a5d20 f   LowLevelDynamics_static_64:DyTGSContactPrep.obj
 0001:000a4fb0       ?solveExt1D@Dy@physx@@YAXAEBUPxSolverConstraintDesc@2@AEAT__m128@@111AEBT4@22222M1111@Z 00000001800a5fb0 f   LowLevelDynamics_static_64:DyTGSContactPrep.obj
 0001:000a54e0       ?solveExt1DStep@Dy@physx@@YAXAEBUPxSolverConstraintDesc@2@MAEAUSolverContext@12@QEBUPxTGSSolverBodyTxInertia@2@@Z 00000001800a64e0 f   LowLevelDynamics_static_64:DyTGSContactPrep.obj
 0001:000a5950       ?solve1DStep@Dy@physx@@YAXAEBUPxSolverConstraintDesc@2@QEBUPxTGSSolverBodyTxInertia@2@M@Z 00000001800a6950 f   LowLevelDynamics_static_64:DyTGSContactPrep.obj
 0001:000a6450       ?conclude1DStep@Dy@physx@@YAXAEBUPxSolverConstraintDesc@2@@Z 00000001800a7450 f   LowLevelDynamics_static_64:DyTGSContactPrep.obj
 0001:000a64b0       ?concludeContact@Dy@physx@@YAXAEBUPxSolverConstraintDesc@2@@Z 00000001800a74b0 f   LowLevelDynamics_static_64:DyTGSContactPrep.obj
 0001:000a64c0       ?writeBack1D@Dy@physx@@YAXAEBUPxSolverConstraintDesc@2@@Z 00000001800a74c0 f   LowLevelDynamics_static_64:DyTGSContactPrep.obj
 0001:000a6a30       ?solveExtContactStep@Dy@physx@@YAXAEBUPxSolverConstraintDesc@2@AEAT__m128@@11111111111_NMM@Z 00000001800a7a30 f   LowLevelDynamics_static_64:DyTGSContactPrep.obj
 0001:000a7150       ?solveExtContactStep@Dy@physx@@YAXAEBUPxSolverConstraintDesc@2@_NMMAEAUSolverContext@12@@Z 00000001800a8150 f   LowLevelDynamics_static_64:DyTGSContactPrep.obj
 0001:000a7520       ?solveContactBlock@Dy@physx@@YAXAEBUPxConstraintBatchHeader@2@PEBUPxSolverConstraintDesc@2@QEBUPxTGSSolverBodyTxInertia@2@MMAEAUSolverContext@12@@Z 00000001800a8520 f   LowLevelDynamics_static_64:DyTGSContactPrep.obj
 0001:000a75a0       ?solve1DBlock@Dy@physx@@YAXAEBUPxConstraintBatchHeader@2@PEBUPxSolverConstraintDesc@2@QEBUPxTGSSolverBodyTxInertia@2@MMAEAUSolverContext@12@@Z 00000001800a85a0 f   LowLevelDynamics_static_64:DyTGSContactPrep.obj
 0001:000a7620       ?solveExtContactBlock@Dy@physx@@YAXAEBUPxConstraintBatchHeader@2@PEBUPxSolverConstraintDesc@2@QEBUPxTGSSolverBodyTxInertia@2@MMAEAUSolverContext@12@@Z 00000001800a8620 f   LowLevelDynamics_static_64:DyTGSContactPrep.obj
 0001:000a76c0       ?solveExt1DBlock@Dy@physx@@YAXAEBUPxConstraintBatchHeader@2@PEBUPxSolverConstraintDesc@2@QEBUPxTGSSolverBodyTxInertia@2@MMAEAUSolverContext@12@@Z 00000001800a86c0 f   LowLevelDynamics_static_64:DyTGSContactPrep.obj
 0001:000a7750       ?writeBackContact@Dy@physx@@YAXAEBUPxConstraintBatchHeader@2@PEBUPxSolverConstraintDesc@2@PEAUSolverContext@12@@Z 00000001800a8750 f   LowLevelDynamics_static_64:DyTGSContactPrep.obj
 0001:000a77b0       ?writeBack1D@Dy@physx@@YAXAEBUPxConstraintBatchHeader@2@PEBUPxSolverConstraintDesc@2@PEAUSolverContext@12@@Z 00000001800a87b0 f   LowLevelDynamics_static_64:DyTGSContactPrep.obj
 0001:000a7810       ?solveConclude1DBlock@Dy@physx@@YAXAEBUPxConstraintBatchHeader@2@PEBUPxSolverConstraintDesc@2@QEBUPxTGSSolverBodyTxInertia@2@MAEAUSolverContext@12@@Z 00000001800a8810 f   LowLevelDynamics_static_64:DyTGSContactPrep.obj
 0001:000a78f0       ?solveConclude1DBlockExt@Dy@physx@@YAXAEBUPxConstraintBatchHeader@2@PEBUPxSolverConstraintDesc@2@QEBUPxTGSSolverBodyTxInertia@2@MAEAUSolverContext@12@@Z 00000001800a88f0 f   LowLevelDynamics_static_64:DyTGSContactPrep.obj
 0001:000a79e0       ?solveConcludeContactBlock@Dy@physx@@YAXAEBUPxConstraintBatchHeader@2@PEBUPxSolverConstraintDesc@2@QEBUPxTGSSolverBodyTxInertia@2@MAEAUSolverContext@12@@Z 00000001800a89e0 f   LowLevelDynamics_static_64:DyTGSContactPrep.obj
 0001:000a7a70       ?solveConcludeContactExtBlock@Dy@physx@@YAXAEBUPxConstraintBatchHeader@2@PEBUPxSolverConstraintDesc@2@QEBUPxTGSSolverBodyTxInertia@2@MAEAUSolverContext@12@@Z 00000001800a8a70 f   LowLevelDynamics_static_64:DyTGSContactPrep.obj
 0001:000a7b00       ?ellipseClamp@shdfnd@physx@@YA?AVPxVec3@2@AEBV32@0@Z 00000001800a8b00 f i LowLevelDynamics_static_64:DyTGSContactPrep.obj
 0001:000a7d50       ?getLimit@ConeLimitHelper@Cm@physx@@QEBA_NAEBVPxQuat@3@AEAVPxVec3@3@AEAM@Z 00000001800a8d50 f i LowLevelDynamics_static_64:DyTGSContactPrep.obj
 0001:000a9dc0       ?computeBlockStreamByteSizes4@Dy@physx@@YAXPEAUPxTGSSolverContactDesc@2@AEAIPEAIAEBUCorrelationBuffer@12@@Z 00000001800aadc0 f   LowLevelDynamics_static_64:DyTGSContactPrepBlock.obj
 0001:000aa0d0       ?createFinalizeSolverContacts4Step@Dy@physx@@YA?AW4Enum@SolverConstraintPrepState@12@AEAUCorrelationBuffer@12@PEAUPxTGSSolverContactDesc@2@MMMMMMAEAVPxConstraintAllocator@2@@Z 00000001800ab0d0 f   LowLevelDynamics_static_64:DyTGSContactPrepBlock.obj
 0001:000aa8d0       ?createFinalizeSolverContacts4Step@Dy@physx@@YA?AW4Enum@SolverConstraintPrepState@12@PEAPEAUPxsContactManagerOutput@2@AEAVThreadContext@12@PEAUPxTGSSolverContactDesc@2@MMMMMMAEAVPxConstraintAllocator@2@@Z 00000001800ab8d0 f   LowLevelDynamics_static_64:DyTGSContactPrepBlock.obj
 0001:000aadf0       ?setupSolverConstraintStep4@Dy@physx@@YA?AW4Enum@SolverConstraintPrepState@12@PEIAUPxTGSSolverConstraintPrepDesc@2@MMMMAEAIAEAVPxConstraintAllocator@2@IM@Z 00000001800abdf0 f   LowLevelDynamics_static_64:DyTGSContactPrepBlock.obj
 0001:000ac800       ?setupSolverConstraintStep4@Dy@physx@@YA?AW4Enum@SolverConstraintPrepState@12@PEIAUSolverConstraintShaderPrepDesc@12@PEIAUPxTGSSolverConstraintPrepDesc@2@MMMMAEAIAEAVPxConstraintAllocator@2@M@Z 00000001800ad800 f   LowLevelDynamics_static_64:DyTGSContactPrepBlock.obj
 0001:000aca40       ?solveContact4_Block@Dy@physx@@YAXPEIBUPxSolverConstraintDesc@2@_NMM@Z 00000001800ada40 f   LowLevelDynamics_static_64:DyTGSContactPrepBlock.obj
 0001:000ad8a0       ?writeBackContact4_Block@Dy@physx@@YAXPEIBUPxSolverConstraintDesc@2@PEAUSolverContext@12@@Z 00000001800ae8a0 f   LowLevelDynamics_static_64:DyTGSContactPrepBlock.obj
 0001:000adca0       ?solveContact4@Dy@physx@@YAXAEBUPxConstraintBatchHeader@2@PEIBUPxSolverConstraintDesc@2@QEBUPxTGSSolverBodyTxInertia@2@MMAEAUSolverContext@12@@Z 00000001800aeca0 f   LowLevelDynamics_static_64:DyTGSContactPrepBlock.obj
 0001:000adcd0       ?writeBackContact4@Dy@physx@@YAXAEBUPxConstraintBatchHeader@2@PEIBUPxSolverConstraintDesc@2@PEAUSolverContext@12@@Z 00000001800aecd0 f   LowLevelDynamics_static_64:DyTGSContactPrepBlock.obj
 0001:000adcf0       ?solve1DStep4@Dy@physx@@YAXPEIBUPxSolverConstraintDesc@2@QEBUPxTGSSolverBodyTxInertia@2@M@Z 00000001800aecf0 f   LowLevelDynamics_static_64:DyTGSContactPrepBlock.obj
 0001:000af480       ?solve1D4@Dy@physx@@YAXAEBUPxConstraintBatchHeader@2@PEIBUPxSolverConstraintDesc@2@QEBUPxTGSSolverBodyTxInertia@2@MMAEAUSolverContext@12@@Z 00000001800b0480 f   LowLevelDynamics_static_64:DyTGSContactPrepBlock.obj
 0001:000af4b0       ?writeBack1D4@Dy@physx@@YAXAEBUPxConstraintBatchHeader@2@PEIBUPxSolverConstraintDesc@2@PEAUSolverContext@12@@Z 00000001800b04b0 f   LowLevelDynamics_static_64:DyTGSContactPrepBlock.obj
 0001:000af9f0       ?concludeContact4_Block@Dy@physx@@YAXPEIBUPxSolverConstraintDesc@2@@Z 00000001800b09f0 f   LowLevelDynamics_static_64:DyTGSContactPrepBlock.obj
 0001:000afa00       ?conclude1DStep4@Dy@physx@@YAXPEIBUPxSolverConstraintDesc@2@@Z 00000001800b0a00 f   LowLevelDynamics_static_64:DyTGSContactPrepBlock.obj
 0001:000afa60       ?solveConcludeContact4@Dy@physx@@YAXAEBUPxConstraintBatchHeader@2@PEBUPxSolverConstraintDesc@2@QEBUPxTGSSolverBodyTxInertia@2@MAEAUSolverContext@12@@Z 00000001800b0a60 f   LowLevelDynamics_static_64:DyTGSContactPrepBlock.obj
 0001:000afa90       ?solveConclude1D4@Dy@physx@@YAXAEBUPxConstraintBatchHeader@2@PEBUPxSolverConstraintDesc@2@QEBUPxTGSSolverBodyTxInertia@2@MAEAUSolverContext@12@@Z 00000001800b0a90 f   LowLevelDynamics_static_64:DyTGSContactPrepBlock.obj
 0001:000b2f30       ?packJointData@FeatherstoneArticulation@Dy@physx@@UEAAXPEBMPEAM@Z 00000001800b3f30 f   LowLevelDynamics_static_64:DyFeatherstoneInverseDynamic.obj
 0001:000b3040       ?unpackJointData@FeatherstoneArticulation@Dy@physx@@UEAAXPEBMPEAM@Z 00000001800b4040 f   LowLevelDynamics_static_64:DyFeatherstoneInverseDynamic.obj
 0001:000b3170       ?initializeCommonData@FeatherstoneArticulation@Dy@physx@@UEAAXXZ 00000001800b4170 f   LowLevelDynamics_static_64:DyFeatherstoneInverseDynamic.obj
 0001:000b31e0       ?getGeneralizedGravityForce@FeatherstoneArticulation@Dy@physx@@UEAAXAEBVPxVec3@3@AEAVPxArticulationCache@3@@Z 00000001800b41e0 f   LowLevelDynamics_static_64:DyFeatherstoneInverseDynamic.obj
 0001:000b3600       ?getCoriolisAndCentrifugalForce@FeatherstoneArticulation@Dy@physx@@UEAAXAEAVPxArticulationCache@3@@Z 00000001800b4600 f   LowLevelDynamics_static_64:DyFeatherstoneInverseDynamic.obj
 0001:000b37f0       ?getGeneralizedExternalForce@FeatherstoneArticulation@Dy@physx@@UEAAXAEAVPxArticulationCache@3@@Z 00000001800b47f0 f   LowLevelDynamics_static_64:DyFeatherstoneInverseDynamic.obj
 0001:000b3e20       ?getJointForce@FeatherstoneArticulation@Dy@physx@@UEAAXAEAVPxArticulationCache@3@@Z 00000001800b4e20 f   LowLevelDynamics_static_64:DyFeatherstoneInverseDynamic.obj
 0001:000b4020       ?getKMatrix@FeatherstoneArticulation@Dy@physx@@QEAAXPEAUArticulationJointCore@23@IIAEAVPxArticulationCache@3@@Z 00000001800b5020 f   LowLevelDynamics_static_64:DyFeatherstoneInverseDynamic.obj
 0001:000b4030       ?getCoefficientMatrix@FeatherstoneArticulation@Dy@physx@@UEAAXMIPEBVPxContactJoint@3@IAEAVPxArticulationCache@3@@Z 00000001800b5030 f   LowLevelDynamics_static_64:DyFeatherstoneInverseDynamic.obj
 0001:000b49b0       ?getCoefficientMatrixWithLoopJoints@FeatherstoneArticulation@Dy@physx@@UEAAXPEAUArticulationLoopConstraint@23@IAEAVPxArticulationCache@3@@Z 00000001800b59b0 f   LowLevelDynamics_static_64:DyFeatherstoneInverseDynamic.obj
 0001:000b5480       ?getLambda@FeatherstoneArticulation@Dy@physx@@UEAA_NPEAUArticulationLoopConstraint@23@IAEAVPxArticulationCache@3@1PEBMAEBVPxVec3@3@I@Z 00000001800b6480 f   LowLevelDynamics_static_64:DyFeatherstoneInverseDynamic.obj
 0001:000b6060       ?getGeneralizedMassMatrix@FeatherstoneArticulation@Dy@physx@@UEAAXAEAVPxArticulationCache@3@@Z 00000001800b7060 f   LowLevelDynamics_static_64:DyFeatherstoneInverseDynamic.obj
 0001:000b62e0       ?getGeneralizedMassMatrixCRB@FeatherstoneArticulation@Dy@physx@@UEAAXAEAVPxArticulationCache@3@@Z 00000001800b72e0 f   LowLevelDynamics_static_64:DyFeatherstoneInverseDynamic.obj
 0001:000b6350       ?applyCacheToDest@FeatherstoneArticulation@Dy@physx@@QEAA_NAEAVArticulationData@23@AEAVPxArticulationCache@3@PEAM222V?$PxFlags@W4Enum@PxArticulationCache@physx@@E@3@@Z 00000001800b7350 f   LowLevelDynamics_static_64:DyFeatherstoneInverseDynamic.obj
 0001:000b66e0       ?constraintPrep@FeatherstoneArticulation@Dy@physx@@IEAAXPEAUArticulationLoopConstraint@23@IPEAUSpatialVectorF@Cm@3@AEAUPxSolverConstraintPrepDesc@3@AEAUPxSolverBody@3@AEAUPxSolverBodyData@3@PEAUPxSolverConstraintDesc@3@AEAVPxConstraintAllocator@3@@Z 00000001800b76e0 f   LowLevelDynamics_static_64:DyFeatherstoneInverseDynamic.obj
 0001:000b6c70       ?jcalcLoopJointSubspace@FeatherstoneArticulation@Dy@physx@@IEAAXPEAUArticulationJointCore@23@AEAVArticulationJointCoreData@23@AEAUSpatialSubspaceMatrix@23@@Z 00000001800b7c70 f   LowLevelDynamics_static_64:DyFeatherstoneInverseDynamic.obj
 0001:000b79a0       ?getImpulseSelfResponseInv@FeatherstoneArticulation@Dy@physx@@IEAAX_NIIPEAUSpatialVectorF@Cm@3@AEBVSpatialVector@53@2AEAV653@3PEAM@Z 00000001800b89a0 f   LowLevelDynamics_static_64:DyFeatherstoneInverseDynamic.obj
 0001:000b7da0       ?getImpulseResponseSlowInv@FeatherstoneArticulation@Dy@physx@@IEAAXPEAUArticulationLink@23@AEBVArticulationData@23@IAEBVSpatialVector@Cm@3@AEAV673@I23PEAM@Z 00000001800b8da0 f   LowLevelDynamics_static_64:DyFeatherstoneInverseDynamic.obj
 0001:000b8a50       ?getImpulseResponseInv@FeatherstoneArticulation@Dy@physx@@IEAA?AUSpatialVectorF@Cm@3@_NIPEAU453@AEBVSpatialVector@53@PEAM@Z 00000001800b9a50 f   LowLevelDynamics_static_64:DyFeatherstoneInverseDynamic.obj
 0001:000b9190       ?inverseDynamic@FeatherstoneArticulation@Dy@physx@@IEAAXAEAVArticulationData@23@AEBVPxVec3@3@AEAUScratchData@23@_N@Z 00000001800ba190 f   LowLevelDynamics_static_64:DyFeatherstoneInverseDynamic.obj
 0001:000b9240       ?inverseDynamicFloatingBase@FeatherstoneArticulation@Dy@physx@@IEAAXAEAVArticulationData@23@AEBVPxVec3@3@AEAUScratchData@23@_N@Z 00000001800ba240 f   LowLevelDynamics_static_64:DyFeatherstoneInverseDynamic.obj
 0001:000b9300       ?computeZAForceInv@FeatherstoneArticulation@Dy@physx@@IEAAXAEAVArticulationData@23@AEAUScratchData@23@@Z 00000001800ba300 f   LowLevelDynamics_static_64:DyFeatherstoneInverseDynamic.obj
 0001:000b96b0       ?initCompositeSpatialInertia@FeatherstoneArticulation@Dy@physx@@IEAAXAEAVArticulationData@23@PEAUSpatialMatrix@23@@Z 00000001800ba6b0 f   LowLevelDynamics_static_64:DyFeatherstoneInverseDynamic.obj
 0001:000b9a90       ?computeCompositeSpatialInertiaAndZAForceInv@FeatherstoneArticulation@Dy@physx@@IEAAXAEAVArticulationData@23@AEAUScratchData@23@@Z 00000001800baa90 f   LowLevelDynamics_static_64:DyFeatherstoneInverseDynamic.obj
 0001:000b9f30       ?computeRelativeGeneralizedForceInv@FeatherstoneArticulation@Dy@physx@@IEAAXAEAVArticulationData@23@AEAUScratchData@23@@Z 00000001800baf30 f   LowLevelDynamics_static_64:DyFeatherstoneInverseDynamic.obj
 0001:000bb010       ?computeLinkAccelerationInv@FeatherstoneArticulation@Dy@physx@@IEAAXAEAVArticulationData@23@AEAUScratchData@23@@Z 00000001800bc010 f   LowLevelDynamics_static_64:DyFeatherstoneInverseDynamic.obj
 0001:000bb660       ?computeGeneralizedForceInv@FeatherstoneArticulation@Dy@physx@@IEAAXAEAVArticulationData@23@AEAUScratchData@23@@Z 00000001800bc660 f   LowLevelDynamics_static_64:DyFeatherstoneInverseDynamic.obj
 0001:000bb8d0       ?calculateMassMatrixColInv@FeatherstoneArticulation@Dy@physx@@IEAAXAEAUScratchData@23@@Z 00000001800bc8d0 f   LowLevelDynamics_static_64:DyFeatherstoneInverseDynamic.obj
 0001:000bc200       ?calculateHFixBase@FeatherstoneArticulation@Dy@physx@@IEAAXAEAVPxArticulationCache@3@@Z 00000001800bd200 f   LowLevelDynamics_static_64:DyFeatherstoneInverseDynamic.obj
 0001:000bc950       ?calculateHFloatingBase@FeatherstoneArticulation@Dy@physx@@IEAAXAEAVPxArticulationCache@3@@Z 00000001800bd950 f   LowLevelDynamics_static_64:DyFeatherstoneInverseDynamic.obj
 0001:000bdf80       ?computeHi@Dy@physx@@YAIAEAVArticulationData@12@IPEAMPEAUSpatialVectorF@Cm@2@@Z 00000001800bef80 f   LowLevelDynamics_static_64:DyFeatherstoneInverseDynamic.obj
 0001:000be3a0       ??0BlockBasedAllocator@Dy@physx@@QEAA@XZ 00000001800bf3a0 f i LowLevelDynamics_static_64:DyFeatherstoneInverseDynamic.obj
 0001:000be3c0       ??1ArticulationBlockAllocator@Dy@physx@@UEAA@XZ 00000001800bf3c0 f i LowLevelDynamics_static_64:DyFeatherstoneInverseDynamic.obj
 0001:000be4a0       ??1BlockBasedAllocator@Dy@physx@@UEAA@XZ 00000001800bf4a0 f i LowLevelDynamics_static_64:DyFeatherstoneInverseDynamic.obj
 0001:000be4f0       ??DPxMat33@physx@@QEBA?BVPxVec3@1@AEBV21@@Z 00000001800bf4f0 f i LowLevelDynamics_static_64:DyFeatherstoneInverseDynamic.obj
 0001:000be580       ??_GArticulationBlockAllocator@Dy@physx@@UEAAPEAXI@Z 00000001800bf580 f i LowLevelDynamics_static_64:DyFeatherstoneInverseDynamic.obj
 0001:000be580       ??_EArticulationBlockAllocator@Dy@physx@@UEAAPEAXI@Z 00000001800bf580 f i LowLevelDynamics_static_64:DyFeatherstoneInverseDynamic.obj
 0001:000be5c0       ??_EBlockBasedAllocator@Dy@physx@@UEAAPEAXI@Z 00000001800bf5c0 f i LowLevelDynamics_static_64:DyFeatherstoneInverseDynamic.obj
 0001:000be5c0       ??_GBlockBasedAllocator@Dy@physx@@UEAAPEAXI@Z 00000001800bf5c0 f i LowLevelDynamics_static_64:DyFeatherstoneInverseDynamic.obj
 0001:000be640       ?alloc@PxcScratchAllocator@physx@@QEAAPEAXI_N@Z 00000001800bf640 f i LowLevelDynamics_static_64:DyFeatherstoneInverseDynamic.obj
 0001:000be710       ?allocate@BlockBasedAllocator@Dy@physx@@UEAAPEAEI@Z 00000001800bf710 f i LowLevelDynamics_static_64:DyFeatherstoneInverseDynamic.obj
 0001:000be840       ?free@PxcScratchAllocator@physx@@QEAAXPEAX@Z 00000001800bf840 f i LowLevelDynamics_static_64:DyFeatherstoneInverseDynamic.obj
 0001:000be900       ?growAndPushBack@?$Array@PEAUAllocationPage@BlockBasedAllocator@Dy@physx@@V?$ReflectionAllocator@PEAUAllocationPage@BlockBasedAllocator@Dy@physx@@@shdfnd@4@@shdfnd@physx@@IEAAAEAPEAUAllocationPage@BlockBasedAllocator@Dy@3@AEBQEAU4563@@Z 00000001800bf900 f i LowLevelDynamics_static_64:DyFeatherstoneInverseDynamic.obj
 0001:000bea20       ?release@BlockBasedAllocator@Dy@physx@@QEAAXXZ 00000001800bfa20 f i LowLevelDynamics_static_64:DyFeatherstoneInverseDynamic.obj
 0001:000bea90       ?reserveConstraintData@ArticulationBlockAllocator@Dy@physx@@UEAAPEAEI@Z 00000001800bfa90 f i LowLevelDynamics_static_64:DyFeatherstoneInverseDynamic.obj
 0001:000beaa0       ?reserveFrictionData@ArticulationBlockAllocator@Dy@physx@@UEAAPEAEI@Z 00000001800bfaa0 f i LowLevelDynamics_static_64:DyFeatherstoneInverseDynamic.obj
 0001:000beac0       ?transformTranspose@PxMat33@physx@@QEBA?BVPxVec3@2@AEBV32@@Z 00000001800bfac0 f i LowLevelDynamics_static_64:DyFeatherstoneInverseDynamic.obj
 0001:000beb50       ?getJointAcceleration@FeatherstoneArticulation@Dy@physx@@UEAAXAEBVPxVec3@3@AEAVPxArticulationCache@3@@Z 00000001800bfb50 f   LowLevelDynamics_static_64:DyFeatherstoneForwardDynamic.obj
 0001:000bf5f0       ?computeUnconstrainedVelocities@FeatherstoneArticulation@Dy@physx@@SAIAEBUArticulationSolverDesc@23@MAEAVPxConstraintAllocator@3@PEAUPxSolverConstraintDesc@3@AEAIAEBVPxVec3@3@_KPEAUSpatialVectorF@Cm@3@6@Z 00000001800c05f0 f   LowLevelDynamics_static_64:DyFeatherstoneForwardDynamic.obj
 0001:000bf690       ?computeUnconstrainedVelocitiesTGS@FeatherstoneArticulation@Dy@physx@@SAXAEBUArticulationSolverDesc@23@MAEBVPxVec3@3@_KPEAUSpatialVectorF@Cm@3@3@Z 00000001800c0690 f   LowLevelDynamics_static_64:DyFeatherstoneForwardDynamic.obj
 0001:000bf6c0       ?updateBodies@FeatherstoneArticulation@Dy@physx@@SAXAEBUArticulationSolverDesc@23@M@Z 00000001800c06c0 f   LowLevelDynamics_static_64:DyFeatherstoneForwardDynamic.obj
 0001:000bf6e0       ?updateBodiesTGS@FeatherstoneArticulation@Dy@physx@@SAXAEBUArticulationSolverDesc@23@M@Z 00000001800c06e0 f   LowLevelDynamics_static_64:DyFeatherstoneForwardDynamic.obj
 0001:000bf700       ?updateBodies@FeatherstoneArticulation@Dy@physx@@SAXPEAV123@M_N@Z 00000001800c0700 f   LowLevelDynamics_static_64:DyFeatherstoneForwardDynamic.obj
 0001:000c0160       ?updateArticulation@FeatherstoneArticulation@Dy@physx@@IEAAXAEAUScratchData@23@AEBVPxVec3@3@PEAUSpatialVectorF@Cm@3@2@Z 00000001800c1160 f   LowLevelDynamics_static_64:DyFeatherstoneForwardDynamic.obj
 0001:000c0270       ?computeUnconstrainedVelocitiesInternal@FeatherstoneArticulation@Dy@physx@@IEAAXAEBVPxVec3@3@PEAUSpatialVectorF@Cm@3@1@Z 00000001800c1270 f   LowLevelDynamics_static_64:DyFeatherstoneForwardDynamic.obj
 0001:000c0770       ?initLinks@FeatherstoneArticulation@Dy@physx@@IEAAXAEAVArticulationData@23@AEBVPxVec3@3@AEAUScratchData@23@PEAUSpatialVectorF@Cm@3@3@Z 00000001800c1770 f   LowLevelDynamics_static_64:DyFeatherstoneForwardDynamic.obj
 0001:000c0840       ?computeIs@FeatherstoneArticulation@Dy@physx@@IEAAXAEAVArticulationLinkData@23@AEAVArticulationJointCoreData@23@I@Z 00000001800c1840 f   LowLevelDynamics_static_64:DyFeatherstoneForwardDynamic.obj
 0001:000c0c80       ?computePropagateSpatialInertia@FeatherstoneArticulation@Dy@physx@@KA?AUSpatialMatrix@23@EAEAVArticulationJointCoreData@23@AEBU423@PEBUSpatialVectorF@Cm@3@AEAUInvStIs@23@AEAUIsInvD@23@AEBUSpatialSubspaceMatrix@23@@Z 00000001800c1c80 f   LowLevelDynamics_static_64:DyFeatherstoneForwardDynamic.obj
 0001:000c1f80       ?computeArticulatedSpatialInertia@FeatherstoneArticulation@Dy@physx@@IEAAXAEAVArticulationData@23@@Z 00000001800c2f80 f   LowLevelDynamics_static_64:DyFeatherstoneForwardDynamic.obj
 0001:000c2b20       ?computeArticulatedResponseMatrix@FeatherstoneArticulation@Dy@physx@@IEAAXAEAVArticulationData@23@@Z 00000001800c3b20 f   LowLevelDynamics_static_64:DyFeatherstoneForwardDynamic.obj
 0001:000c3390       ?computeArticulatedSpatialZ@FeatherstoneArticulation@Dy@physx@@IEAAXAEAVArticulationData@23@AEAUScratchData@23@@Z 00000001800c4390 f   LowLevelDynamics_static_64:DyFeatherstoneForwardDynamic.obj
 0001:000c3a20       ?computeJointAccelerationW@FeatherstoneArticulation@Dy@physx@@IEAAXAEAVArticulationLinkData@23@AEAVArticulationJointCoreData@23@AEBUSpatialVectorF@Cm@3@PEAMI@Z 00000001800c4a20 f   LowLevelDynamics_static_64:DyFeatherstoneForwardDynamic.obj
 0001:000c3df0       ?computeLinkAcceleration@FeatherstoneArticulation@Dy@physx@@IEAAXAEAVArticulationData@23@AEAUScratchData@23@@Z 00000001800c4df0 f   LowLevelDynamics_static_64:DyFeatherstoneForwardDynamic.obj
 0001:000c4620       ?computeJointTransmittedFrictionForce@FeatherstoneArticulation@Dy@physx@@IEAAXAEAVArticulationData@23@AEAUScratchData@23@PEAUSpatialVectorF@Cm@3@2@Z 00000001800c5620 f   LowLevelDynamics_static_64:DyFeatherstoneForwardDynamic.obj
 0001:000c47c0       ?updateBodies@FeatherstoneArticulation@Dy@physx@@IEAAXXZ 00000001800c57c0 f   LowLevelDynamics_static_64:DyFeatherstoneForwardDynamic.obj
 0001:000c4a00       ?applyExternalImpulse@FeatherstoneArticulation@Dy@physx@@IEAAXPEAUArticulationLink@23@I_NAEAVArticulationData@23@PEAUSpatialVectorF@Cm@3@3MAEBVPxVec3@3@PEAVSpatialVector@73@@Z 00000001800c5a00 f   LowLevelDynamics_static_64:DyFeatherstoneForwardDynamic.obj
 0001:000c55b0       ?enforcePrismaticLimits@FeatherstoneArticulation@Dy@physx@@IEAAXPEAMPEAUArticulationJointCore@23@@Z 00000001800c65b0 f   LowLevelDynamics_static_64:DyFeatherstoneForwardDynamic.obj
 0001:000c5600       ?propagateLinksDown@FeatherstoneArticulation@Dy@physx@@QEAAXAEAVArticulationData@23@PEAM1PEAUSpatialVectorF@Cm@3@@Z 00000001800c6600 f   LowLevelDynamics_static_64:DyFeatherstoneForwardDynamic.obj
 0001:000c69d0       ?updateJointProperties@FeatherstoneArticulation@Dy@physx@@QEAAXPEBMPEBUSpatialVectorF@Cm@3@PEAM2@Z 00000001800c79d0 f   LowLevelDynamics_static_64:DyFeatherstoneForwardDynamic.obj
 0001:000c6de0       ?recomputeAccelerations@FeatherstoneArticulation@Dy@physx@@QEAAXM@Z 00000001800c7de0 f   LowLevelDynamics_static_64:DyFeatherstoneForwardDynamic.obj
 0001:000c6ff0       ?recomputeAcceleration@FeatherstoneArticulation@Dy@physx@@QEBA?AVSpatialVector@Cm@3@IM@Z 00000001800c7ff0 f   LowLevelDynamics_static_64:DyFeatherstoneForwardDynamic.obj
 0001:000c77c0       ?computeAndEnforceJointPositions@FeatherstoneArticulation@Dy@physx@@QEAAXAEAVArticulationData@23@PEAM@Z 00000001800c87c0 f   LowLevelDynamics_static_64:DyFeatherstoneForwardDynamic.obj
 0001:000c79a0       ?updateRootBody@FeatherstoneArticulation@Dy@physx@@SAXAEBUSpatialVectorF@Cm@3@AEBVPxTransform@3@AEAVArticulationData@23@M@Z 00000001800c89a0 f   LowLevelDynamics_static_64:DyFeatherstoneForwardDynamic.obj
 0001:000c7ba0       ?computeSphericalJointPositions@Dy@physx@@YA?AVPxQuat@2@V32@00PEAMAEBUSpatialSubspaceMatrix@12@@Z 00000001800c8ba0 f   LowLevelDynamics_static_64:DyFeatherstoneForwardDynamic.obj
 0001:000c7e30       ??4SpatialMatrix@Dy@physx@@QEAAAEAU012@$$QEAU012@@Z 00000001800c8e30 f i LowLevelDynamics_static_64:DyFeatherstoneForwardDynamic.obj
 0001:000c7ee0       ?constructSpatialMatrix@SpatialMatrix@Dy@physx@@SA?AU123@AEBUSpatialVectorF@Cm@3@0@Z 00000001800c8ee0 f i LowLevelDynamics_static_64:DyFeatherstoneForwardDynamic.obj
 0001:000c80e0       ?getInverse@PxMat33@physx@@QEBA?BV12@XZ 00000001800c90e0 f i LowLevelDynamics_static_64:DyFeatherstoneForwardDynamic.obj
 0001:000c8330       ?getInverse@SpatialMatrix@Dy@physx@@QEAA?AU123@XZ 00000001800c9330 f i LowLevelDynamics_static_64:DyFeatherstoneForwardDynamic.obj
 0001:000c8e50       ?createTGSDynamicsContext@Dy@physx@@YAPEAVContext@12@PEAVPxcNpMemBlockPool@2@AEAVPxcScratchAllocator@2@AEAVFlushPool@Cm@2@AEAUPxvSimStats@2@PEAVPxTaskManager@2@PEAVVirtualAllocatorCallback@shdfnd@2@PEAVPxsMaterialManager@2@PEAVIslandSim@IG@2@_K_N99M@Z 00000001800c9e50 f   LowLevelDynamics_static_64:DyTGSDynamics.obj
 0001:000c8f60       ?create@DynamicsTGSContext@Dy@physx@@SAPEAV123@PEAVPxcNpMemBlockPool@3@AEAVPxcScratchAllocator@3@AEAVFlushPool@Cm@3@AEAUPxvSimStats@3@PEAVPxTaskManager@3@PEAVVirtualAllocatorCallback@shdfnd@3@PEAVPxsMaterialManager@3@PEAVIslandSim@IG@3@_K_N99M@Z 00000001800c9f60 f   LowLevelDynamics_static_64:DyTGSDynamics.obj
 0001:000c9070       ?destroy@DynamicsTGSContext@Dy@physx@@UEAAXXZ 00000001800ca070 f   LowLevelDynamics_static_64:DyTGSDynamics.obj
 0001:000c90a0       ?update@DynamicsTGSContext@Dy@physx@@UEAAXAEAVSimpleIslandManager@IG@3@PEAVPxBaseTask@3@1PEAPEAVPxsContactManager@3@I2IIAEAVPxsContactManagerOutputIterator@3@PEAUPxsContactManagerOutput@3@MAEBVPxVec3@3@I@Z 00000001800ca0a0 f   LowLevelDynamics_static_64:DyTGSDynamics.obj
 0001:000c9a80       ?updatePostKinematic@DynamicsTGSContext@Dy@physx@@QEAAXAEAVSimpleIslandManager@IG@3@PEAVPxBaseTask@3@1@Z 00000001800caa80 f   LowLevelDynamics_static_64:DyTGSDynamics.obj
 0001:000c9e20       ?updateBodyCore@DynamicsTGSContext@Dy@physx@@UEAAXPEAVPxBaseTask@3@@Z 00000001800cae20 f   LowLevelDynamics_static_64:DyTGSDynamics.obj
 0001:000c9e30       ?mergeResults@DynamicsTGSContext@Dy@physx@@UEAAXXZ 00000001800cae30 f   LowLevelDynamics_static_64:DyTGSDynamics.obj
 0001:000c9e40       ??0DynamicsTGSContext@Dy@physx@@IEAA@PEAVPxcNpMemBlockPool@2@AEAVPxcScratchAllocator@2@AEAVFlushPool@Cm@2@AEAUPxvSimStats@2@PEAVPxTaskManager@2@PEAVVirtualAllocatorCallback@shdfnd@2@PEAVPxsMaterialManager@2@PEAVIslandSim@IG@2@_K_N99M@Z 00000001800cae40 f   LowLevelDynamics_static_64:DyTGSDynamics.obj
 0001:000ca280       ??1DynamicsTGSContext@Dy@physx@@MEAA@XZ 00000001800cb280 f   LowLevelDynamics_static_64:DyTGSDynamics.obj
 0001:000ca670       ?setDescFromIndices@DynamicsTGSContext@Dy@physx@@IEAAXAEAUPxSolverConstraintDesc@3@AEBUPxsIndexedInteraction@3@IPEAUPxTGSSolverBodyVel@3@@Z 00000001800cb670 f   LowLevelDynamics_static_64:DyTGSDynamics.obj
 0001:000ca780       ?setDescFromIndices@DynamicsTGSContext@Dy@physx@@IEAAXAEAUPxSolverConstraintDesc@3@IAEBVSimpleIslandManager@IG@3@PEAIIPEAUPxTGSSolverBodyVel@3@@Z 00000001800cb780 f   LowLevelDynamics_static_64:DyTGSDynamics.obj
 0001:000ca9d0       ?solveIsland@DynamicsTGSContext@Dy@physx@@IEAAXAEBUSolverIslandObjectsStep@23@AEBVPxsIslandIndices@3@IAEAVSimpleIslandManager@IG@3@PEAIPEAVPxsMaterialManager@3@AEAVPxsContactManagerOutputIterator@3@PEAVPxBaseTask@3@@Z 00000001800cb9d0 f   LowLevelDynamics_static_64:DyTGSDynamics.obj
 0001:000cb290       ?prepareBodiesAndConstraints@DynamicsTGSContext@Dy@physx@@IEAAXAEBUSolverIslandObjectsStep@23@AEAVSimpleIslandManager@IG@3@AEAUIslandContextStep@23@@Z 00000001800cc290 f   LowLevelDynamics_static_64:DyTGSDynamics.obj
 0001:000cb690       ?setupDescs@DynamicsTGSContext@Dy@physx@@IEAAXAEAUIslandContextStep@23@AEBUSolverIslandObjectsStep@23@AEAVSimpleIslandManager@IG@3@PEAIIAEAVPxsContactManagerOutputIterator@3@@Z 00000001800cc690 f   LowLevelDynamics_static_64:DyTGSDynamics.obj
 0001:000cb9b0       ?preIntegrateBodies@DynamicsTGSContext@Dy@physx@@IEAAXPEAPEAUPxsBodyCore@3@PEAPEAVPxsRigidBody@3@PEAUPxTGSSolverBodyVel@3@PEAUPxTGSSolverBodyTxInertia@3@PEAUPxTGSSolverBodyData@3@PEAIIAEBVPxVec3@3@MAEAI7I@Z 00000001800cc9b0 f   LowLevelDynamics_static_64:DyTGSDynamics.obj
 0001:000cbd70       ?setupArticulations@DynamicsTGSContext@Dy@physx@@IEAAXAEAUIslandContextStep@23@AEBVPxVec3@3@MAEAI2PEAVPxBaseTask@3@@Z 00000001800ccd70 f   LowLevelDynamics_static_64:DyTGSDynamics.obj
 0001:000cc0d0       ?setupArticulationInternalConstraints@DynamicsTGSContext@Dy@physx@@IEAAIAEAUIslandContextStep@23@MMPEAUPxSolverConstraintDesc@3@@Z 00000001800cd0d0 f   LowLevelDynamics_static_64:DyTGSDynamics.obj
 0001:000cc2a0       ?createSolverConstraints@DynamicsTGSContext@Dy@physx@@IEAAXPEAUPxSolverConstraintDesc@3@PEAUPxConstraintBatchHeader@3@IAEAVPxsContactManagerOutputIterator@3@AEAVThreadContext@23@3MMMI@Z 00000001800cd2a0 f   LowLevelDynamics_static_64:DyTGSDynamics.obj
 0001:000ccb90       ?solveConstraintsIteration@DynamicsTGSContext@Dy@physx@@IEAAXQEBUPxSolverConstraintDesc@3@QEBUPxConstraintBatchHeader@3@IMQEBUPxTGSSolverBodyTxInertia@3@MMAEAUSolverContext@23@@Z 00000001800cdb90 f   LowLevelDynamics_static_64:DyTGSDynamics.obj
 0001:000ccc50       ?solveConcludeConstraintsIteration@DynamicsTGSContext@Dy@physx@@IEAAXQEBUPxSolverConstraintDesc@3@QEBUPxConstraintBatchHeader@3@IPEAUPxTGSSolverBodyTxInertia@3@MAEAUSolverContext@23@@Z 00000001800cdc50 f   LowLevelDynamics_static_64:DyTGSDynamics.obj
 0001:000cccf0       ?parallelSolveConstraints@DynamicsTGSContext@Dy@physx@@IEAAXQEBUPxSolverConstraintDesc@3@QEBUPxConstraintBatchHeader@3@IPEAUPxTGSSolverBodyTxInertia@3@MMAEAUSolverContext@23@@Z 00000001800cdcf0 f   LowLevelDynamics_static_64:DyTGSDynamics.obj
 0001:000ccdb0       ?writebackConstraintsIteration@DynamicsTGSContext@Dy@physx@@IEAAXQEBUPxConstraintBatchHeader@3@QEBUPxSolverConstraintDesc@3@I@Z 00000001800cddb0 f   LowLevelDynamics_static_64:DyTGSDynamics.obj
 0001:000cce20       ?parallelWritebackConstraintsIteration@DynamicsTGSContext@Dy@physx@@IEAAXQEBUPxSolverConstraintDesc@3@QEBUPxConstraintBatchHeader@3@I@Z 00000001800cde20 f   LowLevelDynamics_static_64:DyTGSDynamics.obj
 0001:000cce90       ?integrateBodies@DynamicsTGSContext@Dy@physx@@IEAAXAEBUSolverIslandObjectsStep@23@IPEAUPxTGSSolverBodyVel@3@PEAUPxTGSSolverBodyTxInertia@3@QEBUPxTGSSolverBodyData@3@M@Z 00000001800cde90 f   LowLevelDynamics_static_64:DyTGSDynamics.obj
 0001:000cd270       ?parallelIntegrateBodies@DynamicsTGSContext@Dy@physx@@IEAAXPEAUPxTGSSolverBodyVel@3@PEAUPxTGSSolverBodyTxInertia@3@QEBUPxTGSSolverBodyData@3@IM@Z 00000001800ce270 f   LowLevelDynamics_static_64:DyTGSDynamics.obj
 0001:000cd650       ?copyBackBodies@DynamicsTGSContext@Dy@physx@@IEAAXAEBUSolverIslandObjectsStep@23@PEAUPxTGSSolverBodyVel@3@PEAUPxTGSSolverBodyTxInertia@3@PEAUPxTGSSolverBodyData@3@MAEAVIslandSim@IG@3@II@Z 00000001800ce650 f   LowLevelDynamics_static_64:DyTGSDynamics.obj
 0001:000ce3b0       ?updateArticulations@DynamicsTGSContext@Dy@physx@@IEAAXAEAVThreadContext@23@IIM@Z 00000001800cf3b0 f   LowLevelDynamics_static_64:DyTGSDynamics.obj
 0001:000ce440       ?stepArticulations@DynamicsTGSContext@Dy@physx@@IEAAXAEAVThreadContext@23@AEBVPxsIslandIndices@3@M@Z 00000001800cf440 f   LowLevelDynamics_static_64:DyTGSDynamics.obj
 0001:000ce4e0       ?iterativeSolveIsland@DynamicsTGSContext@Dy@physx@@IEAAXAEBUSolverIslandObjectsStep@23@AEBVPxsIslandIndices@3@AEAVThreadContext@23@MMIIAEAUSolverContext@23@@Z 00000001800cf4e0 f   LowLevelDynamics_static_64:DyTGSDynamics.obj
 0001:000cec80       ?iterativeSolveIslandParallel@DynamicsTGSContext@Dy@physx@@IEAAXAEBUSolverIslandObjectsStep@23@AEBVPxsIslandIndices@3@AEAVThreadContext@23@MIIPEAH33333II@Z 00000001800cfc80 f   LowLevelDynamics_static_64:DyTGSDynamics.obj
 0001:000cfe80       ?endIsland@DynamicsTGSContext@Dy@physx@@IEAAXAEAVThreadContext@23@@Z 00000001800d0e80 f   LowLevelDynamics_static_64:DyTGSDynamics.obj
 0001:000cfea0       ?finishSolveIsland@DynamicsTGSContext@Dy@physx@@IEAAXAEAVThreadContext@23@AEBUSolverIslandObjectsStep@23@AEBVPxsIslandIndices@3@AEAVSimpleIslandManager@IG@3@PEAVPxBaseTask@3@@Z 00000001800d0ea0 f   LowLevelDynamics_static_64:DyTGSDynamics.obj
 0001:000d0300       ?resetThreadContexts@DynamicsTGSContext@Dy@physx@@IEAAXXZ 00000001800d1300 f   LowLevelDynamics_static_64:DyTGSDynamics.obj
 0001:000d0380       ?copyToSolverBodyDataStep@Dy@physx@@YAXAEBVPxVec3@2@0M0AEBVPxTransform@2@MMIMMI_NAEAUPxTGSSolverBodyVel@2@AEAUPxTGSSolverBodyTxInertia@2@AEAUPxTGSSolverBodyData@2@@Z 00000001800d1380 f   LowLevelDynamics_static_64:DyTGSDynamics.obj
 0001:000d0770       ?copyToSolverBodyDataStepKinematic@Dy@physx@@YAXAEBVPxVec3@2@0AEBVPxTransform@2@MMIMMAEAUPxTGSSolverBodyVel@2@AEAUPxTGSSolverBodyTxInertia@2@AEAUPxTGSSolverBodyData@2@@Z 00000001800d1770 f   LowLevelDynamics_static_64:DyTGSDynamics.obj
 0001:000d0850       ?integrateCoreStep@Dy@physx@@YAXAEAUPxTGSSolverBodyVel@2@AEAUPxTGSSolverBodyTxInertia@2@M@Z 00000001800d1850 f   LowLevelDynamics_static_64:DyTGSDynamics.obj
 0001:000d0b90       ??$sort@UPxSolverConstraintDesc@physx@@UConstraintLess@Dy@2@@shdfnd@physx@@YAXPEAUPxSolverConstraintDesc@1@IAEBUConstraintLess@Dy@1@@Z 00000001800d1b90 f i LowLevelDynamics_static_64:DyTGSDynamics.obj
 0001:000d0bb0       ??$sort@UPxSolverConstraintDesc@physx@@UConstraintLess@Dy@2@V?$ReflectionAllocator@UPxSolverConstraintDesc@physx@@@shdfnd@2@@shdfnd@physx@@YAXPEAUPxSolverConstraintDesc@1@IAEBUConstraintLess@Dy@1@AEBV?$ReflectionAllocator@UPxSolverConstraintDesc@physx@@@01@I@Z 00000001800d1bb0 f i LowLevelDynamics_static_64:DyTGSDynamics.obj
 0001:000d1100       ??0PxTGSSolverConstraintPrepDesc@physx@@QEAA@XZ 00000001800d2100 f i LowLevelDynamics_static_64:DyTGSDynamics.obj
 0001:000d1110       ??0PxTGSSolverContactDesc@physx@@QEAA@XZ 00000001800d2110 f i LowLevelDynamics_static_64:DyTGSDynamics.obj
 0001:000d1120       ??1?$PxcThreadCoherentCache@VThreadContext@Dy@physx@@VPxcNpMemBlockPool@3@@physx@@QEAA@XZ 00000001800d2120 f i LowLevelDynamics_static_64:DyTGSDynamics.obj
 0001:000d11b0       ??1Context@Dy@physx@@MEAA@XZ 00000001800d21b0 f i LowLevelDynamics_static_64:DyTGSDynamics.obj
 0001:000d12c0       ??1ThreadContext@Dy@physx@@QEAA@XZ 00000001800d22c0 f i LowLevelDynamics_static_64:DyTGSDynamics.obj
 0001:000d1550       ??_EArticulationTask@Dy@physx@@UEAAPEAXI@Z 00000001800d2550 f i LowLevelDynamics_static_64:DyTGSDynamics.obj
 0001:000d1550       ??_GArticulationTask@Dy@physx@@UEAAPEAXI@Z 00000001800d2550 f i LowLevelDynamics_static_64:DyTGSDynamics.obj
 0001:000d1590       ??_GContext@Dy@physx@@MEAAPEAXI@Z 00000001800d2590 f i LowLevelDynamics_static_64:DyTGSDynamics.obj
 0001:000d1590       ??_EContext@Dy@physx@@MEAAPEAXI@Z 00000001800d2590 f i LowLevelDynamics_static_64:DyTGSDynamics.obj
 0001:000d15d0       ??_ECopyBackTask@Dy@physx@@UEAAPEAXI@Z 00000001800d25d0 f i LowLevelDynamics_static_64:DyTGSDynamics.obj
 0001:000d15d0       ??_GCopyBackTask@Dy@physx@@UEAAPEAXI@Z 00000001800d25d0 f i LowLevelDynamics_static_64:DyTGSDynamics.obj
 0001:000d1610       ??_EDynamicsMergeTask@Dy@physx@@UEAAPEAXI@Z 00000001800d2610 f i LowLevelDynamics_static_64:DyTGSDynamics.obj
 0001:000d1610       ??_GDynamicsMergeTask@Dy@physx@@UEAAPEAXI@Z 00000001800d2610 f i LowLevelDynamics_static_64:DyTGSDynamics.obj
 0001:000d1650       ??_EDynamicsTGSContext@Dy@physx@@MEAAPEAXI@Z 00000001800d2650 f i LowLevelDynamics_static_64:DyTGSDynamics.obj
 0001:000d1650       ??_GDynamicsTGSContext@Dy@physx@@MEAAPEAXI@Z 00000001800d2650 f i LowLevelDynamics_static_64:DyTGSDynamics.obj
 0001:000d1690       ??_EEndIslandTask@Dy@physx@@UEAAPEAXI@Z 00000001800d2690 f i LowLevelDynamics_static_64:DyTGSDynamics.obj
 0001:000d1690       ??_GEndIslandTask@Dy@physx@@UEAAPEAXI@Z 00000001800d2690 f i LowLevelDynamics_static_64:DyTGSDynamics.obj
 0001:000d16d0       ??_EFinishSolveIslandTask@Dy@physx@@UEAAPEAXI@Z 00000001800d26d0 f i LowLevelDynamics_static_64:DyTGSDynamics.obj
 0001:000d16d0       ??_GFinishSolveIslandTask@Dy@physx@@UEAAPEAXI@Z 00000001800d26d0 f i LowLevelDynamics_static_64:DyTGSDynamics.obj
 0001:000d1710       ??_EKinematicCopyTGSTask@Dy@physx@@UEAAPEAXI@Z 00000001800d2710 f i LowLevelDynamics_static_64:DyTGSDynamics.obj
 0001:000d1710       ??_GKinematicCopyTGSTask@Dy@physx@@UEAAPEAXI@Z 00000001800d2710 f i LowLevelDynamics_static_64:DyTGSDynamics.obj
 0001:000d1750       ??_EParallelSolveTask@Dy@physx@@UEAAPEAXI@Z 00000001800d2750 f i LowLevelDynamics_static_64:DyTGSDynamics.obj
 0001:000d1750       ??_GParallelSolveTask@Dy@physx@@UEAAPEAXI@Z 00000001800d2750 f i LowLevelDynamics_static_64:DyTGSDynamics.obj
 0001:000d1790       ??_GPartitionTask@Dy@physx@@UEAAPEAXI@Z 00000001800d2790 f i LowLevelDynamics_static_64:DyTGSDynamics.obj
 0001:000d1790       ??_EPartitionTask@Dy@physx@@UEAAPEAXI@Z 00000001800d2790 f i LowLevelDynamics_static_64:DyTGSDynamics.obj
 0001:000d17d0       ??_EPreIntegrateParallelTask@Dy@physx@@UEAAPEAXI@Z 00000001800d27d0 f i LowLevelDynamics_static_64:DyTGSDynamics.obj
 0001:000d17d0       ??_GPreIntegrateParallelTask@Dy@physx@@UEAAPEAXI@Z 00000001800d27d0 f i LowLevelDynamics_static_64:DyTGSDynamics.obj
 0001:000d1810       ??_EPreIntegrateTask@Dy@physx@@UEAAPEAXI@Z 00000001800d2810 f i LowLevelDynamics_static_64:DyTGSDynamics.obj
 0001:000d1810       ??_GPreIntegrateTask@Dy@physx@@UEAAPEAXI@Z 00000001800d2810 f i LowLevelDynamics_static_64:DyTGSDynamics.obj
 0001:000d1850       ??_EPxsCreateArticConstraintsSubTask@Dy@physx@@UEAAPEAXI@Z 00000001800d2850 f i LowLevelDynamics_static_64:DyTGSDynamics.obj
 0001:000d1850       ??_GPxsCreateArticConstraintsSubTask@Dy@physx@@UEAAPEAXI@Z 00000001800d2850 f i LowLevelDynamics_static_64:DyTGSDynamics.obj
 0001:000d1890       ??_ESetStepperTask@Dy@physx@@UEAAPEAXI@Z 00000001800d2890 f i LowLevelDynamics_static_64:DyTGSDynamics.obj
 0001:000d1890       ??_GSetStepperTask@Dy@physx@@UEAAPEAXI@Z 00000001800d2890 f i LowLevelDynamics_static_64:DyTGSDynamics.obj
 0001:000d18d0       ??_ESetupArticulationInternalConstraintsTask@Dy@physx@@UEAAPEAXI@Z 00000001800d28d0 f i LowLevelDynamics_static_64:DyTGSDynamics.obj
 0001:000d18d0       ??_GSetupArticulationInternalConstraintsTask@Dy@physx@@UEAAPEAXI@Z 00000001800d28d0 f i LowLevelDynamics_static_64:DyTGSDynamics.obj
 0001:000d1910       ??_ESetupArticulationTask@Dy@physx@@UEAAPEAXI@Z 00000001800d2910 f i LowLevelDynamics_static_64:DyTGSDynamics.obj
 0001:000d1910       ??_GSetupArticulationTask@Dy@physx@@UEAAPEAXI@Z 00000001800d2910 f i LowLevelDynamics_static_64:DyTGSDynamics.obj
 0001:000d1950       ??_ESetupDescsTask@Dy@physx@@UEAAPEAXI@Z 00000001800d2950 f i LowLevelDynamics_static_64:DyTGSDynamics.obj
 0001:000d1950       ??_GSetupDescsTask@Dy@physx@@UEAAPEAXI@Z 00000001800d2950 f i LowLevelDynamics_static_64:DyTGSDynamics.obj
 0001:000d1990       ??_GSetupSolverConstraintsSubTask@Dy@physx@@UEAAPEAXI@Z 00000001800d2990 f i LowLevelDynamics_static_64:DyTGSDynamics.obj
 0001:000d1990       ??_ESetupSolverConstraintsSubTask@Dy@physx@@UEAAPEAXI@Z 00000001800d2990 f i LowLevelDynamics_static_64:DyTGSDynamics.obj
 0001:000d19d0       ??_ESetupSolverConstraintsTask@Dy@physx@@UEAAPEAXI@Z 00000001800d29d0 f i LowLevelDynamics_static_64:DyTGSDynamics.obj
 0001:000d19d0       ??_GSetupSolverConstraintsTask@Dy@physx@@UEAAPEAXI@Z 00000001800d29d0 f i LowLevelDynamics_static_64:DyTGSDynamics.obj
 0001:000d1a10       ??_GSolveIslandTask@Dy@physx@@UEAAPEAXI@Z 00000001800d2a10 f i LowLevelDynamics_static_64:DyTGSDynamics.obj
 0001:000d1a10       ??_ESolveIslandTask@Dy@physx@@UEAAPEAXI@Z 00000001800d2a10 f i LowLevelDynamics_static_64:DyTGSDynamics.obj
 0001:000d1a50       ??_EUpdateArticTask@Dy@physx@@UEAAPEAXI@Z 00000001800d2a50 f i LowLevelDynamics_static_64:DyTGSDynamics.obj
 0001:000d1a50       ??_GUpdateArticTask@Dy@physx@@UEAAPEAXI@Z 00000001800d2a50 f i LowLevelDynamics_static_64:DyTGSDynamics.obj
 0001:000d1a90       ??_EUpdateContinuationTGSTask@Dy@physx@@UEAAPEAXI@Z 00000001800d2a90 f i LowLevelDynamics_static_64:DyTGSDynamics.obj
 0001:000d1a90       ??_GUpdateContinuationTGSTask@Dy@physx@@UEAAPEAXI@Z 00000001800d2a90 f i LowLevelDynamics_static_64:DyTGSDynamics.obj
 0001:000d1ad0       ?allocate@?$Array@VSpatialVector@Cm@physx@@V?$ReflectionAllocator@VSpatialVector@Cm@physx@@@shdfnd@3@@shdfnd@physx@@IEAAPEAVSpatialVector@Cm@3@I@Z 00000001800d2ad0 f i LowLevelDynamics_static_64:DyTGSDynamics.obj
 0001:000d1b70       ?allocate@FlushPool@Cm@physx@@QEAAPEAXII@Z 00000001800d2b70 f i LowLevelDynamics_static_64:DyTGSDynamics.obj
 0001:000d1ca0       ?copy@?$Array@UPxTGSSolverBodyTxInertia@physx@@V?$AlignedAllocator@$0IA@V?$ReflectionAllocator@UPxTGSSolverBodyTxInertia@physx@@@shdfnd@physx@@@shdfnd@2@@shdfnd@physx@@KAXPEAUPxTGSSolverBodyTxInertia@3@0PEBU43@@Z 00000001800d2ca0 f i LowLevelDynamics_static_64:DyTGSDynamics.obj
 0001:000d1f50       ?copy@?$Array@UPxTGSSolverBodyVel@physx@@V?$AlignedAllocator@$0IA@V?$ReflectionAllocator@UPxTGSSolverBodyVel@physx@@@shdfnd@physx@@@shdfnd@2@@shdfnd@physx@@KAXPEAUPxTGSSolverBodyVel@3@0PEBU43@@Z 00000001800d2f50 f i LowLevelDynamics_static_64:DyTGSDynamics.obj
 0001:000d22a0       ?copy@?$Array@VSpatialVector@Cm@physx@@V?$ReflectionAllocator@VSpatialVector@Cm@physx@@@shdfnd@3@@shdfnd@physx@@KAXPEAVSpatialVector@Cm@3@0PEBV453@@Z 00000001800d32a0 f i LowLevelDynamics_static_64:DyTGSDynamics.obj
 0001:000d2450       ?create@?$Array@UPxTGSSolverBodyData@physx@@V?$AlignedAllocator@$0IA@V?$ReflectionAllocator@UPxTGSSolverBodyData@physx@@@shdfnd@physx@@@shdfnd@2@@shdfnd@physx@@KAXPEAUPxTGSSolverBodyData@3@0AEBU43@@Z 00000001800d3450 f i LowLevelDynamics_static_64:DyTGSDynamics.obj
 0001:000d2650       ?create@?$Array@UPxTGSSolverBodyTxInertia@physx@@V?$AlignedAllocator@$0IA@V?$ReflectionAllocator@UPxTGSSolverBodyTxInertia@physx@@@shdfnd@physx@@@shdfnd@2@@shdfnd@physx@@KAXPEAUPxTGSSolverBodyTxInertia@3@0AEBU43@@Z 00000001800d3650 f i LowLevelDynamics_static_64:DyTGSDynamics.obj
 0001:000d2920       ?create@?$Array@UPxTGSSolverBodyVel@physx@@V?$AlignedAllocator@$0IA@V?$ReflectionAllocator@UPxTGSSolverBodyVel@physx@@@shdfnd@physx@@@shdfnd@2@@shdfnd@physx@@KAXPEAUPxTGSSolverBodyVel@3@0AEBU43@@Z 00000001800d3920 f i LowLevelDynamics_static_64:DyTGSDynamics.obj
 0001:000d2c90       ?get@?$PxcThreadCoherentCache@VThreadContext@Dy@physx@@VPxcNpMemBlockPool@3@@physx@@QEAAPEAVThreadContext@Dy@2@XZ 00000001800d3c90 f i LowLevelDynamics_static_64:DyTGSDynamics.obj
 0001:000d2d40       ?getDataStreamBase@DynamicsTGSContext@Dy@physx@@UEAAXAEAPEAX00@Z 00000001800d3d40 f i LowLevelDynamics_static_64:DyTGSDynamics.obj
 0001:000d2d50       ?getName@ArticulationTask@Dy@physx@@UEBAPEBDXZ 00000001800d3d50 f i LowLevelDynamics_static_64:DyTGSDynamics.obj
 0001:000d2d60       ?getName@CopyBackTask@Dy@physx@@UEBAPEBDXZ 00000001800d3d60 f i LowLevelDynamics_static_64:DyTGSDynamics.obj
 0001:000d2d70       ?getName@DynamicsMergeTask@Dy@physx@@UEBAPEBDXZ 00000001800d3d70 f i LowLevelDynamics_static_64:DyTGSDynamics.obj
 0001:000d2d80       ?getName@EndIslandTask@Dy@physx@@UEBAPEBDXZ 00000001800d3d80 f i LowLevelDynamics_static_64:DyTGSDynamics.obj
 0001:000d2d90       ?getName@FinishSolveIslandTask@Dy@physx@@UEBAPEBDXZ 00000001800d3d90 f i LowLevelDynamics_static_64:DyTGSDynamics.obj
 0001:000d2da0       ?getName@KinematicCopyTGSTask@Dy@physx@@UEBAPEBDXZ 00000001800d3da0 f i LowLevelDynamics_static_64:DyTGSDynamics.obj
 0001:000d2db0       ?getName@ParallelSolveTask@Dy@physx@@UEBAPEBDXZ 00000001800d3db0 f i LowLevelDynamics_static_64:DyTGSDynamics.obj
 0001:000d2dc0       ?getName@PartitionTask@Dy@physx@@UEBAPEBDXZ 00000001800d3dc0 f i LowLevelDynamics_static_64:DyTGSDynamics.obj
 0001:000d2dd0       ?getName@PreIntegrateParallelTask@Dy@physx@@UEBAPEBDXZ 00000001800d3dd0 f i LowLevelDynamics_static_64:DyTGSDynamics.obj
 0001:000d2de0       ?getName@PreIntegrateTask@Dy@physx@@UEBAPEBDXZ 00000001800d3de0 f i LowLevelDynamics_static_64:DyTGSDynamics.obj
 0001:000d2df0       ?getName@PxsCreateArticConstraintsSubTask@Dy@physx@@UEBAPEBDXZ 00000001800d3df0 f i LowLevelDynamics_static_64:DyTGSDynamics.obj
 0001:000d2e00       ?getName@SetStepperTask@Dy@physx@@UEBAPEBDXZ 00000001800d3e00 f i LowLevelDynamics_static_64:DyTGSDynamics.obj
 0001:000d2e10       ?getName@SetupArticulationInternalConstraintsTask@Dy@physx@@UEBAPEBDXZ 00000001800d3e10 f i LowLevelDynamics_static_64:DyTGSDynamics.obj
 0001:000d2e20       ?getName@SetupArticulationTask@Dy@physx@@UEBAPEBDXZ 00000001800d3e20 f i LowLevelDynamics_static_64:DyTGSDynamics.obj
 0001:000d2e30       ?getName@SetupDescsTask@Dy@physx@@UEBAPEBDXZ 00000001800d3e30 f i LowLevelDynamics_static_64:DyTGSDynamics.obj
 0001:000d2e40       ?getName@SetupSolverConstraintsSubTask@Dy@physx@@UEBAPEBDXZ 00000001800d3e40 f i LowLevelDynamics_static_64:DyTGSDynamics.obj
 0001:000d2e50       ?getName@SetupSolverConstraintsTask@Dy@physx@@UEBAPEBDXZ 00000001800d3e50 f i LowLevelDynamics_static_64:DyTGSDynamics.obj
 0001:000d2e60       ?getName@SolveIslandTask@Dy@physx@@UEBAPEBDXZ 00000001800d3e60 f i LowLevelDynamics_static_64:DyTGSDynamics.obj
 0001:000d2e70       ?getName@UpdateArticTask@Dy@physx@@UEBAPEBDXZ 00000001800d3e70 f i LowLevelDynamics_static_64:DyTGSDynamics.obj
 0001:000d2e80       ?getName@UpdateContinuationTGSTask@Dy@physx@@UEBAPEBDXZ 00000001800d3e80 f i LowLevelDynamics_static_64:DyTGSDynamics.obj
 0001:000d2e90       ?processLostPatches@DynamicsTGSContext@Dy@physx@@UEAAXAEAVSimpleIslandManager@IG@3@PEAPEAVPxsContactManager@3@IAEAVPxsContactManagerOutputIterator@3@@Z 00000001800d3e90 f i LowLevelDynamics_static_64:DyTGSDynamics.obj
 0001:000d2ea0       ?recreate@?$Array@PEAUPxsBodyCore@physx@@V?$ReflectionAllocator@PEAUPxsBodyCore@physx@@@shdfnd@2@@shdfnd@physx@@IEAAXI@Z 00000001800d3ea0 f i LowLevelDynamics_static_64:DyTGSDynamics.obj
 0001:000d2fb0       ?recreate@?$Array@PEAVArticulationV@Dy@physx@@V?$ReflectionAllocator@PEAVArticulationV@Dy@physx@@@shdfnd@3@@shdfnd@physx@@IEAAXI@Z 00000001800d3fb0 f i LowLevelDynamics_static_64:DyTGSDynamics.obj
 0001:000d30c0       ?recreate@?$Array@PEAVPxsRigidBody@physx@@V?$ReflectionAllocator@PEAVPxsRigidBody@physx@@@shdfnd@2@@shdfnd@physx@@IEAAXI@Z 00000001800d40c0 f i LowLevelDynamics_static_64:DyTGSDynamics.obj
 0001:000d31d0       ?recreate@?$Array@UPxConstraintBatchHeader@physx@@V?$ReflectionAllocator@UPxConstraintBatchHeader@physx@@@shdfnd@2@@shdfnd@physx@@IEAAXI@Z 00000001800d41d0 f i LowLevelDynamics_static_64:DyTGSDynamics.obj
 0001:000d32e0       ?recreate@?$Array@UPxSolverConstraintDesc@physx@@V?$AlignedAllocator@$0IA@V?$ReflectionAllocator@UPxSolverConstraintDesc@physx@@@shdfnd@physx@@@shdfnd@2@@shdfnd@physx@@IEAAXI@Z 00000001800d42e0 f i LowLevelDynamics_static_64:DyTGSDynamics.obj
 0001:000d33e0       ?recreate@?$Array@UPxTGSSolverBodyData@physx@@V?$AlignedAllocator@$0IA@V?$ReflectionAllocator@UPxTGSSolverBodyData@physx@@@shdfnd@physx@@@shdfnd@2@@shdfnd@physx@@IEAAXI@Z 00000001800d43e0 f i LowLevelDynamics_static_64:DyTGSDynamics.obj
 0001:000d36f0       ?recreate@?$Array@UPxTGSSolverBodyTxInertia@physx@@V?$AlignedAllocator@$0IA@V?$ReflectionAllocator@UPxTGSSolverBodyTxInertia@physx@@@shdfnd@physx@@@shdfnd@2@@shdfnd@physx@@IEAAXI@Z 00000001800d46f0 f i LowLevelDynamics_static_64:DyTGSDynamics.obj
 0001:000d3810       ?recreate@?$Array@UPxTGSSolverBodyVel@physx@@V?$AlignedAllocator@$0IA@V?$ReflectionAllocator@UPxTGSSolverBodyVel@physx@@@shdfnd@physx@@@shdfnd@2@@shdfnd@physx@@IEAAXI@Z 00000001800d4810 f i LowLevelDynamics_static_64:DyTGSDynamics.obj
 0001:000d3930       ?recreate@?$Array@UPxsIndexedContactManager@physx@@V?$ReflectionAllocator@UPxsIndexedContactManager@physx@@@shdfnd@2@@shdfnd@physx@@IEAAXI@Z 00000001800d4930 f i LowLevelDynamics_static_64:DyTGSDynamics.obj
 0001:000d3a50       ?recreate@?$Array@UThresholdStreamElement@Dy@physx@@VVirtualAllocator@shdfnd@3@@shdfnd@physx@@IEAAXI@Z 00000001800d4a50 f i LowLevelDynamics_static_64:DyTGSDynamics.obj
 0001:000d3b00       ?recreate@?$Array@VSpatialVector@Cm@physx@@V?$ReflectionAllocator@VSpatialVector@Cm@physx@@@shdfnd@3@@shdfnd@physx@@IEAAXI@Z 00000001800d4b00 f i LowLevelDynamics_static_64:DyTGSDynamics.obj
 0001:000d3b90       ?release@DynamicsMergeTask@Dy@physx@@UEAAXXZ 00000001800d4b90 f i LowLevelDynamics_static_64:DyTGSDynamics.obj
 0001:000d3bc0       ?release@SetStepperTask@Dy@physx@@UEAAXXZ 00000001800d4bc0 f i LowLevelDynamics_static_64:DyTGSDynamics.obj
 0001:000d3bf0       ?resize@?$Array@IV?$ReflectionAllocator@I@shdfnd@physx@@@shdfnd@physx@@QEAAXIAEBI@Z 00000001800d4bf0 f i LowLevelDynamics_static_64:DyTGSDynamics.obj
 0001:000d3cb0       ?resize@?$Array@UPxTGSSolverBodyData@physx@@V?$AlignedAllocator@$0IA@V?$ReflectionAllocator@UPxTGSSolverBodyData@physx@@@shdfnd@physx@@@shdfnd@2@@shdfnd@physx@@QEAAXIAEBUPxTGSSolverBodyData@3@@Z 00000001800d4cb0 f i LowLevelDynamics_static_64:DyTGSDynamics.obj
 0001:000d3d10       ?resize@?$Array@UPxTGSSolverBodyTxInertia@physx@@V?$AlignedAllocator@$0IA@V?$ReflectionAllocator@UPxTGSSolverBodyTxInertia@physx@@@shdfnd@physx@@@shdfnd@2@@shdfnd@physx@@QEAAXIAEBUPxTGSSolverBodyTxInertia@3@@Z 00000001800d4d10 f i LowLevelDynamics_static_64:DyTGSDynamics.obj
 0001:000d3d70       ?resize@?$Array@UPxTGSSolverBodyVel@physx@@V?$AlignedAllocator@$0IA@V?$ReflectionAllocator@UPxTGSSolverBodyVel@physx@@@shdfnd@physx@@@shdfnd@2@@shdfnd@physx@@QEAAXIAEBUPxTGSSolverBodyVel@3@@Z 00000001800d4d70 f i LowLevelDynamics_static_64:DyTGSDynamics.obj
 0001:000d3dd0       ?runInternal@ArticulationTask@Dy@physx@@UEAAXXZ 00000001800d4dd0 f i LowLevelDynamics_static_64:DyTGSDynamics.obj
 0001:000d3f00       ?runInternal@CopyBackTask@Dy@physx@@UEAAXXZ 00000001800d4f00 f i LowLevelDynamics_static_64:DyTGSDynamics.obj
 0001:000d3f50       ?runInternal@DynamicsMergeTask@Dy@physx@@UEAAXXZ 00000001800d4f50 f i LowLevelDynamics_static_64:DyTGSDynamics.obj
 0001:000d3f60       ?runInternal@EndIslandTask@Dy@physx@@UEAAXXZ 00000001800d4f60 f i LowLevelDynamics_static_64:DyTGSDynamics.obj
 0001:000d3f80       ?runInternal@FinishSolveIslandTask@Dy@physx@@UEAAXXZ 00000001800d4f80 f i LowLevelDynamics_static_64:DyTGSDynamics.obj
 0001:000d3fb0       ?runInternal@KinematicCopyTGSTask@Dy@physx@@UEAAXXZ 00000001800d4fb0 f i LowLevelDynamics_static_64:DyTGSDynamics.obj
 0001:000d4150       ?runInternal@ParallelSolveTask@Dy@physx@@UEAAXXZ 00000001800d5150 f i LowLevelDynamics_static_64:DyTGSDynamics.obj
 0001:000d4200       ?runInternal@PartitionTask@Dy@physx@@UEAAXXZ 00000001800d5200 f i LowLevelDynamics_static_64:DyTGSDynamics.obj
 0001:000d4630       ?runInternal@PreIntegrateParallelTask@Dy@physx@@UEAAXXZ 00000001800d5630 f i LowLevelDynamics_static_64:DyTGSDynamics.obj
 0001:000d46d0       ?runInternal@PreIntegrateTask@Dy@physx@@UEAAXXZ 00000001800d56d0 f i LowLevelDynamics_static_64:DyTGSDynamics.obj
 0001:000d4a40       ?runInternal@PxsCreateArticConstraintsSubTask@Dy@physx@@UEAAXXZ 00000001800d5a40 f i LowLevelDynamics_static_64:DyTGSDynamics.obj
 0001:000d4bc0       ?runInternal@SetStepperTask@Dy@physx@@UEAAXXZ 00000001800d5bc0 f i LowLevelDynamics_static_64:DyTGSDynamics.obj
 0001:000d4c40       ?runInternal@SetupArticulationInternalConstraintsTask@Dy@physx@@UEAAXXZ 00000001800d5c40 f i LowLevelDynamics_static_64:DyTGSDynamics.obj
 0001:000d4e40       ?runInternal@SetupArticulationTask@Dy@physx@@UEAAXXZ 00000001800d5e40 f i LowLevelDynamics_static_64:DyTGSDynamics.obj
 0001:000d4eb0       ?runInternal@SetupDescsTask@Dy@physx@@UEAAXXZ 00000001800d5eb0 f i LowLevelDynamics_static_64:DyTGSDynamics.obj
 0001:000d4f00       ?runInternal@SetupSolverConstraintsSubTask@Dy@physx@@UEAAXXZ 00000001800d5f00 f i LowLevelDynamics_static_64:DyTGSDynamics.obj
 0001:000d4fb0       ?runInternal@SetupSolverConstraintsTask@Dy@physx@@UEAAXXZ 00000001800d5fb0 f i LowLevelDynamics_static_64:DyTGSDynamics.obj
 0001:000d5410       ?runInternal@SolveIslandTask@Dy@physx@@UEAAXXZ 00000001800d6410 f i LowLevelDynamics_static_64:DyTGSDynamics.obj
 0001:000d58f0       ?runInternal@UpdateArticTask@Dy@physx@@UEAAXXZ 00000001800d68f0 f i LowLevelDynamics_static_64:DyTGSDynamics.obj
 0001:000d5990       ?runInternal@UpdateContinuationTGSTask@Dy@physx@@UEAAXXZ 00000001800d6990 f i LowLevelDynamics_static_64:DyTGSDynamics.obj
 0001:000d59c0       ?setSimulationController@DynamicsTGSContext@Dy@physx@@UEAAXPEAVPxsSimulationController@3@@Z 00000001800d69c0 f i LowLevelDynamics_static_64:DyTGSDynamics.obj
 0001:000d59d0       ?transformInertiaTensor@Cm@physx@@YAXAEBVPxVec3@2@AEBVPxMat33@2@AEAV42@@Z 00000001800d69d0 f i LowLevelDynamics_static_64:DyTGSDynamics.obj
 0001:000d5b50       ?getImpulseResponse@ArticulationHelper@Dy@physx@@SAXAEBUFsData@23@IAEBUSpatialVectorV@Cm@3@AEAU563@@Z 00000001800d6b50 f   LowLevelDynamics_static_64:DyArticulationHelper.obj
 0001:000d5f80       ?getImpulseSelfResponse@ArticulationHelper@Dy@physx@@SAXAEBUFsData@23@IAEBUSpatialVectorV@Cm@3@AEAU563@I12@Z 00000001800d6f80 f   LowLevelDynamics_static_64:DyArticulationHelper.obj
 0001:000d66b0       ?getLtbDataSize@ArticulationHelper@Dy@physx@@SAII@Z 00000001800d76b0 f   LowLevelDynamics_static_64:DyArticulationHelper.obj
 0001:000d66c0       ?getFsDataSize@ArticulationHelper@Dy@physx@@SAII@Z 00000001800d76c0 f   LowLevelDynamics_static_64:DyArticulationHelper.obj
 0001:000d66e0       ?createHardLimit@ArticulationHelper@Dy@physx@@SAXAEBUFsData@23@PEBUArticulationLink@23@IAEAUSolverConstraint1DExt@23@AEBVPxVec3@3@MM@Z 00000001800d76e0 f   LowLevelDynamics_static_64:DyArticulationHelper.obj
 0001:000d6960       ?createTangentialSpring@ArticulationHelper@Dy@physx@@SAXAEBUFsData@23@PEBUArticulationLink@23@IAEAUSolverConstraint1DExt@23@AEBVPxVec3@3@MMM@Z 00000001800d7960 f   LowLevelDynamics_static_64:DyArticulationHelper.obj
 0001:000d6c10       ?setupSolverConstraints@ArticulationHelper@Dy@physx@@SAIAEAVArticulation@23@IAEAVPxConstraintAllocator@3@PEAUPxSolverConstraintDesc@3@PEBUArticulationLink@23@PEBUArticulationJointTransforms@23@MAEAI@Z 00000001800d7c10 f   LowLevelDynamics_static_64:DyArticulationHelper.obj
 0001:000d74f0       ?getImpulseResponseSlow@Dy@physx@@YAXAEBUFsData@12@IAEBUSpatialVectorV@Cm@2@AEAU452@I12@Z 00000001800d84f0 f   LowLevelDynamics_static_64:DyArticulationHelper.obj
 0001:000d7ed0       ?PxcFsGetImpulseResponse@Dy@physx@@YAXAEBUFsData@12@IAEBUSpatialVectorV@Cm@2@AEAU452@@Z 00000001800d8ed0 f   LowLevelDynamics_static_64:DyArticulationHelper.obj
 0001:000d8330       ?PxcFsGetImpulseSelfResponse@Dy@physx@@YAXAEBUFsData@12@IAEBUSpatialVectorV@Cm@2@AEAU452@I12@Z 00000001800d9330 f   LowLevelDynamics_static_64:DyArticulationHelper.obj
 0001:000d8680       ?create@SolverCoreGeneralPF@Dy@physx@@SAPEAV123@XZ 00000001800d9680 f   LowLevelDynamics_static_64:DySolverControlPF.obj
 0001:000d86d0       ?destroyV@SolverCoreGeneralPF@Dy@physx@@UEAAXXZ 00000001800d96d0 f   LowLevelDynamics_static_64:DySolverControlPF.obj
 0001:000d8700       ?solveVParallelAndWriteBack@SolverCoreGeneralPF@Dy@physx@@UEBAHAEAUSolverIslandParams@23@PEAUSpatialVectorF@Cm@3@1@Z 00000001800d9700 f   LowLevelDynamics_static_64:DySolverControlPF.obj
 0001:000d9c70       ?solveV_Blocks@SolverCoreGeneralPF@Dy@physx@@UEBAXAEAUSolverIslandParams@23@@Z 00000001800dac70 f   LowLevelDynamics_static_64:DySolverControlPF.obj
